subject=/C=US/O=Test Certificates/CN=anyPolicy CA
issuer=/C=US/O=Test Certificates/CN=Trust Anchor
-----BEGIN CERTIFICATE-----
MIICfDCCAeWgAwIBAgIBJjANBgkqhkiG9w0BAQUFADBAMQswCQYDVQQGEwJVUzEa
MBgGA1UEChMRVGVzdCBDZXJ0aWZpY2F0ZXMxFTATBgNVBAMTDFRydXN0IEFuY2hv
cjAeFw0wMTA0MTkxNDU3MjBaFw0xMTA0MTkxNDU3MjBaMEAxCzAJBgNVBAYTAlVT
MRowGAYDVQQKExFUZXN0IENlcnRpZmljYXRlczEVMBMGA1UEAxMMYW55UG9saWN5
IENBMIGfMA0GCSqGSIb3DQEBAQUAA4GNADCBiQKBgQDGOGYJ7e91FozKo0McZ6T1
zTYa4IXfHqChuqKgri79fgKVZZsKwOyoHWJfsLn6ClknlWE9NJATHZfQp8GfLy9k
MbdXEKgZQoyWOV2Q0s37ez+I4yuR33JZpxtpKqYQW2fKdhhOdR+DcLwgWUJ4s1Gg
KCXhxYnC4nfSho/lgR3h/QIDAQABo4GFMIGCMB8GA1UdIwQYMBaAFPts1C2Bnson
ep4NsDzqmryH/0nqMB0GA1UdDgQWBBQ+s56i5EOF+2dAMYYTm8Zh7YbV4jAOBgNV
HQ8BAf8EBAMCAQYwEQYDVR0gBAowCDAGBgRVHSAAMA8GA1UdEwEB/wQFMAMBAf8w
DAYDVR0kBAUwA4ABADANBgkqhkiG9w0BAQUFAAOBgQA8JxYIM/manOaFxyoO3y+p
th/jCQFiR6fDo5mhYEOjZuHDWdejSZvNtbpPfNnKmM6W/qI57hZBgVDil9P/CMSi
wYPJvKl0ofonnhhPd+uMPhJENho/NhWyc1cgruABceTtBP966dRIhejL3K7SewrT
aV+IWdHVMKREjOXtHakoKQ==
-----END CERTIFICATE-----

subject=/C=US/O=Test Certificates/CN=All Certificates anyPolicy EE Certificate Test11
issuer=/C=US/O=Test Certificates/CN=anyPolicy CA
-----BEGIN CERTIFICATE-----
MIICfzCCAeigAwIBAgIBATANBgkqhkiG9w0BAQUFADBAMQswCQYDVQQGEwJVUzEa
MBgGA1UEChMRVGVzdCBDZXJ0aWZpY2F0ZXMxFTATBgNVBAMTDGFueVBvbGljeSBD
QTAeFw0wMTA0MTkxNDU3MjBaFw0xMTA0MTkxNDU3MjBaMGQxCzAJBgNVBAYTAlVT
MRowGAYDVQQKExFUZXN0IENlcnRpZmljYXRlczE5MDcGA1UEAxMwQWxsIENlcnRp
ZmljYXRlcyBhbnlQb2xpY3kgRUUgQ2VydGlmaWNhdGUgVGVzdDExMIGfMA0GCSqG
SIb3DQEBAQUAA4GNADCBiQKBgQDXI8MbFkMJTmeIdP1EpYg8qYdNkQRq1yNQYMHH
9TxFgw3L7sCGGxJS6PN4SS67CdnNZKNseFT+qAIDIbBw+p6uuAB4PWZEireOFo+s
PSdbG2Os76qFi12SpIniE64W5aSMzmccMf6RqzuqUROYH8wOzk8w6y+RI2qnkqDx
0HxJrwIDAQABo2UwYzAfBgNVHSMEGDAWgBQ+s56i5EOF+2dAMYYTm8Zh7YbV4jAd
BgNVHQ4EFgQUC8LFyye3gbbbFeNrasBg1Fq10JYwDgYDVR0PAQH/BAQDAgTwMBEG
A1UdIAQKMAgwBgYEVR0gADANBgkqhkiG9w0BAQUFAAOBgQAmASNJNMm+5XfUYE/I
IhtOmsbGvCrIWyMyhcv7gosAMSsXYU+8CzWpkjP0zS42rEphyqP8zUAWjR/BqUJV
9uwenHlpNeVflKgq0UVqYeoqc+afpvgLe+2o2Fe81Uz2tQ+LjwRQCm0/dhEVeZ4B
JutCF8LtmT3hv2RlWp5v1mmG4w==
-----END CERTIFICATE-----

Certificate Revocation List (CRL):
        Version 2 (0x1)
        Signature Algorithm: sha1WithRSAEncryption
        Issuer: /C=US/O=Test Certificates/CN=anyPolicy CA
        Last Update: Apr 19 14:57:20 2001 GMT
        Next Update: Apr 19 14:57:20 2011 GMT
        CRL extensions:
            X509v3 Authority Key Identifier: 
                keyid:3E:B3:9E:A2:E4:43:85:FB:67:40:31:86:13:9B:C6:61:ED:86:D5:E2

            X509v3 CRL Number: 
                1
No Revoked Certificates.
    Signature Algorithm: sha1WithRSAEncryption
        2a:c3:2d:e7:f3:91:d6:67:7b:66:88:f9:22:e8:64:c9:80:a2:
        88:bb:d7:a0:84:a3:75:ab:d5:af:72:d0:fa:1f:ed:4e:42:29:
        62:23:32:25:59:4d:a3:45:c1:bc:ae:37:c8:b2:d0:79:00:96:
        84:0d:7d:a2:f0:58:d7:c4:99:64:cc:4e:8b:5f:88:f6:6f:cf:
        ee:39:54:34:8c:7b:0f:e7:43:0b:26:d8:6e:c4:f8:6a:ed:80:
        9a:47:d3:38:bb:82:9b:fe:bf:6b:01:6e:c9:e7:8f:3e:cc:b1:
        4a:a3:df:86:3a:2d:ca:62:6c:dd:27:a8:51:c2:b4:3f:c5:ba:
        90:6c
-----BEGIN X509 CRL-----
MIIBOTCBowIBATANBgkqhkiG9w0BAQUFADBAMQswCQYDVQQGEwJVUzEaMBgGA1UE
ChMRVGVzdCBDZXJ0aWZpY2F0ZXMxFTATBgNVBAMTDGFueVBvbGljeSBDQRcNMDEw
NDE5MTQ1NzIwWhcNMTEwNDE5MTQ1NzIwWqAvMC0wHwYDVR0jBBgwFoAUPrOeouRD
hftnQDGGE5vGYe2G1eIwCgYDVR0UBAMCAQEwDQYJKoZIhvcNAQEFBQADgYEAKsMt
5/OR1md7Zoj5IuhkyYCiiLvXoISjdavVr3LQ+h/tTkIpYiMyJVlNo0XBvK43yLLQ
eQCWhA19ovBY18SZZMxOi1+I9m/P7jlUNIx7D+dDCybYbsT4au2AmkfTOLuCm/6/
awFuyeePPsyxSqPfhjotymJs3SeoUcK0P8W6kGw=
-----END X509 CRL-----

Certificate Revocation List (CRL):
        Version 2 (0x1)
        Signature Algorithm: sha1WithRSAEncryption
        Issuer: /C=US/O=Test Certificates/CN=Trust Anchor
        Last Update: Apr 19 14:57:20 2001 GMT
        Next Update: Apr 19 14:57:20 2011 GMT
        CRL extensions:
            X509v3 Authority Key Identifier: 
                keyid:FB:6C:D4:2D:81:9E:CA:27:7A:9E:0D:B0:3C:EA:9A:BC:87:FF:49:EA

            X509v3 CRL Number: 
                1
Revoked Certificates:
    Serial Number: 68
        Revocation Date: Apr 19 14:57:20 2001 GMT
        CRL entry extensions:
            X509v3 CRL Reason Code: 
                Key Compromise
    Signature Algorithm: sha1WithRSAEncryption
        92:12:c4:34:b4:92:ab:ba:71:6b:74:31:16:ce:ed:25:d6:4b:
        1e:fa:f8:20:1e:9d:d7:7f:30:ed:15:f7:8b:5d:64:9b:dd:31:
        40:e4:55:0f:0c:5f:82:69:63:00:76:a5:cf:9e:c4:5f:f2:53:
        9b:9b:7d:f5:69:1d:74:57:38:70:e5:fb:5b:76:58:c9:ec:31:
        dc:94:1b:02:ee:9d:33:9c:38:4b:29:1d:e1:0c:29:8b:6e:c7:
        bf:a0:e8:40:34:83:cf:ff:9f:cd:b5:f7:d9:4d:a7:9f:2e:bf:
        44:98:6b:f2:d3:fe:a8:20:31:c1:33:76:b7:1c:19:65:4d:b9:
        14:39
-----BEGIN X509 CRL-----
MIIBXTCBxwIBATANBgkqhkiG9w0BAQUFADBAMQswCQYDVQQGEwJVUzEaMBgGA1UE
ChMRVGVzdCBDZXJ0aWZpY2F0ZXMxFTATBgNVBAMTDFRydXN0IEFuY2hvchcNMDEw
NDE5MTQ1NzIwWhcNMTEwNDE5MTQ1NzIwWjAiMCACAWgXDTAxMDQxOTE0NTcyMFow
DDAKBgNVHRUEAwoBAaAvMC0wHwYDVR0jBBgwFoAU+2zULYGeyid6ng2wPOqavIf/
SeowCgYDVR0UBAMCAQEwDQYJKoZIhvcNAQEFBQADgYEAkhLENLSSq7pxa3QxFs7t
JdZLHvr4IB6d138w7RX3i11km90xQORVDwxfgmljAHalz57EX/JTm5t99WkddFc4
cOX7W3ZYyewx3JQbAu6dM5w4Sykd4Qwpi27Hv6DoQDSDz/+fzbX32U2nny6/RJhr
8tP+qCAxwTN2txwZZU25FDk=
-----END X509 CRL-----

