subject=/C=US/O=Test Certificates/CN=No Policies CA
issuer=/C=US/O=Test Certificates/CN=Trust Anchor
-----BEGIN CERTIFICATE-----
MIICWzCCAcSgAwIBAgIBIjANBgkqhkiG9w0BAQUFADBAMQswCQYDVQQGEwJVUzEa
MBgGA1UEChMRVGVzdCBDZXJ0aWZpY2F0ZXMxFTATBgNVBAMTDFRydXN0IEFuY2hv
cjAeFw0wMTA0MTkxNDU3MjBaFw0xMTA0MTkxNDU3MjBaMEIxCzAJBgNVBAYTAlVT
MRowGAYDVQQKExFUZXN0IENlcnRpZmljYXRlczEXMBUGA1UEAxMOTm8gUG9saWNp
ZXMgQ0EwgZ8wDQYJKoZIhvcNAQEBBQADgY0AMIGJAoGBAKWH/haSHmzYQAYFLKMA
cbwROk7OaY3N6TMLQIz4yWrwGzpy+kiIDZ2xVPnyHRHp12VlAI5u78kQKAivhpNw
ovjgrUmE86zb3/OOa341tubElI6Y9G1Y1tnzPCK+hi1vjrHAHr1Glf8VOgZ9ijpU
SjXOsw5pFlz22uc7BRI7S/K1AgMBAAGjYzBhMB8GA1UdIwQYMBaAFPts1C2Bnson
ep4NsDzqmryH/0nqMB0GA1UdDgQWBBRTwRQlfeVbPleR+JYOkJ5dxiWoujAOBgNV
HQ8BAf8EBAMCAQYwDwYDVR0TAQH/BAUwAwEB/zANBgkqhkiG9w0BAQUFAAOBgQBr
G1ayCZm1VdyAqi1JuxUTt6bQcd8iNR0vvnl49QzjKgCNRqNV69RCH0U4ZST8D57t
TVN8DJITlnH+Kbid6OWcgkb+vi5C0SPLPNym18RVzKNQtR88lJCByvNbx/CprRYl
EfsMrs6FA8loVY0rVrUpEsTjVxyDh+fb8GZ3CAJIng==
-----END CERTIFICATE-----

subject=/C=US/O=Test Certificates/CN=All Certificates No Policies EE Certificate Test2
issuer=/C=US/O=Test Certificates/CN=No Policies CA
-----BEGIN CERTIFICATE-----
MIICbzCCAdigAwIBAgIBATANBgkqhkiG9w0BAQUFADBCMQswCQYDVQQGEwJVUzEa
MBgGA1UEChMRVGVzdCBDZXJ0aWZpY2F0ZXMxFzAVBgNVBAMTDk5vIFBvbGljaWVz
IENBMB4XDTAxMDQxOTE0NTcyMFoXDTExMDQxOTE0NTcyMFowZTELMAkGA1UEBhMC
VVMxGjAYBgNVBAoTEVRlc3QgQ2VydGlmaWNhdGVzMTowOAYDVQQDEzFBbGwgQ2Vy
dGlmaWNhdGVzIE5vIFBvbGljaWVzIEVFIENlcnRpZmljYXRlIFRlc3QyMIGfMA0G
CSqGSIb3DQEBAQUAA4GNADCBiQKBgQCbFHIGRAKQBl4eS/EWvFaVcb/7H30je7Yf
LmXoIYQGeWJZQfXWSsJyXyoaMhf4uLonxy8mi1Ap8vy3Fqc9b55Cm48xatNCao6D
W6YbSQu9hiSXCMxjXWnrYfi62KywO6I2y5JbT0CZ2PbQO0lFXYKPaTFDKzgf9l4x
ppvlkUQdsQIDAQABo1IwUDAfBgNVHSMEGDAWgBRTwRQlfeVbPleR+JYOkJ5dxiWo
ujAdBgNVHQ4EFgQUy5AB5Gdr2u2a+KXtJZFHFSHyopEwDgYDVR0PAQH/BAQDAgTw
MA0GCSqGSIb3DQEBBQUAA4GBAGk2l02zPeeK5Xca7UysnHmcjV08jAnZw6WqKJlS
ZK/upXnIu/i4JXjxhC/aBpFDs1foGPEPb7vPwJBq6psJ/qvrL3FxzWnmp08P4iUP
c7e9vxXYaMIQC3duKeV6SOn5VrpSPYRfchw/i70FJ+QCw9xAvNZ2X45Pzi9k9xUg
VfLw
-----END CERTIFICATE-----

Certificate Revocation List (CRL):
        Version 2 (0x1)
        Signature Algorithm: sha1WithRSAEncryption
        Issuer: /C=US/O=Test Certificates/CN=No Policies CA
        Last Update: Apr 19 14:57:20 2001 GMT
        Next Update: Apr 19 14:57:20 2011 GMT
        CRL extensions:
            X509v3 Authority Key Identifier: 
                keyid:53:C1:14:25:7D:E5:5B:3E:57:91:F8:96:0E:90:9E:5D:C6:25:A8:BA

            X509v3 CRL Number: 
                1
No Revoked Certificates.
    Signature Algorithm: sha1WithRSAEncryption
        32:a4:9a:ca:5f:51:9e:91:db:fb:8a:0a:85:9b:64:c7:08:ef:
        d5:17:43:34:7b:ad:53:90:4d:d1:43:10:f9:47:88:de:f3:78:
        67:2a:3a:4b:0e:5c:1a:a5:ee:19:b9:ef:f9:eb:3f:f1:39:2c:
        31:ab:e5:14:a7:90:8a:87:71:c6:78:a1:75:df:84:aa:3a:68:
        37:8a:ba:65:79:1f:31:93:8c:4e:6a:f1:1c:3b:fb:68:79:34:
        55:5b:42:55:8d:f3:2d:9f:f6:47:8d:64:6a:02:84:0b:97:aa:
        2c:c6:96:18:ed:b3:b1:a1:62:b4:73:40:83:00:1f:1e:96:ec:
        d2:ff
-----BEGIN X509 CRL-----
MIIBOzCBpQIBATANBgkqhkiG9w0BAQUFADBCMQswCQYDVQQGEwJVUzEaMBgGA1UE
ChMRVGVzdCBDZXJ0aWZpY2F0ZXMxFzAVBgNVBAMTDk5vIFBvbGljaWVzIENBFw0w
MTA0MTkxNDU3MjBaFw0xMTA0MTkxNDU3MjBaoC8wLTAfBgNVHSMEGDAWgBRTwRQl
feVbPleR+JYOkJ5dxiWoujAKBgNVHRQEAwIBATANBgkqhkiG9w0BAQUFAAOBgQAy
pJrKX1Gekdv7igqFm2THCO/VF0M0e61TkE3RQxD5R4je83hnKjpLDlwape4Zue/5
6z/xOSwxq+UUp5CKh3HGeKF134SqOmg3irpleR8xk4xOavEcO/toeTRVW0JVjfMt
n/ZHjWRqAoQLl6osxpYY7bOxoWK0c0CDAB8eluzS/w==
-----END X509 CRL-----

Certificate Revocation List (CRL):
        Version 2 (0x1)
        Signature Algorithm: sha1WithRSAEncryption
        Issuer: /C=US/O=Test Certificates/CN=Trust Anchor
        Last Update: Apr 19 14:57:20 2001 GMT
        Next Update: Apr 19 14:57:20 2011 GMT
        CRL extensions:
            X509v3 Authority Key Identifier: 
                keyid:FB:6C:D4:2D:81:9E:CA:27:7A:9E:0D:B0:3C:EA:9A:BC:87:FF:49:EA

            X509v3 CRL Number: 
                1
Revoked Certificates:
    Serial Number: 68
        Revocation Date: Apr 19 14:57:20 2001 GMT
        CRL entry extensions:
            X509v3 CRL Reason Code: 
                Key Compromise
    Signature Algorithm: sha1WithRSAEncryption
        92:12:c4:34:b4:92:ab:ba:71:6b:74:31:16:ce:ed:25:d6:4b:
        1e:fa:f8:20:1e:9d:d7:7f:30:ed:15:f7:8b:5d:64:9b:dd:31:
        40:e4:55:0f:0c:5f:82:69:63:00:76:a5:cf:9e:c4:5f:f2:53:
        9b:9b:7d:f5:69:1d:74:57:38:70:e5:fb:5b:76:58:c9:ec:31:
        dc:94:1b:02:ee:9d:33:9c:38:4b:29:1d:e1:0c:29:8b:6e:c7:
        bf:a0:e8:40:34:83:cf:ff:9f:cd:b5:f7:d9:4d:a7:9f:2e:bf:
        44:98:6b:f2:d3:fe:a8:20:31:c1:33:76:b7:1c:19:65:4d:b9:
        14:39
-----BEGIN X509 CRL-----
MIIBXTCBxwIBATANBgkqhkiG9w0BAQUFADBAMQswCQYDVQQGEwJVUzEaMBgGA1UE
ChMRVGVzdCBDZXJ0aWZpY2F0ZXMxFTATBgNVBAMTDFRydXN0IEFuY2hvchcNMDEw
NDE5MTQ1NzIwWhcNMTEwNDE5MTQ1NzIwWjAiMCACAWgXDTAxMDQxOTE0NTcyMFow
DDAKBgNVHRUEAwoBAaAvMC0wHwYDVR0jBBgwFoAU+2zULYGeyid6ng2wPOqavIf/
SeowCgYDVR0UBAMCAQEwDQYJKoZIhvcNAQEFBQADgYEAkhLENLSSq7pxa3QxFs7t
JdZLHvr4IB6d138w7RX3i11km90xQORVDwxfgmljAHalz57EX/JTm5t99WkddFc4
cOX7W3ZYyewx3JQbAu6dM5w4Sykd4Qwpi27Hv6DoQDSDz/+fzbX32U2nny6/RJhr
8tP+qCAxwTN2txwZZU25FDk=
-----END X509 CRL-----

