subject=/C=US/O=Test Certificates/CN=Policies P123 CA
issuer=/C=US/O=Test Certificates/CN=Trust Anchor
-----BEGIN CERTIFICATE-----
MIICojCCAgugAwIBAgIBJDANBgkqhkiG9w0BAQUFADBAMQswCQYDVQQGEwJVUzEa
MBgGA1UEChMRVGVzdCBDZXJ0aWZpY2F0ZXMxFTATBgNVBAMTDFRydXN0IEFuY2hv
cjAeFw0wMTA0MTkxNDU3MjBaFw0xMTA0MTkxNDU3MjBaMEQxCzAJBgNVBAYTAlVT
MRowGAYDVQQKExFUZXN0IENlcnRpZmljYXRlczEZMBcGA1UEAxMQUG9saWNpZXMg
UDEyMyBDQTCBnzANBgkqhkiG9w0BAQEFAAOBjQAwgYkCgYEAuGtVArq1otVEuN/s
xR5XSOEfVzIms1FiprO4UReYXUDbKzmCYC6YypbEnOP2JpLQOPwAfVqLL8FV7xiS
o+HmK25R0aK9nQGFUPX0U9o4b5NRcWFAoYBAF2GOFBNqGF6d9wBFPlijGMT8nWr5
ahnujYSC1Emy88N4hkp1fj4o7yMCAwEAAaOBpzCBpDAfBgNVHSMEGDAWgBT7bNQt
gZ7KJ3qeDbA86pq8h/9J6jAdBgNVHQ4EFgQU0L/Nm9/xkf2Ch1oQz5Cvi7zyxcww
DgYDVR0PAQH/BAQDAgEGMDMGA1UdIAQsMCowDAYKYIZIAWUDAgEwATAMBgpghkgB
ZQMCATACMAwGCmCGSAFlAwIBMAMwDwYDVR0TAQH/BAUwAwEB/zAMBgNVHSQEBTAD
gAEAMA0GCSqGSIb3DQEBBQUAA4GBAHcVVBwhebD5vRKleXMh71kleQIL8QOQFpHM
jVYS/KJiBsVUTebOeONSU0cuPmzomEkpLyYPz8cDroidExtxGEpkKgYBGi1c5ext
cDUGFsTWENTFFWjZ7xA56XUtGd8alXJfY0v6QSHqoYFosJvoqU2bjX6jqQVK5HbY
kko1SxlW
-----END CERTIFICATE-----

subject=/C=US/O=Test Certificates/CN=All Certificates Same Policies EE Certificate Test13
issuer=/C=US/O=Test Certificates/CN=Policies P123 CA
-----BEGIN CERTIFICATE-----
MIICqzCCAhSgAwIBAgIBAjANBgkqhkiG9w0BAQUFADBEMQswCQYDVQQGEwJVUzEa
MBgGA1UEChMRVGVzdCBDZXJ0aWZpY2F0ZXMxGTAXBgNVBAMTEFBvbGljaWVzIFAx
MjMgQ0EwHhcNMDEwNDE5MTQ1NzIwWhcNMTEwNDE5MTQ1NzIwWjBoMQswCQYDVQQG
EwJVUzEaMBgGA1UEChMRVGVzdCBDZXJ0aWZpY2F0ZXMxPTA7BgNVBAMTNEFsbCBD
ZXJ0aWZpY2F0ZXMgU2FtZSBQb2xpY2llcyBFRSBDZXJ0aWZpY2F0ZSBUZXN0MTMw
gZ8wDQYJKoZIhvcNAQEBBQADgY0AMIGJAoGBAJ6RCve4HAIbl7RQiw7tPY3IJ0oT
KvS2jsUu4eNuzThRoKW0cWW3N+Jk1rkqgaaebVodXrb9cuDFONWRL0X2DZazb5h/
4FX3obShqywkydsz7vBoixmRXa/oKtIa78h5zQTSDPR0sJeWIikOUJZMIJv4CNw1
Pwvu3Y3i9CwT6m2fAgMBAAGjgYgwgYUwHwYDVR0jBBgwFoAU0L/Nm9/xkf2Ch1oQ
z5Cvi7zyxcwwHQYDVR0OBBYEFGqUba1DKQxc60sgeqLAqyOR/22bMA4GA1UdDwEB
/wQEAwIE8DAzBgNVHSAELDAqMAwGCmCGSAFlAwIBMAEwDAYKYIZIAWUDAgEwAjAM
BgpghkgBZQMCATADMA0GCSqGSIb3DQEBBQUAA4GBAAd1diIEB4YaH7gH6DO1vptE
G2YpbuvISfPDhWjrLI/sLSJTH3l+kC/GE4FDEHJ0Rc76la5gyUbRwX1zTZKHGyxx
NhuE3i0XkrAlR6xRUJRcb1SgD7JqMzup7ZuFP9h3+txi71G33fMStCxKGa6ijUKd
LTzImFXGxbWm6SZujuyJ
-----END CERTIFICATE-----

Certificate Revocation List (CRL):
        Version 2 (0x1)
        Signature Algorithm: sha1WithRSAEncryption
        Issuer: /C=US/O=Test Certificates/CN=Policies P123 CA
        Last Update: Apr 19 14:57:20 2001 GMT
        Next Update: Apr 19 14:57:20 2011 GMT
        CRL extensions:
            X509v3 Authority Key Identifier: 
                keyid:D0:BF:CD:9B:DF:F1:91:FD:82:87:5A:10:CF:90:AF:8B:BC:F2:C5:CC

            X509v3 CRL Number: 
                1
No Revoked Certificates.
    Signature Algorithm: sha1WithRSAEncryption
        81:c2:63:b3:65:bd:c4:2d:98:7c:e0:85:dd:5f:07:d7:b4:1b:
        7a:64:a7:7f:60:3d:62:3a:70:af:d5:97:23:23:9a:48:e3:b7:
        8b:c0:3d:43:c1:66:e8:24:db:ed:a9:ab:0a:70:51:d8:7d:65:
        92:ea:e9:6f:cb:96:8e:3b:cf:94:e9:9c:d2:27:54:29:8c:81:
        84:1d:a6:22:65:85:46:70:07:da:1d:e9:79:9f:e7:3c:4e:96:
        1b:11:d9:08:ec:f7:95:15:c9:db:8d:a7:17:16:3e:76:bb:41:
        98:15:94:b3:1a:19:6f:1e:dc:10:24:c8:ae:bc:38:93:c5:04:
        ef:9d
-----BEGIN X509 CRL-----
MIIBPTCBpwIBATANBgkqhkiG9w0BAQUFADBEMQswCQYDVQQGEwJVUzEaMBgGA1UE
ChMRVGVzdCBDZXJ0aWZpY2F0ZXMxGTAXBgNVBAMTEFBvbGljaWVzIFAxMjMgQ0EX
DTAxMDQxOTE0NTcyMFoXDTExMDQxOTE0NTcyMFqgLzAtMB8GA1UdIwQYMBaAFNC/
zZvf8ZH9godaEM+Qr4u88sXMMAoGA1UdFAQDAgEBMA0GCSqGSIb3DQEBBQUAA4GB
AIHCY7NlvcQtmHzghd1fB9e0G3pkp39gPWI6cK/VlyMjmkjjt4vAPUPBZugk2+2p
qwpwUdh9ZZLq6W/Llo47z5TpnNInVCmMgYQdpiJlhUZwB9od6Xmf5zxOlhsR2Qjs
95UVyduNpxcWPna7QZgVlLMaGW8e3BAkyK68OJPFBO+d
-----END X509 CRL-----

Certificate Revocation List (CRL):
        Version 2 (0x1)
        Signature Algorithm: sha1WithRSAEncryption
        Issuer: /C=US/O=Test Certificates/CN=Trust Anchor
        Last Update: Apr 19 14:57:20 2001 GMT
        Next Update: Apr 19 14:57:20 2011 GMT
        CRL extensions:
            X509v3 Authority Key Identifier: 
                keyid:FB:6C:D4:2D:81:9E:CA:27:7A:9E:0D:B0:3C:EA:9A:BC:87:FF:49:EA

            X509v3 CRL Number: 
                1
Revoked Certificates:
    Serial Number: 68
        Revocation Date: Apr 19 14:57:20 2001 GMT
        CRL entry extensions:
            X509v3 CRL Reason Code: 
                Key Compromise
    Signature Algorithm: sha1WithRSAEncryption
        92:12:c4:34:b4:92:ab:ba:71:6b:74:31:16:ce:ed:25:d6:4b:
        1e:fa:f8:20:1e:9d:d7:7f:30:ed:15:f7:8b:5d:64:9b:dd:31:
        40:e4:55:0f:0c:5f:82:69:63:00:76:a5:cf:9e:c4:5f:f2:53:
        9b:9b:7d:f5:69:1d:74:57:38:70:e5:fb:5b:76:58:c9:ec:31:
        dc:94:1b:02:ee:9d:33:9c:38:4b:29:1d:e1:0c:29:8b:6e:c7:
        bf:a0:e8:40:34:83:cf:ff:9f:cd:b5:f7:d9:4d:a7:9f:2e:bf:
        44:98:6b:f2:d3:fe:a8:20:31:c1:33:76:b7:1c:19:65:4d:b9:
        14:39
-----BEGIN X509 CRL-----
MIIBXTCBxwIBATANBgkqhkiG9w0BAQUFADBAMQswCQYDVQQGEwJVUzEaMBgGA1UE
ChMRVGVzdCBDZXJ0aWZpY2F0ZXMxFTATBgNVBAMTDFRydXN0IEFuY2hvchcNMDEw
NDE5MTQ1NzIwWhcNMTEwNDE5MTQ1NzIwWjAiMCACAWgXDTAxMDQxOTE0NTcyMFow
DDAKBgNVHRUEAwoBAaAvMC0wHwYDVR0jBBgwFoAU+2zULYGeyid6ng2wPOqavIf/
SeowCgYDVR0UBAMCAQEwDQYJKoZIhvcNAQEFBQADgYEAkhLENLSSq7pxa3QxFs7t
JdZLHvr4IB6d138w7RX3i11km90xQORVDwxfgmljAHalz57EX/JTm5t99WkddFc4
cOX7W3ZYyewx3JQbAu6dM5w4Sykd4Qwpi27Hv6DoQDSDz/+fzbX32U2nny6/RJhr
8tP+qCAxwTN2txwZZU25FDk=
-----END X509 CRL-----

