subject=/C=US/O=Test Certificates/CN=Policies P123 subsubCAP12P2
issuer=/C=US/O=Test Certificates/CN=Policies P123 subCAP12
-----BEGIN CERTIFICATE-----
MIICizCCAfSgAwIBAgIBAjANBgkqhkiG9w0BAQUFADBKMQswCQYDVQQGEwJVUzEa
MBgGA1UEChMRVGVzdCBDZXJ0aWZpY2F0ZXMxHzAdBgNVBAMTFlBvbGljaWVzIFAx
MjMgc3ViQ0FQMTIwHhcNMDEwNDE5MTQ1NzIwWhcNMTEwNDE5MTQ1NzIwWjBPMQsw
CQYDVQQGEwJVUzEaMBgGA1UEChMRVGVzdCBDZXJ0aWZpY2F0ZXMxJDAiBgNVBAMT
G1BvbGljaWVzIFAxMjMgc3Vic3ViQ0FQMTJQMjCBnzANBgkqhkiG9w0BAQEFAAOB
jQAwgYkCgYEA/QzSHTVMWeTWiSZ9qa++M+UWF0AfCPT9oTdaLUwN0Tnb845G4Jh5
Ov5u75dfUmAmvRM1brlhZoYZZa3cBvQP+1YoAOosVY1qy4xX/6OE2zqM45IRhyLd
VlAJ2WJ96jOpb/HV3vodX2vjDndDMMxKRXd0WIHzbC/aZGzWYXwUvfkCAwEAAaN8
MHowHwYDVR0jBBgwFoAUWocIIfvckxBtmgt8x2qxaEvfVdcwHQYDVR0OBBYEFIvs
OfOjrm45cGR/aCtNVJAsjgXAMA4GA1UdDwEB/wQEAwIBBjAXBgNVHSAEEDAOMAwG
CmCGSAFlAwIBMAIwDwYDVR0TAQH/BAUwAwEB/zANBgkqhkiG9w0BAQUFAAOBgQCg
uNxU4/XUIM6O0+DSr6607Epm4PaQEAnvLsgMdHGHCLXL0mwL/9sNnSXGQg08zVpa
k5RjmIGMD+UcMJ28kArNA9u3q4QNB5OXZtrhoPTGhBaBtwR3rL2ZEvQxUw67t2wV
TpBcguqwCt7IIuNbBOoN3Uilox3T4WptJ/A7+zW8oA==
-----END CERTIFICATE-----

subject=/C=US/O=Test Certificates/CN=Policies P123 subCAP12
issuer=/C=US/O=Test Certificates/CN=Policies P123 CA
-----BEGIN CERTIFICATE-----
MIICkDCCAfmgAwIBAgIBATANBgkqhkiG9w0BAQUFADBEMQswCQYDVQQGEwJVUzEa
MBgGA1UEChMRVGVzdCBDZXJ0aWZpY2F0ZXMxGTAXBgNVBAMTEFBvbGljaWVzIFAx
MjMgQ0EwHhcNMDEwNDE5MTQ1NzIwWhcNMTEwNDE5MTQ1NzIwWjBKMQswCQYDVQQG
EwJVUzEaMBgGA1UEChMRVGVzdCBDZXJ0aWZpY2F0ZXMxHzAdBgNVBAMTFlBvbGlj
aWVzIFAxMjMgc3ViQ0FQMTIwgZ8wDQYJKoZIhvcNAQEBBQADgY0AMIGJAoGBAOll
J21WulD37Mn1rV21nTiHp+5zJm7d2iKVBk051MbS63EnC5jnUm0D6a5QJiQR8Ai2
tuB17ppJED42WQtI7o8exytiya4Y4BvDOeGlVbVZSGgbk2vjlTzg+caDcAkVSzWD
YMs02A14NrbFODXEyAyJ7rsOTycvQorNHm6zUBvRAgMBAAGjgYswgYgwHwYDVR0j
BBgwFoAU0L/Nm9/xkf2Ch1oQz5Cvi7zyxcwwHQYDVR0OBBYEFFqHCCH73JMQbZoL
fMdqsWhL31XXMA4GA1UdDwEB/wQEAwIBBjAlBgNVHSAEHjAcMAwGCmCGSAFlAwIB
MAEwDAYKYIZIAWUDAgEwAjAPBgNVHRMBAf8EBTADAQH/MA0GCSqGSIb3DQEBBQUA
A4GBAD9AiTI21pU5RaP49a5YdThygUEjL+Hvvoq4cbbg7dN3qbjYJBXUruTWyY+c
pSqrS3q3rUlt99O+9JFqZSX8LCVRMg0yWSlwymdeY8a5EBS099ZFB+r9v4tIndk0
r1uaX/PyEiMNd+eT8GdxBwl+Jo+AHTvuHx0G9iRwLbS5Es0u
-----END CERTIFICATE-----

subject=/C=US/O=Test Certificates/CN=Different Policies EE Certificate Test9
issuer=/C=US/O=Test Certificates/CN=Policies P123 subsubsubCAP12P2P1
-----BEGIN CERTIFICATE-----
MIICkDCCAfmgAwIBAgIBATANBgkqhkiG9w0BAQUFADBUMQswCQYDVQQGEwJVUzEa
MBgGA1UEChMRVGVzdCBDZXJ0aWZpY2F0ZXMxKTAnBgNVBAMTIFBvbGljaWVzIFAx
MjMgc3Vic3Vic3ViQ0FQMTJQMlAxMB4XDTAxMDQxOTE0NTcyMFoXDTExMDQxOTE0
NTcyMFowWzELMAkGA1UEBhMCVVMxGjAYBgNVBAoTEVRlc3QgQ2VydGlmaWNhdGVz
MTAwLgYDVQQDEydEaWZmZXJlbnQgUG9saWNpZXMgRUUgQ2VydGlmaWNhdGUgVGVz
dDkwgZ8wDQYJKoZIhvcNAQEBBQADgY0AMIGJAoGBAKiBlSODZy8jLC4WxxNVbFCA
SbxY2A4DLV2OXhCjWmUmHQvZhiXk2p/wQCX/9VMcX7XRH9a3JLM9l6ZSEIGVT6lO
R55lGOjNfpF8x+pGe/t0yPB/6ntPn5e9ZSNhDJDoYkJHfdplTFu2AZLbaVPlysXL
AoO69sbnDPVxAjxFX2zLAgMBAAGjazBpMB8GA1UdIwQYMBaAFNMqu/C1V0GVUt3P
qLuSnOARbnO8MB0GA1UdDgQWBBQg7JO9uU0ScBZcuzznmEWH36QRTzAOBgNVHQ8B
Af8EBAMCBPAwFwYDVR0gBBAwDjAMBgpghkgBZQMCATABMA0GCSqGSIb3DQEBBQUA
A4GBAEeaZ7Bsae+J0lNKAzqJhR4MHfT/5SBBazWGVSwIbpWl02esU9RtrStOTA8d
zcMp2eLg3KDI+XRsYkxFb+fmJDckIYhGk2g3B9kW1a24k8DetYIqOXtFvleJ55dG
iROwoCaH8/bW75CMK0alSXqJCAnTq+Pbg5i0nPX0ShJlSjAf
-----END CERTIFICATE-----

subject=/C=US/O=Test Certificates/CN=Policies P123 subsubsubCAP12P2P1
issuer=/C=US/O=Test Certificates/CN=Policies P123 subsubCAP12P2
-----BEGIN CERTIFICATE-----
MIIClTCCAf6gAwIBAgIBATANBgkqhkiG9w0BAQUFADBPMQswCQYDVQQGEwJVUzEa
MBgGA1UEChMRVGVzdCBDZXJ0aWZpY2F0ZXMxJDAiBgNVBAMTG1BvbGljaWVzIFAx
MjMgc3Vic3ViQ0FQMTJQMjAeFw0wMTA0MTkxNDU3MjBaFw0xMTA0MTkxNDU3MjBa
MFQxCzAJBgNVBAYTAlVTMRowGAYDVQQKExFUZXN0IENlcnRpZmljYXRlczEpMCcG
A1UEAxMgUG9saWNpZXMgUDEyMyBzdWJzdWJzdWJDQVAxMlAyUDEwgZ8wDQYJKoZI
hvcNAQEBBQADgY0AMIGJAoGBAMa9AAnNzFuqJqv1OdC4F1PtY4Lqcc+JJQBnnaIi
roTN/plb6fUL5m/SFbfSZnf/qQbYUkosko2p0cdF5VrblaCvx7vB6l12at9Zskn4
wKneBrfSJUVDEgSyWm7mY6t1Fla7OSfywUObt1NWEzq3pyWoSKTIQxpMJ3jnYERr
/wJ9AgMBAAGjfDB6MB8GA1UdIwQYMBaAFIvsOfOjrm45cGR/aCtNVJAsjgXAMB0G
A1UdDgQWBBTTKrvwtVdBlVLdz6i7kpzgEW5zvDAOBgNVHQ8BAf8EBAMCAQYwFwYD
VR0gBBAwDjAMBgpghkgBZQMCATABMA8GA1UdEwEB/wQFMAMBAf8wDQYJKoZIhvcN
AQEFBQADgYEAgk/D/ABBm/yIi8Qk1ISreDz7OgEaqXoqyrQY9uq3nf/Xzlmrktxe
C7bEDiYGugly0cHFHGProTJppes2ECdcVmrpXoIHSlbP3WucAOsWcyIW9tfH+Xsk
HAts3bXwDmfI5WEndwM+p6kMKwRsMT8/q8XJ3ZCNgsu34eoKRWhBzlQ=
-----END CERTIFICATE-----

subject=/C=US/O=Test Certificates/CN=Policies P123 CA
issuer=/C=US/O=Test Certificates/CN=Trust Anchor
-----BEGIN CERTIFICATE-----
MIICojCCAgugAwIBAgIBJDANBgkqhkiG9w0BAQUFADBAMQswCQYDVQQGEwJVUzEa
MBgGA1UEChMRVGVzdCBDZXJ0aWZpY2F0ZXMxFTATBgNVBAMTDFRydXN0IEFuY2hv
cjAeFw0wMTA0MTkxNDU3MjBaFw0xMTA0MTkxNDU3MjBaMEQxCzAJBgNVBAYTAlVT
MRowGAYDVQQKExFUZXN0IENlcnRpZmljYXRlczEZMBcGA1UEAxMQUG9saWNpZXMg
UDEyMyBDQTCBnzANBgkqhkiG9w0BAQEFAAOBjQAwgYkCgYEAuGtVArq1otVEuN/s
xR5XSOEfVzIms1FiprO4UReYXUDbKzmCYC6YypbEnOP2JpLQOPwAfVqLL8FV7xiS
o+HmK25R0aK9nQGFUPX0U9o4b5NRcWFAoYBAF2GOFBNqGF6d9wBFPlijGMT8nWr5
ahnujYSC1Emy88N4hkp1fj4o7yMCAwEAAaOBpzCBpDAfBgNVHSMEGDAWgBT7bNQt
gZ7KJ3qeDbA86pq8h/9J6jAdBgNVHQ4EFgQU0L/Nm9/xkf2Ch1oQz5Cvi7zyxcww
DgYDVR0PAQH/BAQDAgEGMDMGA1UdIAQsMCowDAYKYIZIAWUDAgEwATAMBgpghkgB
ZQMCATACMAwGCmCGSAFlAwIBMAMwDwYDVR0TAQH/BAUwAwEB/zAMBgNVHSQEBTAD
gAEAMA0GCSqGSIb3DQEBBQUAA4GBAHcVVBwhebD5vRKleXMh71kleQIL8QOQFpHM
jVYS/KJiBsVUTebOeONSU0cuPmzomEkpLyYPz8cDroidExtxGEpkKgYBGi1c5ext
cDUGFsTWENTFFWjZ7xA56XUtGd8alXJfY0v6QSHqoYFosJvoqU2bjX6jqQVK5HbY
kko1SxlW
-----END CERTIFICATE-----

Certificate Revocation List (CRL):
        Version 2 (0x1)
        Signature Algorithm: sha1WithRSAEncryption
        Issuer: /C=US/O=Test Certificates/CN=Policies P123 CA
        Last Update: Apr 19 14:57:20 2001 GMT
        Next Update: Apr 19 14:57:20 2011 GMT
        CRL extensions:
            X509v3 Authority Key Identifier: 
                keyid:D0:BF:CD:9B:DF:F1:91:FD:82:87:5A:10:CF:90:AF:8B:BC:F2:C5:CC

            X509v3 CRL Number: 
                1
No Revoked Certificates.
    Signature Algorithm: sha1WithRSAEncryption
        81:c2:63:b3:65:bd:c4:2d:98:7c:e0:85:dd:5f:07:d7:b4:1b:
        7a:64:a7:7f:60:3d:62:3a:70:af:d5:97:23:23:9a:48:e3:b7:
        8b:c0:3d:43:c1:66:e8:24:db:ed:a9:ab:0a:70:51:d8:7d:65:
        92:ea:e9:6f:cb:96:8e:3b:cf:94:e9:9c:d2:27:54:29:8c:81:
        84:1d:a6:22:65:85:46:70:07:da:1d:e9:79:9f:e7:3c:4e:96:
        1b:11:d9:08:ec:f7:95:15:c9:db:8d:a7:17:16:3e:76:bb:41:
        98:15:94:b3:1a:19:6f:1e:dc:10:24:c8:ae:bc:38:93:c5:04:
        ef:9d
-----BEGIN X509 CRL-----
MIIBPTCBpwIBATANBgkqhkiG9w0BAQUFADBEMQswCQYDVQQGEwJVUzEaMBgGA1UE
ChMRVGVzdCBDZXJ0aWZpY2F0ZXMxGTAXBgNVBAMTEFBvbGljaWVzIFAxMjMgQ0EX
DTAxMDQxOTE0NTcyMFoXDTExMDQxOTE0NTcyMFqgLzAtMB8GA1UdIwQYMBaAFNC/
zZvf8ZH9godaEM+Qr4u88sXMMAoGA1UdFAQDAgEBMA0GCSqGSIb3DQEBBQUAA4GB
AIHCY7NlvcQtmHzghd1fB9e0G3pkp39gPWI6cK/VlyMjmkjjt4vAPUPBZugk2+2p
qwpwUdh9ZZLq6W/Llo47z5TpnNInVCmMgYQdpiJlhUZwB9od6Xmf5zxOlhsR2Qjs
95UVyduNpxcWPna7QZgVlLMaGW8e3BAkyK68OJPFBO+d
-----END X509 CRL-----

Certificate Revocation List (CRL):
        Version 2 (0x1)
        Signature Algorithm: sha1WithRSAEncryption
        Issuer: /C=US/O=Test Certificates/CN=Policies P123 subCAP12
        Last Update: Apr 19 14:57:20 2001 GMT
        Next Update: Apr 19 14:57:20 2011 GMT
        CRL extensions:
            X509v3 Authority Key Identifier: 
                keyid:5A:87:08:21:FB:DC:93:10:6D:9A:0B:7C:C7:6A:B1:68:4B:DF:55:D7

            X509v3 CRL Number: 
                1
No Revoked Certificates.
    Signature Algorithm: sha1WithRSAEncryption
        67:b8:b5:f3:01:89:95:0b:52:9b:23:ed:15:82:33:84:16:99:
        d5:19:f9:2a:ba:7a:1a:fd:61:2e:32:9b:bf:50:d0:02:cc:b8:
        5e:0c:f9:8f:7d:6b:d7:ce:29:7d:cd:9a:0d:01:4a:c9:ef:38:
        13:2e:a6:46:a5:13:4a:ba:01:58:71:13:21:6a:52:1a:e5:2f:
        c8:58:ba:dd:bb:b5:18:3e:a0:5b:94:3a:96:d0:47:05:fa:a4:
        84:37:c0:e4:5a:42:31:19:c3:86:cc:42:90:32:85:aa:e4:70:
        23:e2:cf:eb:fe:f3:fe:e0:83:17:bc:c4:15:07:0f:b8:c0:d9:
        57:d2
-----BEGIN X509 CRL-----
MIIBQzCBrQIBATANBgkqhkiG9w0BAQUFADBKMQswCQYDVQQGEwJVUzEaMBgGA1UE
ChMRVGVzdCBDZXJ0aWZpY2F0ZXMxHzAdBgNVBAMTFlBvbGljaWVzIFAxMjMgc3Vi
Q0FQMTIXDTAxMDQxOTE0NTcyMFoXDTExMDQxOTE0NTcyMFqgLzAtMB8GA1UdIwQY
MBaAFFqHCCH73JMQbZoLfMdqsWhL31XXMAoGA1UdFAQDAgEBMA0GCSqGSIb3DQEB
BQUAA4GBAGe4tfMBiZULUpsj7RWCM4QWmdUZ+Sq6ehr9YS4ym79Q0ALMuF4M+Y99
a9fOKX3Nmg0BSsnvOBMupkalE0q6AVhxEyFqUhrlL8hYut27tRg+oFuUOpbQRwX6
pIQ3wORaQjEZw4bMQpAyharkcCPiz+v+8/7ggxe8xBUHD7jA2VfS
-----END X509 CRL-----

Certificate Revocation List (CRL):
        Version 2 (0x1)
        Signature Algorithm: sha1WithRSAEncryption
        Issuer: /C=US/O=Test Certificates/CN=Policies P123 subsubCAP12P2
        Last Update: Apr 19 14:57:20 2001 GMT
        Next Update: Apr 19 14:57:20 2011 GMT
        CRL extensions:
            X509v3 Authority Key Identifier: 
                keyid:8B:EC:39:F3:A3:AE:6E:39:70:64:7F:68:2B:4D:54:90:2C:8E:05:C0

            X509v3 CRL Number: 
                1
No Revoked Certificates.
    Signature Algorithm: sha1WithRSAEncryption
        9a:7c:38:8c:95:0d:e2:8e:c6:fb:4c:43:f5:4f:c6:0f:4b:ec:
        2e:bb:a1:8b:67:77:3f:7f:55:8a:02:ed:2a:f0:4e:0a:7c:e8:
        d8:c1:26:37:47:28:ba:e5:47:de:79:74:30:b4:a1:66:8f:bd:
        8e:7d:9a:4f:37:52:71:ad:c6:50:b1:fb:ce:eb:0b:f0:58:54:
        a8:22:51:9f:d5:d3:92:06:20:35:f6:e2:4b:8e:7f:a8:12:f8:
        38:a3:51:fb:cd:92:4b:2d:40:2f:f9:b9:ff:25:4d:f0:7d:9d:
        20:00:e3:eb:94:24:fe:05:ed:e2:b3:7e:fc:fb:1b:c1:4e:cf:
        9d:30
-----BEGIN X509 CRL-----
MIIBSDCBsgIBATANBgkqhkiG9w0BAQUFADBPMQswCQYDVQQGEwJVUzEaMBgGA1UE
ChMRVGVzdCBDZXJ0aWZpY2F0ZXMxJDAiBgNVBAMTG1BvbGljaWVzIFAxMjMgc3Vi
c3ViQ0FQMTJQMhcNMDEwNDE5MTQ1NzIwWhcNMTEwNDE5MTQ1NzIwWqAvMC0wHwYD
VR0jBBgwFoAUi+w586OubjlwZH9oK01UkCyOBcAwCgYDVR0UBAMCAQEwDQYJKoZI
hvcNAQEFBQADgYEAmnw4jJUN4o7G+0xD9U/GD0vsLruhi2d3P39VigLtKvBOCnzo
2MEmN0couuVH3nl0MLShZo+9jn2aTzdSca3GULH7zusL8FhUqCJRn9XTkgYgNfbi
S45/qBL4OKNR+82SSy1AL/m5/yVN8H2dIADj65Qk/gXt4rN+/PsbwU7PnTA=
-----END X509 CRL-----

Certificate Revocation List (CRL):
        Version 2 (0x1)
        Signature Algorithm: sha1WithRSAEncryption
        Issuer: /C=US/O=Test Certificates/CN=Policies P123 subsubsubCAP12P2P1
        Last Update: Apr 19 14:57:20 2001 GMT
        Next Update: Apr 19 14:57:20 2011 GMT
        CRL extensions:
            X509v3 Authority Key Identifier: 
                keyid:D3:2A:BB:F0:B5:57:41:95:52:DD:CF:A8:BB:92:9C:E0:11:6E:73:BC

            X509v3 CRL Number: 
                1
No Revoked Certificates.
    Signature Algorithm: sha1WithRSAEncryption
        37:cf:8e:70:a0:12:c6:cf:ee:13:28:cd:1d:e3:f8:8c:6b:09:
        fd:d7:31:1a:c3:2c:77:f5:13:3e:ff:6e:b7:23:0d:4d:33:3f:
        a1:f4:37:4d:c2:84:0f:6d:2a:25:df:40:f8:25:96:40:7a:fb:
        59:29:4e:99:c8:8d:63:7b:23:b6:c8:eb:72:70:8e:f3:ca:5a:
        2a:36:bb:c6:9a:80:45:63:49:c9:9f:68:32:90:84:e4:a6:ca:
        22:52:d9:99:16:fa:34:93:38:ec:ba:f9:81:0d:26:b9:5b:03:
        3b:0a:ce:85:43:8e:bd:47:ca:de:50:4b:42:e8:97:91:74:12:
        ac:5a
-----BEGIN X509 CRL-----
MIIBTTCBtwIBATANBgkqhkiG9w0BAQUFADBUMQswCQYDVQQGEwJVUzEaMBgGA1UE
ChMRVGVzdCBDZXJ0aWZpY2F0ZXMxKTAnBgNVBAMTIFBvbGljaWVzIFAxMjMgc3Vi
c3Vic3ViQ0FQMTJQMlAxFw0wMTA0MTkxNDU3MjBaFw0xMTA0MTkxNDU3MjBaoC8w
LTAfBgNVHSMEGDAWgBTTKrvwtVdBlVLdz6i7kpzgEW5zvDAKBgNVHRQEAwIBATAN
BgkqhkiG9w0BAQUFAAOBgQA3z45woBLGz+4TKM0d4/iMawn91zEawyx39RM+/263
Iw1NMz+h9DdNwoQPbSol30D4JZZAevtZKU6ZyI1jeyO2yOtycI7zyloqNrvGmoBF
Y0nJn2gykITkpsoiUtmZFvo0kzjsuvmBDSa5WwM7Cs6FQ469R8reUEtC6JeRdBKs
Wg==
-----END X509 CRL-----

Certificate Revocation List (CRL):
        Version 2 (0x1)
        Signature Algorithm: sha1WithRSAEncryption
        Issuer: /C=US/O=Test Certificates/CN=Trust Anchor
        Last Update: Apr 19 14:57:20 2001 GMT
        Next Update: Apr 19 14:57:20 2011 GMT
        CRL extensions:
            X509v3 Authority Key Identifier: 
                keyid:FB:6C:D4:2D:81:9E:CA:27:7A:9E:0D:B0:3C:EA:9A:BC:87:FF:49:EA

            X509v3 CRL Number: 
                1
Revoked Certificates:
    Serial Number: 68
        Revocation Date: Apr 19 14:57:20 2001 GMT
        CRL entry extensions:
            X509v3 CRL Reason Code: 
                Key Compromise
    Signature Algorithm: sha1WithRSAEncryption
        92:12:c4:34:b4:92:ab:ba:71:6b:74:31:16:ce:ed:25:d6:4b:
        1e:fa:f8:20:1e:9d:d7:7f:30:ed:15:f7:8b:5d:64:9b:dd:31:
        40:e4:55:0f:0c:5f:82:69:63:00:76:a5:cf:9e:c4:5f:f2:53:
        9b:9b:7d:f5:69:1d:74:57:38:70:e5:fb:5b:76:58:c9:ec:31:
        dc:94:1b:02:ee:9d:33:9c:38:4b:29:1d:e1:0c:29:8b:6e:c7:
        bf:a0:e8:40:34:83:cf:ff:9f:cd:b5:f7:d9:4d:a7:9f:2e:bf:
        44:98:6b:f2:d3:fe:a8:20:31:c1:33:76:b7:1c:19:65:4d:b9:
        14:39
-----BEGIN X509 CRL-----
MIIBXTCBxwIBATANBgkqhkiG9w0BAQUFADBAMQswCQYDVQQGEwJVUzEaMBgGA1UE
ChMRVGVzdCBDZXJ0aWZpY2F0ZXMxFTATBgNVBAMTDFRydXN0IEFuY2hvchcNMDEw
NDE5MTQ1NzIwWhcNMTEwNDE5MTQ1NzIwWjAiMCACAWgXDTAxMDQxOTE0NTcyMFow
DDAKBgNVHRUEAwoBAaAvMC0wHwYDVR0jBBgwFoAU+2zULYGeyid6ng2wPOqavIf/
SeowCgYDVR0UBAMCAQEwDQYJKoZIhvcNAQEFBQADgYEAkhLENLSSq7pxa3QxFs7t
JdZLHvr4IB6d138w7RX3i11km90xQORVDwxfgmljAHalz57EX/JTm5t99WkddFc4
cOX7W3ZYyewx3JQbAu6dM5w4Sykd4Qwpi27Hv6DoQDSDz/+fzbX32U2nny6/RJhr
8tP+qCAxwTN2txwZZU25FDk=
-----END X509 CRL-----

