subject=/C=US/O=Test Certificates/CN=Different Policies EE Certificate Test12
issuer=/C=US/O=Test Certificates/CN=Policies P3 CA
-----BEGIN CERTIFICATE-----
MIICfzCCAeigAwIBAgIBATANBgkqhkiG9w0BAQUFADBCMQswCQYDVQQGEwJVUzEa
MBgGA1UEChMRVGVzdCBDZXJ0aWZpY2F0ZXMxFzAVBgNVBAMTDlBvbGljaWVzIFAz
IENBMB4XDTAxMDQxOTE0NTcyMFoXDTExMDQxOTE0NTcyMFowXDELMAkGA1UEBhMC
VVMxGjAYBgNVBAoTEVRlc3QgQ2VydGlmaWNhdGVzMTEwLwYDVQQDEyhEaWZmZXJl
bnQgUG9saWNpZXMgRUUgQ2VydGlmaWNhdGUgVGVzdDEyMIGfMA0GCSqGSIb3DQEB
AQUAA4GNADCBiQKBgQCyCzdT70A8+vsLoViq8TWIYg7Eta6CLxVYgGuIT/jHnsK+
+FbOsG9GIxdLYhdZrrlKG4cAlkpS/6K9L23KfQGiNNjQ4LaWC/geLyNeOOOrnXBk
nMhffhtlQ4PzTnEtjtr0fUr5iNZtCZpTUSQKxvZfEL8s8HUbsiPagLV9TwXO3QID
AQABo2swaTAfBgNVHSMEGDAWgBSOvWaPjlVlz1HkWabJKh5iv/elvDAdBgNVHQ4E
FgQUgYdlKg2WZsyn5n9xnCVxsVRQwz4wDgYDVR0PAQH/BAQDAgTwMBcGA1UdIAQQ
MA4wDAYKYIZIAWUDAgEwBDANBgkqhkiG9w0BAQUFAAOBgQA+sKsTmg7nH6jqpWTD
0+ku3zH37P/CeNynrYlFtFA/3QZZNSeBUtmPEgSANp/iYSgpIOeqcUR+vJZhsIXT
+0wX4SS7+hy3sHAuDmSZ7d4XXowNWmfn2MElY7INaPvTzjRY3+XIeTfMK43LglF5
sftSt0FIy+7QSZiQwKIX35Hdig==
-----END CERTIFICATE-----

subject=/C=US/O=Test Certificates/CN=Policies P3 CA
issuer=/C=US/O=Test Certificates/CN=Trust Anchor
-----BEGIN CERTIFICATE-----
MIIChDCCAe2gAwIBAgIBJzANBgkqhkiG9w0BAQUFADBAMQswCQYDVQQGEwJVUzEa
MBgGA1UEChMRVGVzdCBDZXJ0aWZpY2F0ZXMxFTATBgNVBAMTDFRydXN0IEFuY2hv
cjAeFw0wMTA0MTkxNDU3MjBaFw0xMTA0MTkxNDU3MjBaMEIxCzAJBgNVBAYTAlVT
MRowGAYDVQQKExFUZXN0IENlcnRpZmljYXRlczEXMBUGA1UEAxMOUG9saWNpZXMg
UDMgQ0EwgZ8wDQYJKoZIhvcNAQEBBQADgY0AMIGJAoGBAKzB4tlymiLVW8a6Ps0y
porV4ZwLRY6O21qBHaMeOvMroSc49aMMmsNM5Hq1c37ETR2NROBT065S3xFyQT58
Q+6gu30masLdypu0ewe1f4waXVKzrOrXleRrha2wyu33duzC9XoU5rLxLJUrPXjd
F7bYw/NIHmdKb2gKdGDD5ZhlAgMBAAGjgYswgYgwHwYDVR0jBBgwFoAU+2zULYGe
yid6ng2wPOqavIf/SeowHQYDVR0OBBYEFI69Zo+OVWXPUeRZpskqHmK/96W8MA4G
A1UdDwEB/wQEAwIBBjAXBgNVHSAEEDAOMAwGCmCGSAFlAwIBMAMwDwYDVR0TAQH/
BAUwAwEB/zAMBgNVHSQEBTADgAEAMA0GCSqGSIb3DQEBBQUAA4GBAGIeHrFlfEpz
33KeWUQrArkcbXi4ONGl0zsMAelL8FjVyZJqVjBi4/z+31K608b9FleH0H4QlO1V
pADcQhn+/9ChWXCvHtSUuBsIPFO3WWIdgYTtmSAqxsEq3uwQIR3ku8NoMpgiak6B
EdVSLx709Z1oHVmuqVn1fYV/0968h9fo
-----END CERTIFICATE-----

Certificate Revocation List (CRL):
        Version 2 (0x1)
        Signature Algorithm: sha1WithRSAEncryption
        Issuer: /C=US/O=Test Certificates/CN=Policies P3 CA
        Last Update: Apr 19 14:57:20 2001 GMT
        Next Update: Apr 19 14:57:20 2011 GMT
        CRL extensions:
            X509v3 Authority Key Identifier: 
                keyid:8E:BD:66:8F:8E:55:65:CF:51:E4:59:A6:C9:2A:1E:62:BF:F7:A5:BC

            X509v3 CRL Number: 
                1
No Revoked Certificates.
    Signature Algorithm: sha1WithRSAEncryption
        70:a1:09:11:c0:05:80:09:b9:cb:96:bd:30:59:49:1e:07:57:
        d3:9b:e2:f1:41:3f:f5:f1:d7:90:67:ab:db:81:2f:1f:b6:6d:
        b4:e5:45:ba:94:55:25:9c:e1:11:06:71:a3:dc:ed:1f:6d:eb:
        91:33:7f:7d:1f:40:2e:1c:84:1a:c2:45:8a:26:ed:0c:a5:6f:
        1c:00:50:99:fd:7b:d1:3a:cf:a0:1a:da:0c:f0:7a:9a:4e:b5:
        f1:fb:90:9b:ab:54:57:1d:55:ab:b7:c3:a6:c4:27:e9:c8:6b:
        83:28:68:cc:9e:0b:f0:99:7e:0a:f5:f2:ca:35:28:7b:78:59:
        7c:88
-----BEGIN X509 CRL-----
MIIBOzCBpQIBATANBgkqhkiG9w0BAQUFADBCMQswCQYDVQQGEwJVUzEaMBgGA1UE
ChMRVGVzdCBDZXJ0aWZpY2F0ZXMxFzAVBgNVBAMTDlBvbGljaWVzIFAzIENBFw0w
MTA0MTkxNDU3MjBaFw0xMTA0MTkxNDU3MjBaoC8wLTAfBgNVHSMEGDAWgBSOvWaP
jlVlz1HkWabJKh5iv/elvDAKBgNVHRQEAwIBATANBgkqhkiG9w0BAQUFAAOBgQBw
oQkRwAWACbnLlr0wWUkeB1fTm+LxQT/18deQZ6vbgS8ftm205UW6lFUlnOERBnGj
3O0fbeuRM399H0AuHIQawkWKJu0MpW8cAFCZ/XvROs+gGtoM8HqaTrXx+5Cbq1RX
HVWrt8OmxCfpyGuDKGjMngvwmX4K9fLKNSh7eFl8iA==
-----END X509 CRL-----

Certificate Revocation List (CRL):
        Version 2 (0x1)
        Signature Algorithm: sha1WithRSAEncryption
        Issuer: /C=US/O=Test Certificates/CN=Trust Anchor
        Last Update: Apr 19 14:57:20 2001 GMT
        Next Update: Apr 19 14:57:20 2011 GMT
        CRL extensions:
            X509v3 Authority Key Identifier: 
                keyid:FB:6C:D4:2D:81:9E:CA:27:7A:9E:0D:B0:3C:EA:9A:BC:87:FF:49:EA

            X509v3 CRL Number: 
                1
Revoked Certificates:
    Serial Number: 68
        Revocation Date: Apr 19 14:57:20 2001 GMT
        CRL entry extensions:
            X509v3 CRL Reason Code: 
                Key Compromise
    Signature Algorithm: sha1WithRSAEncryption
        92:12:c4:34:b4:92:ab:ba:71:6b:74:31:16:ce:ed:25:d6:4b:
        1e:fa:f8:20:1e:9d:d7:7f:30:ed:15:f7:8b:5d:64:9b:dd:31:
        40:e4:55:0f:0c:5f:82:69:63:00:76:a5:cf:9e:c4:5f:f2:53:
        9b:9b:7d:f5:69:1d:74:57:38:70:e5:fb:5b:76:58:c9:ec:31:
        dc:94:1b:02:ee:9d:33:9c:38:4b:29:1d:e1:0c:29:8b:6e:c7:
        bf:a0:e8:40:34:83:cf:ff:9f:cd:b5:f7:d9:4d:a7:9f:2e:bf:
        44:98:6b:f2:d3:fe:a8:20:31:c1:33:76:b7:1c:19:65:4d:b9:
        14:39
-----BEGIN X509 CRL-----
MIIBXTCBxwIBATANBgkqhkiG9w0BAQUFADBAMQswCQYDVQQGEwJVUzEaMBgGA1UE
ChMRVGVzdCBDZXJ0aWZpY2F0ZXMxFTATBgNVBAMTDFRydXN0IEFuY2hvchcNMDEw
NDE5MTQ1NzIwWhcNMTEwNDE5MTQ1NzIwWjAiMCACAWgXDTAxMDQxOTE0NTcyMFow
DDAKBgNVHRUEAwoBAaAvMC0wHwYDVR0jBBgwFoAU+2zULYGeyid6ng2wPOqavIf/
SeowCgYDVR0UBAMCAQEwDQYJKoZIhvcNAQEFBQADgYEAkhLENLSSq7pxa3QxFs7t
JdZLHvr4IB6d138w7RX3i11km90xQORVDwxfgmljAHalz57EX/JTm5t99WkddFc4
cOX7W3ZYyewx3JQbAu6dM5w4Sykd4Qwpi27Hv6DoQDSDz/+fzbX32U2nny6/RJhr
8tP+qCAxwTN2txwZZU25FDk=
-----END X509 CRL-----

