subject=/C=US/O=Test Certificates/CN=Good CA
issuer=/C=US/O=Test Certificates/CN=Trust Anchor
-----BEGIN CERTIFICATE-----
MIICbTCCAdagAwIBAgIBAjANBgkqhkiG9w0BAQUFADBAMQswCQYDVQQGEwJVUzEa
MBgGA1UEChMRVGVzdCBDZXJ0aWZpY2F0ZXMxFTATBgNVBAMTDFRydXN0IEFuY2hv
cjAeFw0wMTA0MTkxNDU3MjBaFw0xMTA0MTkxNDU3MjBaMDsxCzAJBgNVBAYTAlVT
MRowGAYDVQQKExFUZXN0IENlcnRpZmljYXRlczEQMA4GA1UEAxMHR29vZCBDQTCB
nzANBgkqhkiG9w0BAQEFAAOBjQAwgYkCgYEArsI1lQuXKwOxSkOVRaPwlhMQtgp0
p7HT4rKLGqojfY0twvMDc4rC9uj97wlh98kkraMx3r0wlllYSQ+Cp9mCCNu/C/Y2
IbZCyG+io4A3Um3q/QGvbHlclmrJb0j0MQi3o88GhE8Q6Vy6SGwFXGpKDJMpLSFp
Pxz8lh7M6J56Ex8CAwEAAaN8MHowHwYDVR0jBBgwFoAU+2zULYGeyid6ng2wPOqa
vIf/SeowHQYDVR0OBBYEFLcupoLLwsi8qHsnRNc1M9+aFZTHMA4GA1UdDwEB/wQE
AwIBBjAXBgNVHSAEEDAOMAwGCmCGSAFlAwIBMAEwDwYDVR0TAQH/BAUwAwEB/zAN
BgkqhkiG9w0BAQUFAAOBgQCOls9+0kEUS71w+KoQhfkVLdAKANXUmGCVZHL1zsya
cPP/Q8IsCNvwjefZpgc0cuhtnHt2uDd0/zYLRmgcvJwfx5vwOfmDN13mMB8Za+cg
3sZ/NI8MqQseKvS3fWqXaK6FJoKLzxId0iUGntbF4c5+rPFArzqM6IE7f9cMD5Fq
rA==
-----END CERTIFICATE-----

subject=/C=US/O=Test Certificates/CN=Different Policies EE Certificate Test5
issuer=/C=US/O=Test Certificates/CN=Policies P2 subCA2
-----BEGIN CERTIFICATE-----
MIICgjCCAeugAwIBAgIBATANBgkqhkiG9w0BAQUFADBGMQswCQYDVQQGEwJVUzEa
MBgGA1UEChMRVGVzdCBDZXJ0aWZpY2F0ZXMxGzAZBgNVBAMTElBvbGljaWVzIFAy
IHN1YkNBMjAeFw0wMTA0MTkxNDU3MjBaFw0xMTA0MTkxNDU3MjBaMFsxCzAJBgNV
BAYTAlVTMRowGAYDVQQKExFUZXN0IENlcnRpZmljYXRlczEwMC4GA1UEAxMnRGlm
ZmVyZW50IFBvbGljaWVzIEVFIENlcnRpZmljYXRlIFRlc3Q1MIGfMA0GCSqGSIb3
DQEBAQUAA4GNADCBiQKBgQCwZH5VW/9MO5bUFBrHnWcQmxnLKiqHAu593o6kFZKt
zkkYkVCA/vu0Wqgk09UeJz2jQPFuJEFYl/VdkkyS3U5TMdJBBcIHMYpmVTeTJSzP
G+II79/nOVLpVRfuMtKclAU+oCCJb29oiXRaOFzZjzbXuU/NvSXZu24sVctBtFQA
DQIDAQABo2swaTAfBgNVHSMEGDAWgBRx6y8V7VGl/4VJjHwa9kumm6SUBjAdBgNV
HQ4EFgQU0BTRTBvIbX1D6I9/J/Wkp7/iGNwwDgYDVR0PAQH/BAQDAgTwMBcGA1Ud
IAQQMA4wDAYKYIZIAWUDAgEwATANBgkqhkiG9w0BAQUFAAOBgQAVgTBnKECQtHJE
rSdkBjW41mPMbdbsbYgsl00518Qv4kS2bIsmMOB4V6kl48oIlmIql2dgUqb0QgvA
JFFmwyLWdyUy1Ngv1H4tT2i9htTQAG7Yhx619BHqWCfqCiue49ySUsKOefY3ZYuy
Ew2nYu2yBbFQuBajQDA+6rT6RjvF+Q==
-----END CERTIFICATE-----

subject=/C=US/O=Test Certificates/CN=Policies P2 subCA2
issuer=/C=US/O=Test Certificates/CN=Good CA
-----BEGIN CERTIFICATE-----
MIICgzCCAeygAwIBAgIBEjANBgkqhkiG9w0BAQUFADA7MQswCQYDVQQGEwJVUzEa
MBgGA1UEChMRVGVzdCBDZXJ0aWZpY2F0ZXMxEDAOBgNVBAMTB0dvb2QgQ0EwHhcN
MDEwNDE5MTQ1NzIwWhcNMTEwNDE5MTQ1NzIwWjBGMQswCQYDVQQGEwJVUzEaMBgG
A1UEChMRVGVzdCBDZXJ0aWZpY2F0ZXMxGzAZBgNVBAMTElBvbGljaWVzIFAyIHN1
YkNBMjCBnzANBgkqhkiG9w0BAQEFAAOBjQAwgYkCgYEAtLTO6yKdiF3dWPmvdMIU
ljhMl5k5/mSISipm74fsNPvCJOAfdPJa7ZsmCH2mXZeXa5xOUPG9YzcqgSoj8YEa
L6h9u4t40L+OyapOZKiYykXi9hoZEzCuilIIu3km9rU0jF/hTntZ5QSdE65fM5qn
iMQnAPkod5ehi3XASsHZu9cCAwEAAaOBizCBiDAfBgNVHSMEGDAWgBS3LqaCy8LI
vKh7J0TXNTPfmhWUxzAdBgNVHQ4EFgQUcesvFe1Rpf+FSYx8GvZLppuklAYwDgYD
VR0PAQH/BAQDAgEGMBcGA1UdIAQQMA4wDAYKYIZIAWUDAgEwAjAPBgNVHRMBAf8E
BTADAQH/MAwGA1UdJAQFMAOAAQAwDQYJKoZIhvcNAQEFBQADgYEApvxtR+QrmkV9
u+IYUO9+MXgIGn7U3aab9pnQfxH2Dqkx2uPGGYsw3+Md7m0+Y29god0WgGwgrmlS
9VnFhuDw0Sks4ofgjOWCrO0gK10fO2AHzYMwxcbsaqrIPS0dIkUflnnB6vUPoz1t
0/y853VkBY8fwZC5lSrXe1j/wkrITt4=
-----END CERTIFICATE-----

Certificate Revocation List (CRL):
        Version 2 (0x1)
        Signature Algorithm: sha1WithRSAEncryption
        Issuer: /C=US/O=Test Certificates/CN=Policies P2 subCA2
        Last Update: Apr 19 14:57:20 2001 GMT
        Next Update: Apr 19 14:57:20 2011 GMT
        CRL extensions:
            X509v3 Authority Key Identifier: 
                keyid:71:EB:2F:15:ED:51:A5:FF:85:49:8C:7C:1A:F6:4B:A6:9B:A4:94:06

            X509v3 CRL Number: 
                1
No Revoked Certificates.
    Signature Algorithm: sha1WithRSAEncryption
        0f:c9:61:2b:d8:db:62:52:36:67:85:d2:bf:79:00:4e:44:4c:
        3b:2e:a1:0f:58:1d:06:1d:47:bb:2d:b2:3f:62:d5:9c:7d:da:
        bd:34:86:5d:44:f2:ec:42:d8:cb:37:16:8d:87:d7:73:3b:d1:
        82:e3:e9:2c:d6:db:6f:f5:f3:db:d4:11:bf:bf:aa:15:10:7a:
        51:76:d6:56:e5:f6:27:00:54:54:87:14:e8:0f:5a:e1:5b:64:
        16:53:de:31:1a:69:c2:6b:a5:fe:77:8c:bc:f2:42:d6:ad:84:
        6a:f5:bb:94:16:c0:12:64:af:4a:2e:68:64:2f:f5:14:5c:b1:
        c5:cf
-----BEGIN X509 CRL-----
MIIBPzCBqQIBATANBgkqhkiG9w0BAQUFADBGMQswCQYDVQQGEwJVUzEaMBgGA1UE
ChMRVGVzdCBDZXJ0aWZpY2F0ZXMxGzAZBgNVBAMTElBvbGljaWVzIFAyIHN1YkNB
MhcNMDEwNDE5MTQ1NzIwWhcNMTEwNDE5MTQ1NzIwWqAvMC0wHwYDVR0jBBgwFoAU
cesvFe1Rpf+FSYx8GvZLppuklAYwCgYDVR0UBAMCAQEwDQYJKoZIhvcNAQEFBQAD
gYEAD8lhK9jbYlI2Z4XSv3kATkRMOy6hD1gdBh1Huy2yP2LVnH3avTSGXUTy7ELY
yzcWjYfXczvRguPpLNbbb/Xz29QRv7+qFRB6UXbWVuX2JwBUVIcU6A9a4VtkFlPe
MRppwmul/neMvPJC1q2EavW7lBbAEmSvSi5oZC/1FFyxxc8=
-----END X509 CRL-----

Certificate Revocation List (CRL):
        Version 2 (0x1)
        Signature Algorithm: sha1WithRSAEncryption
        Issuer: /C=US/O=Test Certificates/CN=Trust Anchor
        Last Update: Apr 19 14:57:20 2001 GMT
        Next Update: Apr 19 14:57:20 2011 GMT
        CRL extensions:
            X509v3 Authority Key Identifier: 
                keyid:FB:6C:D4:2D:81:9E:CA:27:7A:9E:0D:B0:3C:EA:9A:BC:87:FF:49:EA

            X509v3 CRL Number: 
                1
Revoked Certificates:
    Serial Number: 68
        Revocation Date: Apr 19 14:57:20 2001 GMT
        CRL entry extensions:
            X509v3 CRL Reason Code: 
                Key Compromise
    Signature Algorithm: sha1WithRSAEncryption
        92:12:c4:34:b4:92:ab:ba:71:6b:74:31:16:ce:ed:25:d6:4b:
        1e:fa:f8:20:1e:9d:d7:7f:30:ed:15:f7:8b:5d:64:9b:dd:31:
        40:e4:55:0f:0c:5f:82:69:63:00:76:a5:cf:9e:c4:5f:f2:53:
        9b:9b:7d:f5:69:1d:74:57:38:70:e5:fb:5b:76:58:c9:ec:31:
        dc:94:1b:02:ee:9d:33:9c:38:4b:29:1d:e1:0c:29:8b:6e:c7:
        bf:a0:e8:40:34:83:cf:ff:9f:cd:b5:f7:d9:4d:a7:9f:2e:bf:
        44:98:6b:f2:d3:fe:a8:20:31:c1:33:76:b7:1c:19:65:4d:b9:
        14:39
-----BEGIN X509 CRL-----
MIIBXTCBxwIBATANBgkqhkiG9w0BAQUFADBAMQswCQYDVQQGEwJVUzEaMBgGA1UE
ChMRVGVzdCBDZXJ0aWZpY2F0ZXMxFTATBgNVBAMTDFRydXN0IEFuY2hvchcNMDEw
NDE5MTQ1NzIwWhcNMTEwNDE5MTQ1NzIwWjAiMCACAWgXDTAxMDQxOTE0NTcyMFow
DDAKBgNVHRUEAwoBAaAvMC0wHwYDVR0jBBgwFoAU+2zULYGeyid6ng2wPOqavIf/
SeowCgYDVR0UBAMCAQEwDQYJKoZIhvcNAQEFBQADgYEAkhLENLSSq7pxa3QxFs7t
JdZLHvr4IB6d138w7RX3i11km90xQORVDwxfgmljAHalz57EX/JTm5t99WkddFc4
cOX7W3ZYyewx3JQbAu6dM5w4Sykd4Qwpi27Hv6DoQDSDz/+fzbX32U2nny6/RJhr
8tP+qCAxwTN2txwZZU25FDk=
-----END X509 CRL-----

Certificate Revocation List (CRL):
        Version 2 (0x1)
        Signature Algorithm: sha1WithRSAEncryption
        Issuer: /C=US/O=Test Certificates/CN=Good CA
        Last Update: Apr 19 14:57:20 2001 GMT
        Next Update: Apr 19 14:57:20 2011 GMT
        CRL extensions:
            X509v3 Authority Key Identifier: 
                keyid:B7:2E:A6:82:CB:C2:C8:BC:A8:7B:27:44:D7:35:33:DF:9A:15:94:C7

            X509v3 CRL Number: 
                1
Revoked Certificates:
    Serial Number: 0E
        Revocation Date: Apr 19 14:57:20 2001 GMT
        CRL entry extensions:
            X509v3 CRL Reason Code: 
                Key Compromise
    Serial Number: 0F
        Revocation Date: Apr 19 14:57:20 2001 GMT
        CRL entry extensions:
            X509v3 CRL Reason Code: 
                Key Compromise
    Signature Algorithm: sha1WithRSAEncryption
        93:c2:ec:0b:71:07:2d:9d:d7:a2:b3:f0:ed:08:4d:6e:06:90:
        66:72:06:a9:c2:30:73:f1:18:72:bf:a7:51:13:95:c4:31:3f:
        1d:79:41:ed:ed:ab:d0:96:11:1e:32:47:4c:c4:f7:e2:08:65:
        6f:73:55:c1:59:09:56:f2:60:79:27:18:2e:94:40:dd:7e:b1:
        92:bf:b8:57:e5:4c:c5:38:97:75:2a:a1:17:a2:25:0d:ec:0e:
        b7:95:40:8d:2c:df:b9:fa:10:ff:be:9e:4a:f2:37:4f:25:cb:
        1b:c8:6d:ef:e4:09:b9:03:36:1b:c1:d9:f9:4f:00:5e:80:85:
        92:cd
-----BEGIN X509 CRL-----
MIIBejCB5AIBATANBgkqhkiG9w0BAQUFADA7MQswCQYDVQQGEwJVUzEaMBgGA1UE
ChMRVGVzdCBDZXJ0aWZpY2F0ZXMxEDAOBgNVBAMTB0dvb2QgQ0EXDTAxMDQxOTE0
NTcyMFoXDTExMDQxOTE0NTcyMFowRDAgAgEOFw0wMTA0MTkxNDU3MjBaMAwwCgYD
VR0VBAMKAQEwIAIBDxcNMDEwNDE5MTQ1NzIwWjAMMAoGA1UdFQQDCgEBoC8wLTAf
BgNVHSMEGDAWgBS3LqaCy8LIvKh7J0TXNTPfmhWUxzAKBgNVHRQEAwIBATANBgkq
hkiG9w0BAQUFAAOBgQCTwuwLcQctndeis/DtCE1uBpBmcgapwjBz8Rhyv6dRE5XE
MT8deUHt7avQlhEeMkdMxPfiCGVvc1XBWQlW8mB5JxgulEDdfrGSv7hX5UzFOJd1
KqEXoiUN7A63lUCNLN+5+hD/vp5K8jdPJcsbyG3v5Am5AzYbwdn5TwBegIWSzQ==
-----END X509 CRL-----

