subject=/C=US/O=Test Certificates/CN=Good CA
issuer=/C=US/O=Test Certificates/CN=Trust Anchor
-----BEGIN CERTIFICATE-----
MIICbTCCAdagAwIBAgIBAjANBgkqhkiG9w0BAQUFADBAMQswCQYDVQQGEwJVUzEa
MBgGA1UEChMRVGVzdCBDZXJ0aWZpY2F0ZXMxFTATBgNVBAMTDFRydXN0IEFuY2hv
cjAeFw0wMTA0MTkxNDU3MjBaFw0xMTA0MTkxNDU3MjBaMDsxCzAJBgNVBAYTAlVT
MRowGAYDVQQKExFUZXN0IENlcnRpZmljYXRlczEQMA4GA1UEAxMHR29vZCBDQTCB
nzANBgkqhkiG9w0BAQEFAAOBjQAwgYkCgYEArsI1lQuXKwOxSkOVRaPwlhMQtgp0
p7HT4rKLGqojfY0twvMDc4rC9uj97wlh98kkraMx3r0wlllYSQ+Cp9mCCNu/C/Y2
IbZCyG+io4A3Um3q/QGvbHlclmrJb0j0MQi3o88GhE8Q6Vy6SGwFXGpKDJMpLSFp
Pxz8lh7M6J56Ex8CAwEAAaN8MHowHwYDVR0jBBgwFoAU+2zULYGeyid6ng2wPOqa
vIf/SeowHQYDVR0OBBYEFLcupoLLwsi8qHsnRNc1M9+aFZTHMA4GA1UdDwEB/wQE
AwIBBjAXBgNVHSAEEDAOMAwGCmCGSAFlAwIBMAEwDwYDVR0TAQH/BAUwAwEB/zAN
BgkqhkiG9w0BAQUFAAOBgQCOls9+0kEUS71w+KoQhfkVLdAKANXUmGCVZHL1zsya
cPP/Q8IsCNvwjefZpgc0cuhtnHt2uDd0/zYLRmgcvJwfx5vwOfmDN13mMB8Za+cg
3sZ/NI8MqQseKvS3fWqXaK6FJoKLzxId0iUGntbF4c5+rPFArzqM6IE7f9cMD5Fq
rA==
-----END CERTIFICATE-----

subject=/C=US/O=Test Certificates/CN=Policies P2 subCA
issuer=/C=US/O=Test Certificates/CN=Good CA
-----BEGIN CERTIFICATE-----
MIICcjCCAdugAwIBAgIBEDANBgkqhkiG9w0BAQUFADA7MQswCQYDVQQGEwJVUzEa
MBgGA1UEChMRVGVzdCBDZXJ0aWZpY2F0ZXMxEDAOBgNVBAMTB0dvb2QgQ0EwHhcN
MDEwNDE5MTQ1NzIwWhcNMTEwNDE5MTQ1NzIwWjBFMQswCQYDVQQGEwJVUzEaMBgG
A1UEChMRVGVzdCBDZXJ0aWZpY2F0ZXMxGjAYBgNVBAMTEVBvbGljaWVzIFAyIHN1
YkNBMIGfMA0GCSqGSIb3DQEBAQUAA4GNADCBiQKBgQDFuj/BeKqm7wDc+UMIp7Qh
eY7RqfB/VGqZuKUb5UNpLiXT37UrhteMqYSqBkd76l1qvhhBwRPJt9Nq2tf5slrS
NJOAnUfF0McB9RUJMGhkITa9As3KZy0u31hre09MUaacltcuJx4irpHKUEjn+qY1
ZdZ7NNEzH9VXWN+6lARLIQIDAQABo3wwejAfBgNVHSMEGDAWgBS3LqaCy8LIvKh7
J0TXNTPfmhWUxzAdBgNVHQ4EFgQU5FhKqtjykfUZF2iehQcjbgo0680wDgYDVR0P
AQH/BAQDAgEGMBcGA1UdIAQQMA4wDAYKYIZIAWUDAgEwAjAPBgNVHRMBAf8EBTAD
AQH/MA0GCSqGSIb3DQEBBQUAA4GBAGilgDaBiDA1cbd6xUxAl/K5DVQ8ack+2fk1
P8G5fTuQoQtDbWX6eA7Q/nXFXBCj2i1tmJF/q8Pzh1GU6MKQ5f7J5ibEstM1+lgb
hidM5kd85uVTxTBL7GSS94BSfXFnNOOSWbRTyhSIZRxScCjERfnSfF8yBDRIbFGO
ma6qPeAC
-----END CERTIFICATE-----

subject=/C=US/O=Test Certificates/CN=Different Policies EE Certificate Test3
issuer=/C=US/O=Test Certificates/CN=Policies P2 subCA
-----BEGIN CERTIFICATE-----
MIICgTCCAeqgAwIBAgIBATANBgkqhkiG9w0BAQUFADBFMQswCQYDVQQGEwJVUzEa
MBgGA1UEChMRVGVzdCBDZXJ0aWZpY2F0ZXMxGjAYBgNVBAMTEVBvbGljaWVzIFAy
IHN1YkNBMB4XDTAxMDQxOTE0NTcyMFoXDTExMDQxOTE0NTcyMFowWzELMAkGA1UE
BhMCVVMxGjAYBgNVBAoTEVRlc3QgQ2VydGlmaWNhdGVzMTAwLgYDVQQDEydEaWZm
ZXJlbnQgUG9saWNpZXMgRUUgQ2VydGlmaWNhdGUgVGVzdDMwgZ8wDQYJKoZIhvcN
AQEBBQADgY0AMIGJAoGBANc03XT9xYcVcwSWI/zfZ5VWnTC4uy5WFMe8/BNL8QuP
5xFw/xGTjgkS/ABNJJJ+a/RWsi0Q92MSeMbVNkgD0/i94SgjALWOdsg9k4LI3iH1
ziOZ1OWKjKsJIxgCbTls+JRu7bRi4dnVYHB96WnGFVsVp9xyoS3hUYYwpCFXYLWz
AgMBAAGjazBpMB8GA1UdIwQYMBaAFORYSqrY8pH1GRdonoUHI24KNOvNMB0GA1Ud
DgQWBBRyOnvPdzFG1aaQtBqWQiKlfmoaPjAOBgNVHQ8BAf8EBAMCBPAwFwYDVR0g
BBAwDjAMBgpghkgBZQMCATACMA0GCSqGSIb3DQEBBQUAA4GBACWQn4A03gqLgppl
ROwBGIIxHZD+wVr9BgoDJj2xwX6NaofqHfhAyVq9hDqEwylmfr0rH6m8PBAgnST0
CnoWgQEQQ2sESHf6f/7/CTcVLlx8UQDXaTlA22nhmoJG9Y4iOdjdzhgvn/9yYySs
aTByh3KCB3TV4q9GJw6nUNAmnoOo
-----END CERTIFICATE-----

Certificate Revocation List (CRL):
        Version 2 (0x1)
        Signature Algorithm: sha1WithRSAEncryption
        Issuer: /C=US/O=Test Certificates/CN=Policies P2 subCA
        Last Update: Apr 19 14:57:20 2001 GMT
        Next Update: Apr 19 14:57:20 2011 GMT
        CRL extensions:
            X509v3 Authority Key Identifier: 
                keyid:E4:58:4A:AA:D8:F2:91:F5:19:17:68:9E:85:07:23:6E:0A:34:EB:CD

            X509v3 CRL Number: 
                1
No Revoked Certificates.
    Signature Algorithm: sha1WithRSAEncryption
        c3:6b:fd:b1:c9:49:fe:a7:76:33:87:24:1f:f7:df:41:31:b8:
        37:15:f2:3c:ae:8e:c7:17:a1:30:ea:a6:53:99:4a:8b:a1:7c:
        ae:c1:4e:58:81:4f:65:e2:0d:eb:a0:cc:2d:f5:a2:ba:03:ee:
        1e:81:1c:64:3a:b1:9f:2b:d2:40:27:69:6f:32:95:fa:85:f7:
        c8:76:8b:4b:7a:11:12:8d:7c:fa:1f:54:84:d7:ff:72:23:63:
        46:55:0a:e4:d2:38:1d:83:2c:57:bb:60:21:dc:44:0d:6a:95:
        11:ad:f0:b5:57:82:68:f4:20:37:f4:d7:46:93:cd:c4:c6:90:
        fd:c1
-----BEGIN X509 CRL-----
MIIBPjCBqAIBATANBgkqhkiG9w0BAQUFADBFMQswCQYDVQQGEwJVUzEaMBgGA1UE
ChMRVGVzdCBDZXJ0aWZpY2F0ZXMxGjAYBgNVBAMTEVBvbGljaWVzIFAyIHN1YkNB
Fw0wMTA0MTkxNDU3MjBaFw0xMTA0MTkxNDU3MjBaoC8wLTAfBgNVHSMEGDAWgBTk
WEqq2PKR9RkXaJ6FByNuCjTrzTAKBgNVHRQEAwIBATANBgkqhkiG9w0BAQUFAAOB
gQDDa/2xyUn+p3YzhyQf999BMbg3FfI8ro7HF6Ew6qZTmUqLoXyuwU5YgU9l4g3r
oMwt9aK6A+4egRxkOrGfK9JAJ2lvMpX6hffIdotLehESjXz6H1SE1/9yI2NGVQrk
0jgdgyxXu2Ah3EQNapURrfC1V4Jo9CA39NdGk83ExpD9wQ==
-----END X509 CRL-----

Certificate Revocation List (CRL):
        Version 2 (0x1)
        Signature Algorithm: sha1WithRSAEncryption
        Issuer: /C=US/O=Test Certificates/CN=Trust Anchor
        Last Update: Apr 19 14:57:20 2001 GMT
        Next Update: Apr 19 14:57:20 2011 GMT
        CRL extensions:
            X509v3 Authority Key Identifier: 
                keyid:FB:6C:D4:2D:81:9E:CA:27:7A:9E:0D:B0:3C:EA:9A:BC:87:FF:49:EA

            X509v3 CRL Number: 
                1
Revoked Certificates:
    Serial Number: 68
        Revocation Date: Apr 19 14:57:20 2001 GMT
        CRL entry extensions:
            X509v3 CRL Reason Code: 
                Key Compromise
    Signature Algorithm: sha1WithRSAEncryption
        92:12:c4:34:b4:92:ab:ba:71:6b:74:31:16:ce:ed:25:d6:4b:
        1e:fa:f8:20:1e:9d:d7:7f:30:ed:15:f7:8b:5d:64:9b:dd:31:
        40:e4:55:0f:0c:5f:82:69:63:00:76:a5:cf:9e:c4:5f:f2:53:
        9b:9b:7d:f5:69:1d:74:57:38:70:e5:fb:5b:76:58:c9:ec:31:
        dc:94:1b:02:ee:9d:33:9c:38:4b:29:1d:e1:0c:29:8b:6e:c7:
        bf:a0:e8:40:34:83:cf:ff:9f:cd:b5:f7:d9:4d:a7:9f:2e:bf:
        44:98:6b:f2:d3:fe:a8:20:31:c1:33:76:b7:1c:19:65:4d:b9:
        14:39
-----BEGIN X509 CRL-----
MIIBXTCBxwIBATANBgkqhkiG9w0BAQUFADBAMQswCQYDVQQGEwJVUzEaMBgGA1UE
ChMRVGVzdCBDZXJ0aWZpY2F0ZXMxFTATBgNVBAMTDFRydXN0IEFuY2hvchcNMDEw
NDE5MTQ1NzIwWhcNMTEwNDE5MTQ1NzIwWjAiMCACAWgXDTAxMDQxOTE0NTcyMFow
DDAKBgNVHRUEAwoBAaAvMC0wHwYDVR0jBBgwFoAU+2zULYGeyid6ng2wPOqavIf/
SeowCgYDVR0UBAMCAQEwDQYJKoZIhvcNAQEFBQADgYEAkhLENLSSq7pxa3QxFs7t
JdZLHvr4IB6d138w7RX3i11km90xQORVDwxfgmljAHalz57EX/JTm5t99WkddFc4
cOX7W3ZYyewx3JQbAu6dM5w4Sykd4Qwpi27Hv6DoQDSDz/+fzbX32U2nny6/RJhr
8tP+qCAxwTN2txwZZU25FDk=
-----END X509 CRL-----

Certificate Revocation List (CRL):
        Version 2 (0x1)
        Signature Algorithm: sha1WithRSAEncryption
        Issuer: /C=US/O=Test Certificates/CN=Good CA
        Last Update: Apr 19 14:57:20 2001 GMT
        Next Update: Apr 19 14:57:20 2011 GMT
        CRL extensions:
            X509v3 Authority Key Identifier: 
                keyid:B7:2E:A6:82:CB:C2:C8:BC:A8:7B:27:44:D7:35:33:DF:9A:15:94:C7

            X509v3 CRL Number: 
                1
Revoked Certificates:
    Serial Number: 0E
        Revocation Date: Apr 19 14:57:20 2001 GMT
        CRL entry extensions:
            X509v3 CRL Reason Code: 
                Key Compromise
    Serial Number: 0F
        Revocation Date: Apr 19 14:57:20 2001 GMT
        CRL entry extensions:
            X509v3 CRL Reason Code: 
                Key Compromise
    Signature Algorithm: sha1WithRSAEncryption
        93:c2:ec:0b:71:07:2d:9d:d7:a2:b3:f0:ed:08:4d:6e:06:90:
        66:72:06:a9:c2:30:73:f1:18:72:bf:a7:51:13:95:c4:31:3f:
        1d:79:41:ed:ed:ab:d0:96:11:1e:32:47:4c:c4:f7:e2:08:65:
        6f:73:55:c1:59:09:56:f2:60:79:27:18:2e:94:40:dd:7e:b1:
        92:bf:b8:57:e5:4c:c5:38:97:75:2a:a1:17:a2:25:0d:ec:0e:
        b7:95:40:8d:2c:df:b9:fa:10:ff:be:9e:4a:f2:37:4f:25:cb:
        1b:c8:6d:ef:e4:09:b9:03:36:1b:c1:d9:f9:4f:00:5e:80:85:
        92:cd
-----BEGIN X509 CRL-----
MIIBejCB5AIBATANBgkqhkiG9w0BAQUFADA7MQswCQYDVQQGEwJVUzEaMBgGA1UE
ChMRVGVzdCBDZXJ0aWZpY2F0ZXMxEDAOBgNVBAMTB0dvb2QgQ0EXDTAxMDQxOTE0
NTcyMFoXDTExMDQxOTE0NTcyMFowRDAgAgEOFw0wMTA0MTkxNDU3MjBaMAwwCgYD
VR0VBAMKAQEwIAIBDxcNMDEwNDE5MTQ1NzIwWjAMMAoGA1UdFQQDCgEBoC8wLTAf
BgNVHSMEGDAWgBS3LqaCy8LIvKh7J0TXNTPfmhWUxzAKBgNVHRQEAwIBATANBgkq
hkiG9w0BAQUFAAOBgQCTwuwLcQctndeis/DtCE1uBpBmcgapwjBz8Rhyv6dRE5XE
MT8deUHt7avQlhEeMkdMxPfiCGVvc1XBWQlW8mB5JxgulEDdfrGSv7hX5UzFOJd1
KqEXoiUN7A63lUCNLN+5+hD/vp5K8jdPJcsbyG3v5Am5AzYbwdn5TwBegIWSzQ==
-----END X509 CRL-----

