subject=/C=US/O=Test Certificates/CN=Good CA
issuer=/C=US/O=Test Certificates/CN=Trust Anchor
-----BEGIN CERTIFICATE-----
MIICbTCCAdagAwIBAgIBAjANBgkqhkiG9w0BAQUFADBAMQswCQYDVQQGEwJVUzEa
MBgGA1UEChMRVGVzdCBDZXJ0aWZpY2F0ZXMxFTATBgNVBAMTDFRydXN0IEFuY2hv
cjAeFw0wMTA0MTkxNDU3MjBaFw0xMTA0MTkxNDU3MjBaMDsxCzAJBgNVBAYTAlVT
MRowGAYDVQQKExFUZXN0IENlcnRpZmljYXRlczEQMA4GA1UEAxMHR29vZCBDQTCB
nzANBgkqhkiG9w0BAQEFAAOBjQAwgYkCgYEArsI1lQuXKwOxSkOVRaPwlhMQtgp0
p7HT4rKLGqojfY0twvMDc4rC9uj97wlh98kkraMx3r0wlllYSQ+Cp9mCCNu/C/Y2
IbZCyG+io4A3Um3q/QGvbHlclmrJb0j0MQi3o88GhE8Q6Vy6SGwFXGpKDJMpLSFp
Pxz8lh7M6J56Ex8CAwEAAaN8MHowHwYDVR0jBBgwFoAU+2zULYGeyid6ng2wPOqa
vIf/SeowHQYDVR0OBBYEFLcupoLLwsi8qHsnRNc1M9+aFZTHMA4GA1UdDwEB/wQE
AwIBBjAXBgNVHSAEEDAOMAwGCmCGSAFlAwIBMAEwDwYDVR0TAQH/BAUwAwEB/zAN
BgkqhkiG9w0BAQUFAAOBgQCOls9+0kEUS71w+KoQhfkVLdAKANXUmGCVZHL1zsya
cPP/Q8IsCNvwjefZpgc0cuhtnHt2uDd0/zYLRmgcvJwfx5vwOfmDN13mMB8Za+cg
3sZ/NI8MqQseKvS3fWqXaK6FJoKLzxId0iUGntbF4c5+rPFArzqM6IE7f9cMD5Fq
rA==
-----END CERTIFICATE-----

subject=/C=US/O=Test Certificates/CN=Different Policies EE Certificate Test4
issuer=/C=US/O=Test Certificates/CN=Good subCA
-----BEGIN CERTIFICATE-----
MIICejCCAeOgAwIBAgIBATANBgkqhkiG9w0BAQUFADA+MQswCQYDVQQGEwJVUzEa
MBgGA1UEChMRVGVzdCBDZXJ0aWZpY2F0ZXMxEzARBgNVBAMTCkdvb2Qgc3ViQ0Ew
HhcNMDEwNDE5MTQ1NzIwWhcNMTEwNDE5MTQ1NzIwWjBbMQswCQYDVQQGEwJVUzEa
MBgGA1UEChMRVGVzdCBDZXJ0aWZpY2F0ZXMxMDAuBgNVBAMTJ0RpZmZlcmVudCBQ
b2xpY2llcyBFRSBDZXJ0aWZpY2F0ZSBUZXN0NDCBnzANBgkqhkiG9w0BAQEFAAOB
jQAwgYkCgYEAo97r9TnN6B3H+x4fSXruIfEelkjmA4Ti1Q93FP3Op0Pfk8ybf7W8
/meQsMFMMXAVrZ+pwfLj3YvzTspivZUbJGWA4o7r2DwkVkuXr6Rv2n3OhPlCwljb
TAFxb5S3wOOJ53FHJw33R19R8d3B0CpxKxLK1oXQVOOu0t3UKizFJakCAwEAAaNr
MGkwHwYDVR0jBBgwFoAUfFxpfJ3IVbEiBSlD+8R7j+rquH0wHQYDVR0OBBYEFOIy
WsL+F3ByhN7vnBDlbJNEkZS3MA4GA1UdDwEB/wQEAwIE8DAXBgNVHSAEEDAOMAwG
CmCGSAFlAwIBMAIwDQYJKoZIhvcNAQEFBQADgYEAVoBWMI/tY2C3bNKXPdDQHwOq
+JplKCmu37pLQlMNSVP8yssW5khRqkKYi48Jz7b21NKFN3w3/0MuV2AxjEA6ROZX
MBwaIKyeHMRCRDJndHYU3CkOvex/eDDnLXvNxTXuda755S3qZUbhNKRZnLv1iDzH
KN6TmIq39yQReXlNoNo=
-----END CERTIFICATE-----

subject=/C=US/O=Test Certificates/CN=Good subCA
issuer=/C=US/O=Test Certificates/CN=Good CA
-----BEGIN CERTIFICATE-----
MIICezCCAeSgAwIBAgIBETANBgkqhkiG9w0BAQUFADA7MQswCQYDVQQGEwJVUzEa
MBgGA1UEChMRVGVzdCBDZXJ0aWZpY2F0ZXMxEDAOBgNVBAMTB0dvb2QgQ0EwHhcN
MDEwNDE5MTQ1NzIwWhcNMTEwNDE5MTQ1NzIwWjA+MQswCQYDVQQGEwJVUzEaMBgG
A1UEChMRVGVzdCBDZXJ0aWZpY2F0ZXMxEzARBgNVBAMTCkdvb2Qgc3ViQ0EwgZ8w
DQYJKoZIhvcNAQEBBQADgY0AMIGJAoGBAPPDgvwjnBtonTcZM5RPe+FqtX3glBmw
zdb+WOm6gKoAp5euYnW2UZOOjSztJyTUKsmnK3qhKgntDjO8z/ito6Pz0Uo7zoby
wftFeKr76K0iBIp0t2DJQ4khnA8KjIB7LJp5CKIT1rhPdrLhPbc/r+LcUTZrAfRt
ZcQkxbznhxZxAgMBAAGjgYswgYgwHwYDVR0jBBgwFoAUty6mgsvCyLyoeydE1zUz
35oVlMcwHQYDVR0OBBYEFHxcaXydyFWxIgUpQ/vEe4/q6rh9MA4GA1UdDwEB/wQE
AwIBBjAXBgNVHSAEEDAOMAwGCmCGSAFlAwIBMAEwDwYDVR0TAQH/BAUwAwEB/zAM
BgNVHSQEBTADgAEAMA0GCSqGSIb3DQEBBQUAA4GBAI8yIYi19lr+NUCxlq3CXkpZ
TAgRtU0pqH1VbEootkv0o7apbF2cC8SHB0UDiih/yqZjqw3kHtpbBaf75KHxqoQ4
PKqoZXt3K4rjiQooU+2cyC+mxI3uegcFjQ444R10jXwv5EqNQ4joXhz5hocJA/PF
JGFA0gkGm2pMEBR567ka
-----END CERTIFICATE-----

Certificate Revocation List (CRL):
        Version 2 (0x1)
        Signature Algorithm: sha1WithRSAEncryption
        Issuer: /C=US/O=Test Certificates/CN=Good subCA
        Last Update: Apr 19 14:57:20 2001 GMT
        Next Update: Apr 19 14:57:20 2011 GMT
        CRL extensions:
            X509v3 Authority Key Identifier: 
                keyid:7C:5C:69:7C:9D:C8:55:B1:22:05:29:43:FB:C4:7B:8F:EA:EA:B8:7D

            X509v3 CRL Number: 
                1
No Revoked Certificates.
    Signature Algorithm: sha1WithRSAEncryption
        a1:14:35:58:41:58:4a:93:ea:8a:e7:cc:c1:be:02:22:8c:9a:
        21:32:d6:a9:bf:1d:df:7d:60:8c:ba:f2:8c:01:a9:38:a4:94:
        8a:6d:69:46:e5:ac:63:48:17:e5:c9:c0:de:df:13:73:c6:ec:
        3f:b7:ed:61:a2:6c:42:d8:cf:7a:ff:3b:35:41:8a:04:c8:fe:
        85:37:b8:7d:dc:a0:05:35:ba:e0:bb:39:c8:be:2a:79:57:82:
        db:f1:da:21:e0:c6:54:2b:37:2a:e1:0d:82:aa:2f:47:ab:15:
        fc:30:11:dd:52:ba:93:cf:bc:46:39:a7:94:29:7d:e0:2a:5c:
        d4:ce
-----BEGIN X509 CRL-----
MIIBNzCBoQIBATANBgkqhkiG9w0BAQUFADA+MQswCQYDVQQGEwJVUzEaMBgGA1UE
ChMRVGVzdCBDZXJ0aWZpY2F0ZXMxEzARBgNVBAMTCkdvb2Qgc3ViQ0EXDTAxMDQx
OTE0NTcyMFoXDTExMDQxOTE0NTcyMFqgLzAtMB8GA1UdIwQYMBaAFHxcaXydyFWx
IgUpQ/vEe4/q6rh9MAoGA1UdFAQDAgEBMA0GCSqGSIb3DQEBBQUAA4GBAKEUNVhB
WEqT6ornzMG+AiKMmiEy1qm/Hd99YIy68owBqTiklIptaUblrGNIF+XJwN7fE3PG
7D+37WGibELYz3r/OzVBigTI/oU3uH3coAU1uuC7Oci+KnlXgtvx2iHgxlQrNyrh
DYKqL0erFfwwEd1SupPPvEY5p5QpfeAqXNTO
-----END X509 CRL-----

Certificate Revocation List (CRL):
        Version 2 (0x1)
        Signature Algorithm: sha1WithRSAEncryption
        Issuer: /C=US/O=Test Certificates/CN=Trust Anchor
        Last Update: Apr 19 14:57:20 2001 GMT
        Next Update: Apr 19 14:57:20 2011 GMT
        CRL extensions:
            X509v3 Authority Key Identifier: 
                keyid:FB:6C:D4:2D:81:9E:CA:27:7A:9E:0D:B0:3C:EA:9A:BC:87:FF:49:EA

            X509v3 CRL Number: 
                1
Revoked Certificates:
    Serial Number: 68
        Revocation Date: Apr 19 14:57:20 2001 GMT
        CRL entry extensions:
            X509v3 CRL Reason Code: 
                Key Compromise
    Signature Algorithm: sha1WithRSAEncryption
        92:12:c4:34:b4:92:ab:ba:71:6b:74:31:16:ce:ed:25:d6:4b:
        1e:fa:f8:20:1e:9d:d7:7f:30:ed:15:f7:8b:5d:64:9b:dd:31:
        40:e4:55:0f:0c:5f:82:69:63:00:76:a5:cf:9e:c4:5f:f2:53:
        9b:9b:7d:f5:69:1d:74:57:38:70:e5:fb:5b:76:58:c9:ec:31:
        dc:94:1b:02:ee:9d:33:9c:38:4b:29:1d:e1:0c:29:8b:6e:c7:
        bf:a0:e8:40:34:83:cf:ff:9f:cd:b5:f7:d9:4d:a7:9f:2e:bf:
        44:98:6b:f2:d3:fe:a8:20:31:c1:33:76:b7:1c:19:65:4d:b9:
        14:39
-----BEGIN X509 CRL-----
MIIBXTCBxwIBATANBgkqhkiG9w0BAQUFADBAMQswCQYDVQQGEwJVUzEaMBgGA1UE
ChMRVGVzdCBDZXJ0aWZpY2F0ZXMxFTATBgNVBAMTDFRydXN0IEFuY2hvchcNMDEw
NDE5MTQ1NzIwWhcNMTEwNDE5MTQ1NzIwWjAiMCACAWgXDTAxMDQxOTE0NTcyMFow
DDAKBgNVHRUEAwoBAaAvMC0wHwYDVR0jBBgwFoAU+2zULYGeyid6ng2wPOqavIf/
SeowCgYDVR0UBAMCAQEwDQYJKoZIhvcNAQEFBQADgYEAkhLENLSSq7pxa3QxFs7t
JdZLHvr4IB6d138w7RX3i11km90xQORVDwxfgmljAHalz57EX/JTm5t99WkddFc4
cOX7W3ZYyewx3JQbAu6dM5w4Sykd4Qwpi27Hv6DoQDSDz/+fzbX32U2nny6/RJhr
8tP+qCAxwTN2txwZZU25FDk=
-----END X509 CRL-----

Certificate Revocation List (CRL):
        Version 2 (0x1)
        Signature Algorithm: sha1WithRSAEncryption
        Issuer: /C=US/O=Test Certificates/CN=Good CA
        Last Update: Apr 19 14:57:20 2001 GMT
        Next Update: Apr 19 14:57:20 2011 GMT
        CRL extensions:
            X509v3 Authority Key Identifier: 
                keyid:B7:2E:A6:82:CB:C2:C8:BC:A8:7B:27:44:D7:35:33:DF:9A:15:94:C7

            X509v3 CRL Number: 
                1
Revoked Certificates:
    Serial Number: 0E
        Revocation Date: Apr 19 14:57:20 2001 GMT
        CRL entry extensions:
            X509v3 CRL Reason Code: 
                Key Compromise
    Serial Number: 0F
        Revocation Date: Apr 19 14:57:20 2001 GMT
        CRL entry extensions:
            X509v3 CRL Reason Code: 
                Key Compromise
    Signature Algorithm: sha1WithRSAEncryption
        93:c2:ec:0b:71:07:2d:9d:d7:a2:b3:f0:ed:08:4d:6e:06:90:
        66:72:06:a9:c2:30:73:f1:18:72:bf:a7:51:13:95:c4:31:3f:
        1d:79:41:ed:ed:ab:d0:96:11:1e:32:47:4c:c4:f7:e2:08:65:
        6f:73:55:c1:59:09:56:f2:60:79:27:18:2e:94:40:dd:7e:b1:
        92:bf:b8:57:e5:4c:c5:38:97:75:2a:a1:17:a2:25:0d:ec:0e:
        b7:95:40:8d:2c:df:b9:fa:10:ff:be:9e:4a:f2:37:4f:25:cb:
        1b:c8:6d:ef:e4:09:b9:03:36:1b:c1:d9:f9:4f:00:5e:80:85:
        92:cd
-----BEGIN X509 CRL-----
MIIBejCB5AIBATANBgkqhkiG9w0BAQUFADA7MQswCQYDVQQGEwJVUzEaMBgGA1UE
ChMRVGVzdCBDZXJ0aWZpY2F0ZXMxEDAOBgNVBAMTB0dvb2QgQ0EXDTAxMDQxOTE0
NTcyMFoXDTExMDQxOTE0NTcyMFowRDAgAgEOFw0wMTA0MTkxNDU3MjBaMAwwCgYD
VR0VBAMKAQEwIAIBDxcNMDEwNDE5MTQ1NzIwWjAMMAoGA1UdFQQDCgEBoC8wLTAf
BgNVHSMEGDAWgBS3LqaCy8LIvKh7J0TXNTPfmhWUxzAKBgNVHRQEAwIBATANBgkq
hkiG9w0BAQUFAAOBgQCTwuwLcQctndeis/DtCE1uBpBmcgapwjBz8Rhyv6dRE5XE
MT8deUHt7avQlhEeMkdMxPfiCGVvc1XBWQlW8mB5JxgulEDdfrGSv7hX5UzFOJd1
KqEXoiUN7A63lUCNLN+5+hD/vp5K8jdPJcsbyG3v5Am5AzYbwdn5TwBegIWSzQ==
-----END X509 CRL-----

