subject=/C=US/O=Test Certificates/CN=Policies P123 subsubCAP12P1
issuer=/C=US/O=Test Certificates/CN=Policies P123 subCAP12
-----BEGIN CERTIFICATE-----
MIICizCCAfSgAwIBAgIBATANBgkqhkiG9w0BAQUFADBKMQswCQYDVQQGEwJVUzEa
MBgGA1UEChMRVGVzdCBDZXJ0aWZpY2F0ZXMxHzAdBgNVBAMTFlBvbGljaWVzIFAx
MjMgc3ViQ0FQMTIwHhcNMDEwNDE5MTQ1NzIwWhcNMTEwNDE5MTQ1NzIwWjBPMQsw
CQYDVQQGEwJVUzEaMBgGA1UEChMRVGVzdCBDZXJ0aWZpY2F0ZXMxJDAiBgNVBAMT
G1BvbGljaWVzIFAxMjMgc3Vic3ViQ0FQMTJQMTCBnzANBgkqhkiG9w0BAQEFAAOB
jQAwgYkCgYEA3JEcFcmqBaOdX0aQIeLKgr184G8kZkUDCWXFVa8Rl8JEbH8nKumt
oT+D502p0fAxQ/lu67/+Wz9X+0bAwkuPsCzJ1QCXR2UIRpVr1NxN7Rpz/7c6kzfL
/DJwrly/lSBnj0R0YirNdtTRRbIo0/YEP7P2B0gorC16aSbZViLod4ECAwEAAaN8
MHowHwYDVR0jBBgwFoAUWocIIfvckxBtmgt8x2qxaEvfVdcwHQYDVR0OBBYEFCOJ
nPgjYULoGZabFjVqvDC9XoqCMA4GA1UdDwEB/wQEAwIBBjAXBgNVHSAEEDAOMAwG
CmCGSAFlAwIBMAEwDwYDVR0TAQH/BAUwAwEB/zANBgkqhkiG9w0BAQUFAAOBgQBE
8ZcL9nvf0LT9xC+cY0M+u5LPMYNxkecfdmiF5H1xmtqQ+pyLB7lUIyeSE0FWSbFS
HxkKQAkO31yPfR0lvAkmJS8uVhZf7kiMfNhK/iHQA2LE4ubMmgyfbnAidPaVhPJ/
waAqgUmU3waTfWo4RyKCWsWN6L95KJNO3HkS5l83zg==
-----END CERTIFICATE-----

subject=/C=US/O=Test Certificates/CN=Policies P123 subCAP12
issuer=/C=US/O=Test Certificates/CN=Policies P123 CA
-----BEGIN CERTIFICATE-----
MIICkDCCAfmgAwIBAgIBATANBgkqhkiG9w0BAQUFADBEMQswCQYDVQQGEwJVUzEa
MBgGA1UEChMRVGVzdCBDZXJ0aWZpY2F0ZXMxGTAXBgNVBAMTEFBvbGljaWVzIFAx
MjMgQ0EwHhcNMDEwNDE5MTQ1NzIwWhcNMTEwNDE5MTQ1NzIwWjBKMQswCQYDVQQG
EwJVUzEaMBgGA1UEChMRVGVzdCBDZXJ0aWZpY2F0ZXMxHzAdBgNVBAMTFlBvbGlj
aWVzIFAxMjMgc3ViQ0FQMTIwgZ8wDQYJKoZIhvcNAQEBBQADgY0AMIGJAoGBAOll
J21WulD37Mn1rV21nTiHp+5zJm7d2iKVBk051MbS63EnC5jnUm0D6a5QJiQR8Ai2
tuB17ppJED42WQtI7o8exytiya4Y4BvDOeGlVbVZSGgbk2vjlTzg+caDcAkVSzWD
YMs02A14NrbFODXEyAyJ7rsOTycvQorNHm6zUBvRAgMBAAGjgYswgYgwHwYDVR0j
BBgwFoAU0L/Nm9/xkf2Ch1oQz5Cvi7zyxcwwHQYDVR0OBBYEFFqHCCH73JMQbZoL
fMdqsWhL31XXMA4GA1UdDwEB/wQEAwIBBjAlBgNVHSAEHjAcMAwGCmCGSAFlAwIB
MAEwDAYKYIZIAWUDAgEwAjAPBgNVHRMBAf8EBTADAQH/MA0GCSqGSIb3DQEBBQUA
A4GBAD9AiTI21pU5RaP49a5YdThygUEjL+Hvvoq4cbbg7dN3qbjYJBXUruTWyY+c
pSqrS3q3rUlt99O+9JFqZSX8LCVRMg0yWSlwymdeY8a5EBS099ZFB+r9v4tIndk0
r1uaX/PyEiMNd+eT8GdxBwl+Jo+AHTvuHx0G9iRwLbS5Es0u
-----END CERTIFICATE-----

subject=/C=US/O=Test Certificates/CN=Different Policies EE Certificate Test7
issuer=/C=US/O=Test Certificates/CN=Policies P123 subsubCAP12P1
-----BEGIN CERTIFICATE-----
MIICnDCCAgWgAwIBAgIBATANBgkqhkiG9w0BAQUFADBPMQswCQYDVQQGEwJVUzEa
MBgGA1UEChMRVGVzdCBDZXJ0aWZpY2F0ZXMxJDAiBgNVBAMTG1BvbGljaWVzIFAx
MjMgc3Vic3ViQ0FQMTJQMTAeFw0wMTA0MTkxNDU3MjBaFw0xMTA0MTkxNDU3MjBa
MFsxCzAJBgNVBAYTAlVTMRowGAYDVQQKExFUZXN0IENlcnRpZmljYXRlczEwMC4G
A1UEAxMnRGlmZmVyZW50IFBvbGljaWVzIEVFIENlcnRpZmljYXRlIFRlc3Q3MIGf
MA0GCSqGSIb3DQEBAQUAA4GNADCBiQKBgQCq7BLYQUkQ5JoVVov7G3lnh8JAEwYq
LMbqpRCqw7cUk5pzpmQsxkZs6/Ucuz/aR9dCCaRZJ+YQ8GZSQ+igOWzOfGwugT2P
1F9uHaqW5hLEm4nKD0sCR7e+SSsZcVLDu43aKeP9M9W+eIiVgBDqqO/sIiP+H9lA
XGxBY7aZKR9PbQIDAQABo3wwejAfBgNVHSMEGDAWgBQjiZz4I2FC6BmWmxY1arww
vV6KgjAdBgNVHQ4EFgQU8kOeHdO942r3cR78izbu/QscRBMwDgYDVR0PAQH/BAQD
AgH2MBcGA1UdIAQQMA4wDAYKYIZIAWUDAgEwAjAPBgNVHRMBAf8EBTADAQH/MA0G
CSqGSIb3DQEBBQUAA4GBAB7JKK79k5557tO3m4Z6Ggwb+wna9YjHdiEEmFrP0CbG
ydKsCOn176W5roPXJfVz4LNWRaQ1VD9hJBRNk7l7hCgrbazLj9TtrU9RrklDu54/
tyZH3BQrH0znl+dxlEgYdfzhd0XQhMP4AGAlIzZUANHCnmjRKkqikPNXO5bMpnza
-----END CERTIFICATE-----

subject=/C=US/O=Test Certificates/CN=Policies P123 CA
issuer=/C=US/O=Test Certificates/CN=Trust Anchor
-----BEGIN CERTIFICATE-----
MIICojCCAgugAwIBAgIBJDANBgkqhkiG9w0BAQUFADBAMQswCQYDVQQGEwJVUzEa
MBgGA1UEChMRVGVzdCBDZXJ0aWZpY2F0ZXMxFTATBgNVBAMTDFRydXN0IEFuY2hv
cjAeFw0wMTA0MTkxNDU3MjBaFw0xMTA0MTkxNDU3MjBaMEQxCzAJBgNVBAYTAlVT
MRowGAYDVQQKExFUZXN0IENlcnRpZmljYXRlczEZMBcGA1UEAxMQUG9saWNpZXMg
UDEyMyBDQTCBnzANBgkqhkiG9w0BAQEFAAOBjQAwgYkCgYEAuGtVArq1otVEuN/s
xR5XSOEfVzIms1FiprO4UReYXUDbKzmCYC6YypbEnOP2JpLQOPwAfVqLL8FV7xiS
o+HmK25R0aK9nQGFUPX0U9o4b5NRcWFAoYBAF2GOFBNqGF6d9wBFPlijGMT8nWr5
ahnujYSC1Emy88N4hkp1fj4o7yMCAwEAAaOBpzCBpDAfBgNVHSMEGDAWgBT7bNQt
gZ7KJ3qeDbA86pq8h/9J6jAdBgNVHQ4EFgQU0L/Nm9/xkf2Ch1oQz5Cvi7zyxcww
DgYDVR0PAQH/BAQDAgEGMDMGA1UdIAQsMCowDAYKYIZIAWUDAgEwATAMBgpghkgB
ZQMCATACMAwGCmCGSAFlAwIBMAMwDwYDVR0TAQH/BAUwAwEB/zAMBgNVHSQEBTAD
gAEAMA0GCSqGSIb3DQEBBQUAA4GBAHcVVBwhebD5vRKleXMh71kleQIL8QOQFpHM
jVYS/KJiBsVUTebOeONSU0cuPmzomEkpLyYPz8cDroidExtxGEpkKgYBGi1c5ext
cDUGFsTWENTFFWjZ7xA56XUtGd8alXJfY0v6QSHqoYFosJvoqU2bjX6jqQVK5HbY
kko1SxlW
-----END CERTIFICATE-----

Certificate Revocation List (CRL):
        Version 2 (0x1)
        Signature Algorithm: sha1WithRSAEncryption
        Issuer: /C=US/O=Test Certificates/CN=Policies P123 CA
        Last Update: Apr 19 14:57:20 2001 GMT
        Next Update: Apr 19 14:57:20 2011 GMT
        CRL extensions:
            X509v3 Authority Key Identifier: 
                keyid:D0:BF:CD:9B:DF:F1:91:FD:82:87:5A:10:CF:90:AF:8B:BC:F2:C5:CC

            X509v3 CRL Number: 
                1
No Revoked Certificates.
    Signature Algorithm: sha1WithRSAEncryption
        81:c2:63:b3:65:bd:c4:2d:98:7c:e0:85:dd:5f:07:d7:b4:1b:
        7a:64:a7:7f:60:3d:62:3a:70:af:d5:97:23:23:9a:48:e3:b7:
        8b:c0:3d:43:c1:66:e8:24:db:ed:a9:ab:0a:70:51:d8:7d:65:
        92:ea:e9:6f:cb:96:8e:3b:cf:94:e9:9c:d2:27:54:29:8c:81:
        84:1d:a6:22:65:85:46:70:07:da:1d:e9:79:9f:e7:3c:4e:96:
        1b:11:d9:08:ec:f7:95:15:c9:db:8d:a7:17:16:3e:76:bb:41:
        98:15:94:b3:1a:19:6f:1e:dc:10:24:c8:ae:bc:38:93:c5:04:
        ef:9d
-----BEGIN X509 CRL-----
MIIBPTCBpwIBATANBgkqhkiG9w0BAQUFADBEMQswCQYDVQQGEwJVUzEaMBgGA1UE
ChMRVGVzdCBDZXJ0aWZpY2F0ZXMxGTAXBgNVBAMTEFBvbGljaWVzIFAxMjMgQ0EX
DTAxMDQxOTE0NTcyMFoXDTExMDQxOTE0NTcyMFqgLzAtMB8GA1UdIwQYMBaAFNC/
zZvf8ZH9godaEM+Qr4u88sXMMAoGA1UdFAQDAgEBMA0GCSqGSIb3DQEBBQUAA4GB
AIHCY7NlvcQtmHzghd1fB9e0G3pkp39gPWI6cK/VlyMjmkjjt4vAPUPBZugk2+2p
qwpwUdh9ZZLq6W/Llo47z5TpnNInVCmMgYQdpiJlhUZwB9od6Xmf5zxOlhsR2Qjs
95UVyduNpxcWPna7QZgVlLMaGW8e3BAkyK68OJPFBO+d
-----END X509 CRL-----

Certificate Revocation List (CRL):
        Version 2 (0x1)
        Signature Algorithm: sha1WithRSAEncryption
        Issuer: /C=US/O=Test Certificates/CN=Policies P123 subCAP12
        Last Update: Apr 19 14:57:20 2001 GMT
        Next Update: Apr 19 14:57:20 2011 GMT
        CRL extensions:
            X509v3 Authority Key Identifier: 
                keyid:5A:87:08:21:FB:DC:93:10:6D:9A:0B:7C:C7:6A:B1:68:4B:DF:55:D7

            X509v3 CRL Number: 
                1
No Revoked Certificates.
    Signature Algorithm: sha1WithRSAEncryption
        67:b8:b5:f3:01:89:95:0b:52:9b:23:ed:15:82:33:84:16:99:
        d5:19:f9:2a:ba:7a:1a:fd:61:2e:32:9b:bf:50:d0:02:cc:b8:
        5e:0c:f9:8f:7d:6b:d7:ce:29:7d:cd:9a:0d:01:4a:c9:ef:38:
        13:2e:a6:46:a5:13:4a:ba:01:58:71:13:21:6a:52:1a:e5:2f:
        c8:58:ba:dd:bb:b5:18:3e:a0:5b:94:3a:96:d0:47:05:fa:a4:
        84:37:c0:e4:5a:42:31:19:c3:86:cc:42:90:32:85:aa:e4:70:
        23:e2:cf:eb:fe:f3:fe:e0:83:17:bc:c4:15:07:0f:b8:c0:d9:
        57:d2
-----BEGIN X509 CRL-----
MIIBQzCBrQIBATANBgkqhkiG9w0BAQUFADBKMQswCQYDVQQGEwJVUzEaMBgGA1UE
ChMRVGVzdCBDZXJ0aWZpY2F0ZXMxHzAdBgNVBAMTFlBvbGljaWVzIFAxMjMgc3Vi
Q0FQMTIXDTAxMDQxOTE0NTcyMFoXDTExMDQxOTE0NTcyMFqgLzAtMB8GA1UdIwQY
MBaAFFqHCCH73JMQbZoLfMdqsWhL31XXMAoGA1UdFAQDAgEBMA0GCSqGSIb3DQEB
BQUAA4GBAGe4tfMBiZULUpsj7RWCM4QWmdUZ+Sq6ehr9YS4ym79Q0ALMuF4M+Y99
a9fOKX3Nmg0BSsnvOBMupkalE0q6AVhxEyFqUhrlL8hYut27tRg+oFuUOpbQRwX6
pIQ3wORaQjEZw4bMQpAyharkcCPiz+v+8/7ggxe8xBUHD7jA2VfS
-----END X509 CRL-----

Certificate Revocation List (CRL):
        Version 2 (0x1)
        Signature Algorithm: sha1WithRSAEncryption
        Issuer: /C=US/O=Test Certificates/CN=Policies P123 subsubCAP12P1
        Last Update: Apr 19 14:57:20 2001 GMT
        Next Update: Apr 19 14:57:20 2011 GMT
        CRL extensions:
            X509v3 Authority Key Identifier: 
                keyid:23:89:9C:F8:23:61:42:E8:19:96:9B:16:35:6A:BC:30:BD:5E:8A:82

            X509v3 CRL Number: 
                1
No Revoked Certificates.
    Signature Algorithm: sha1WithRSAEncryption
        38:53:72:c0:cb:e3:f9:84:7d:49:58:c4:73:96:61:3f:7d:1a:
        78:47:82:fa:be:2b:9a:55:99:d4:73:ad:49:14:9d:a3:3c:5e:
        99:66:20:f4:df:d9:c3:d3:03:61:75:0d:18:f6:c4:b8:29:0f:
        e7:e3:e9:37:f3:0d:e0:74:a0:ef:8e:9f:fa:12:18:20:a2:8a:
        3a:bb:72:e6:20:4f:2a:2b:7f:22:5d:56:01:e8:fb:76:fd:62:
        44:16:83:a8:7e:53:4d:6a:4a:0c:94:10:64:85:02:07:1d:d3:
        28:57:9f:e7:57:65:99:37:99:f4:52:ae:de:5e:4f:5c:e9:08:
        f2:cc
-----BEGIN X509 CRL-----
MIIBSDCBsgIBATANBgkqhkiG9w0BAQUFADBPMQswCQYDVQQGEwJVUzEaMBgGA1UE
ChMRVGVzdCBDZXJ0aWZpY2F0ZXMxJDAiBgNVBAMTG1BvbGljaWVzIFAxMjMgc3Vi
c3ViQ0FQMTJQMRcNMDEwNDE5MTQ1NzIwWhcNMTEwNDE5MTQ1NzIwWqAvMC0wHwYD
VR0jBBgwFoAUI4mc+CNhQugZlpsWNWq8ML1eioIwCgYDVR0UBAMCAQEwDQYJKoZI
hvcNAQEFBQADgYEAOFNywMvj+YR9SVjEc5ZhP30aeEeC+r4rmlWZ1HOtSRSdozxe
mWYg9N/Zw9MDYXUNGPbEuCkP5+PpN/MN4HSg746f+hIYIKKKOrty5iBPKit/Il1W
Aej7dv1iRBaDqH5TTWpKDJQQZIUCBx3TKFef51dlmTeZ9FKu3l5PXOkI8sw=
-----END X509 CRL-----

Certificate Revocation List (CRL):
        Version 2 (0x1)
        Signature Algorithm: sha1WithRSAEncryption
        Issuer: /C=US/O=Test Certificates/CN=Trust Anchor
        Last Update: Apr 19 14:57:20 2001 GMT
        Next Update: Apr 19 14:57:20 2011 GMT
        CRL extensions:
            X509v3 Authority Key Identifier: 
                keyid:FB:6C:D4:2D:81:9E:CA:27:7A:9E:0D:B0:3C:EA:9A:BC:87:FF:49:EA

            X509v3 CRL Number: 
                1
Revoked Certificates:
    Serial Number: 68
        Revocation Date: Apr 19 14:57:20 2001 GMT
        CRL entry extensions:
            X509v3 CRL Reason Code: 
                Key Compromise
    Signature Algorithm: sha1WithRSAEncryption
        92:12:c4:34:b4:92:ab:ba:71:6b:74:31:16:ce:ed:25:d6:4b:
        1e:fa:f8:20:1e:9d:d7:7f:30:ed:15:f7:8b:5d:64:9b:dd:31:
        40:e4:55:0f:0c:5f:82:69:63:00:76:a5:cf:9e:c4:5f:f2:53:
        9b:9b:7d:f5:69:1d:74:57:38:70:e5:fb:5b:76:58:c9:ec:31:
        dc:94:1b:02:ee:9d:33:9c:38:4b:29:1d:e1:0c:29:8b:6e:c7:
        bf:a0:e8:40:34:83:cf:ff:9f:cd:b5:f7:d9:4d:a7:9f:2e:bf:
        44:98:6b:f2:d3:fe:a8:20:31:c1:33:76:b7:1c:19:65:4d:b9:
        14:39
-----BEGIN X509 CRL-----
MIIBXTCBxwIBATANBgkqhkiG9w0BAQUFADBAMQswCQYDVQQGEwJVUzEaMBgGA1UE
ChMRVGVzdCBDZXJ0aWZpY2F0ZXMxFTATBgNVBAMTDFRydXN0IEFuY2hvchcNMDEw
NDE5MTQ1NzIwWhcNMTEwNDE5MTQ1NzIwWjAiMCACAWgXDTAxMDQxOTE0NTcyMFow
DDAKBgNVHRUEAwoBAaAvMC0wHwYDVR0jBBgwFoAU+2zULYGeyid6ng2wPOqavIf/
SeowCgYDVR0UBAMCAQEwDQYJKoZIhvcNAQEFBQADgYEAkhLENLSSq7pxa3QxFs7t
JdZLHvr4IB6d138w7RX3i11km90xQORVDwxfgmljAHalz57EX/JTm5t99WkddFc4
cOX7W3ZYyewx3JQbAu6dM5w4Sykd4Qwpi27Hv6DoQDSDz/+fzbX32U2nny6/RJhr
8tP+qCAxwTN2txwZZU25FDk=
-----END X509 CRL-----

