subject=/C=US/O=Test Certificates/CN=Policies P12 subCAP1
issuer=/C=US/O=Test Certificates/CN=Policies P12 CA
-----BEGIN CERTIFICATE-----
MIICfTCCAeagAwIBAgIBATANBgkqhkiG9w0BAQUFADBDMQswCQYDVQQGEwJVUzEa
MBgGA1UEChMRVGVzdCBDZXJ0aWZpY2F0ZXMxGDAWBgNVBAMTD1BvbGljaWVzIFAx
MiBDQTAeFw0wMTA0MTkxNDU3MjBaFw0xMTA0MTkxNDU3MjBaMEgxCzAJBgNVBAYT
AlVTMRowGAYDVQQKExFUZXN0IENlcnRpZmljYXRlczEdMBsGA1UEAxMUUG9saWNp
ZXMgUDEyIHN1YkNBUDEwgZ8wDQYJKoZIhvcNAQEBBQADgY0AMIGJAoGBAKniBOhW
3+GUH9cLSjfU8TnmUuKC8zu+bx+7Vd8N20wFU83y33ReAvzS9j5mBAT6qqLMg52i
t5h4ni8MAttxqQivCwZR6U+Mg2KMdHEAbvTp8ya69ZdGzc8StBaJ1OIIRHtRicl2
Ek85wzHazjfWPtmnO0EaIzJImL3U24pAKDq3AgMBAAGjfDB6MB8GA1UdIwQYMBaA
FADjZemB1Ia5xx3n8zM5Bl5MEaX5MB0GA1UdDgQWBBRCiBzBeLdD2gCvvd66Q6fl
tWH/8jAOBgNVHQ8BAf8EBAMCAQYwFwYDVR0gBBAwDjAMBgpghkgBZQMCATABMA8G
A1UdEwEB/wQFMAMBAf8wDQYJKoZIhvcNAQEFBQADgYEAYKVZU12G6lcEkxyRYlMJ
umN4xtytcDe50I4AFgMJlgCcLvupgFN+5QWwSGtdBpSrN3lDBFTUQ/ZrAL3O4nzA
HaKM6LaBCQS1//FE6qbi2UvRHfp8RoYUH4hM1nzTb7/Za0wsWTwegcz1uOZ4aLQ5
M7QKfWfzax6EarTJ4jorUQA=
-----END CERTIFICATE-----

subject=/C=US/O=Test Certificates/CN=Policies P12 subsubCAP1P2
issuer=/C=US/O=Test Certificates/CN=Policies P12 subCAP1
-----BEGIN CERTIFICATE-----
MIIChzCCAfCgAwIBAgIBATANBgkqhkiG9w0BAQUFADBIMQswCQYDVQQGEwJVUzEa
MBgGA1UEChMRVGVzdCBDZXJ0aWZpY2F0ZXMxHTAbBgNVBAMTFFBvbGljaWVzIFAx
MiBzdWJDQVAxMB4XDTAxMDQxOTE0NTcyMFoXDTExMDQxOTE0NTcyMFowTTELMAkG
A1UEBhMCVVMxGjAYBgNVBAoTEVRlc3QgQ2VydGlmaWNhdGVzMSIwIAYDVQQDExlQ
b2xpY2llcyBQMTIgc3Vic3ViQ0FQMVAyMIGfMA0GCSqGSIb3DQEBAQUAA4GNADCB
iQKBgQCgzy2UzpvEK8JSY1wMRMaoYi/MuP+Hkmtwerm88lsIWe07HlT55nuxjp5/
vSPZEgCYm+wk0AU87yD2n6OkCJn+oUVbeucGoJSwuTEs7HK0YZq+RyYdzcoZ7Z4Z
EzNUC2I+vPj01u9NL0XBZLJ7g5h6Au8d3zGEkn6bEPk565LiewIDAQABo3wwejAf
BgNVHSMEGDAWgBRCiBzBeLdD2gCvvd66Q6fltWH/8jAdBgNVHQ4EFgQUZ+UNjYxs
KrtVbS3oIqoES3MriCowDgYDVR0PAQH/BAQDAgEGMBcGA1UdIAQQMA4wDAYKYIZI
AWUDAgEwAjAPBgNVHRMBAf8EBTADAQH/MA0GCSqGSIb3DQEBBQUAA4GBAESq+2Cg
vywkdxLqsugNl7K/+BK8s0yadUr/Q/DZKPALlPRaVW7GzKJ7aCGw1xRiMmkV5Z1Z
UjSdHXTJetXdNpCfjpVnnrAB9DjkA7RrKI1KTPxhnywtwQNTpD4gceRP6icRwaN6
7Y/GlL6Fi1LbuHlGF94I9XchvB1mTQ0PF52O
-----END CERTIFICATE-----

subject=/C=US/O=Test Certificates/CN=Policies P12 CA
issuer=/C=US/O=Test Certificates/CN=Trust Anchor
-----BEGIN CERTIFICATE-----
MIICkzCCAfygAwIBAgIBJTANBgkqhkiG9w0BAQUFADBAMQswCQYDVQQGEwJVUzEa
MBgGA1UEChMRVGVzdCBDZXJ0aWZpY2F0ZXMxFTATBgNVBAMTDFRydXN0IEFuY2hv
cjAeFw0wMTA0MTkxNDU3MjBaFw0xMTA0MTkxNDU3MjBaMEMxCzAJBgNVBAYTAlVT
MRowGAYDVQQKExFUZXN0IENlcnRpZmljYXRlczEYMBYGA1UEAxMPUG9saWNpZXMg
UDEyIENBMIGfMA0GCSqGSIb3DQEBAQUAA4GNADCBiQKBgQC5unCMuN8PuVFWbqxO
/wnIQsciPiEo1GoKWjM6+kb9l3h6wWyWYwmst2c158qcJLY9PxaUMhqQd/SY0Tt9
WlHXVcE8rMoWSGmFxfK33UpeCtqwz9ugPSWwZkqx2lI/0ozQXgjYb0J9/EoKw1O0
CxxrdQdPQkyLD4Uxe87/MlpzsQIDAQABo4GZMIGWMB8GA1UdIwQYMBaAFPts1C2B
nsonep4NsDzqmryH/0nqMB0GA1UdDgQWBBQA42XpgdSGuccd5/MzOQZeTBGl+TAO
BgNVHQ8BAf8EBAMCAQYwJQYDVR0gBB4wHDAMBgpghkgBZQMCATABMAwGCmCGSAFl
AwIBMAIwDwYDVR0TAQH/BAUwAwEB/zAMBgNVHSQEBTADgAEAMA0GCSqGSIb3DQEB
BQUAA4GBABX9GMyAC90FH8BvpnNh6SDn2MIT7iINc4/9u64d1dxEhqogqcR58khK
btHyx8YrgbCcqUNS4Xs7ckW5k2VNAd9dG0Chc0uk6rwkv+sD1/zJi8LIGd/3cFjk
biIVYqPxb7WpKqo97V+43tMFsTqJNBSh+6W14vlP55+Ep5IlxcOm
-----END CERTIFICATE-----

subject=/C=US/O=Test Certificates/CN=Different Policies EE Certificate Test8
issuer=/C=US/O=Test Certificates/CN=Policies P12 subsubCAP1P2
-----BEGIN CERTIFICATE-----
MIICmjCCAgOgAwIBAgIBATANBgkqhkiG9w0BAQUFADBNMQswCQYDVQQGEwJVUzEa
MBgGA1UEChMRVGVzdCBDZXJ0aWZpY2F0ZXMxIjAgBgNVBAMTGVBvbGljaWVzIFAx
MiBzdWJzdWJDQVAxUDIwHhcNMDEwNDE5MTQ1NzIwWhcNMTEwNDE5MTQ1NzIwWjBb
MQswCQYDVQQGEwJVUzEaMBgGA1UEChMRVGVzdCBDZXJ0aWZpY2F0ZXMxMDAuBgNV
BAMTJ0RpZmZlcmVudCBQb2xpY2llcyBFRSBDZXJ0aWZpY2F0ZSBUZXN0ODCBnzAN
BgkqhkiG9w0BAQEFAAOBjQAwgYkCgYEAxJrMY6Ju+VhfX1vaWidfiPUdCuUMy5lF
7s2Vle2r9FOQQ8se76y2jPKssqb3XIIG+VLRlS5GMp8T4t6VgLtE+gqb4mcBuIdV
KMwJtDrYnfNFML4yyCKSvh51ionton2akkJGnJ2POvQ4z7sLXrKKCKcGTWvbVqej
BwfkNvwk9KcCAwEAAaN8MHowHwYDVR0jBBgwFoAUZ+UNjYxsKrtVbS3oIqoES3Mr
iCowHQYDVR0OBBYEFOEf7/tJiP53/PPTMiuw+1ENh3KRMA4GA1UdDwEB/wQEAwIB
9jAXBgNVHSAEEDAOMAwGCmCGSAFlAwIBMAIwDwYDVR0TAQH/BAUwAwEB/zANBgkq
hkiG9w0BAQUFAAOBgQAkAFezJ/Jf3nv9Kuw+VwXEuX91e8e8wClFff+eY0Af+kXl
fvUJnXN2TOh1iBU8C21WkavgIS9o8grJb3hbDpS03Yodnt/0151BiCMdLQI02sFK
mHABJwiZZlLj7peF4avVV4Piw4arjXD7Z1bKYlHOZeTHF1hgS/XINAc8IUsfDQ==
-----END CERTIFICATE-----

Certificate Revocation List (CRL):
        Version 2 (0x1)
        Signature Algorithm: sha1WithRSAEncryption
        Issuer: /C=US/O=Test Certificates/CN=Policies P12 CA
        Last Update: Apr 19 14:57:20 2001 GMT
        Next Update: Apr 19 14:57:20 2011 GMT
        CRL extensions:
            X509v3 Authority Key Identifier: 
                keyid:00:E3:65:E9:81:D4:86:B9:C7:1D:E7:F3:33:39:06:5E:4C:11:A5:F9

            X509v3 CRL Number: 
                1
No Revoked Certificates.
    Signature Algorithm: sha1WithRSAEncryption
        a2:21:e6:6b:0b:99:66:79:2d:86:a7:9b:cd:37:9b:4d:73:1f:
        df:91:63:c4:de:55:15:53:b0:32:ac:c8:3c:bd:96:aa:ae:c9:
        4f:b2:7c:9d:40:d7:f4:5d:99:8e:fa:2b:44:2d:75:ef:01:38:
        86:c8:59:ae:e4:62:e4:83:b4:73:03:34:d1:7f:52:bc:3d:bb:
        77:7e:7c:c9:41:09:4c:08:4f:a9:7f:d9:d9:0f:bc:46:9d:05:
        70:2f:66:0b:d4:0d:80:ec:11:83:4e:1b:90:95:ad:86:02:77:
        e8:19:aa:a6:48:29:a3:9f:36:c3:ec:9a:f5:a4:9a:0b:f5:11:
        1d:72
-----BEGIN X509 CRL-----
MIIBPDCBpgIBATANBgkqhkiG9w0BAQUFADBDMQswCQYDVQQGEwJVUzEaMBgGA1UE
ChMRVGVzdCBDZXJ0aWZpY2F0ZXMxGDAWBgNVBAMTD1BvbGljaWVzIFAxMiBDQRcN
MDEwNDE5MTQ1NzIwWhcNMTEwNDE5MTQ1NzIwWqAvMC0wHwYDVR0jBBgwFoAUAONl
6YHUhrnHHefzMzkGXkwRpfkwCgYDVR0UBAMCAQEwDQYJKoZIhvcNAQEFBQADgYEA
oiHmawuZZnkthqebzTebTXMf35FjxN5VFVOwMqzIPL2Wqq7JT7J8nUDX9F2Zjvor
RC117wE4hshZruRi5IO0cwM00X9SvD27d358yUEJTAhPqX/Z2Q+8Rp0FcC9mC9QN
gOwRg04bkJWthgJ36Bmqpkgpo582w+ya9aSaC/URHXI=
-----END X509 CRL-----

Certificate Revocation List (CRL):
        Version 2 (0x1)
        Signature Algorithm: sha1WithRSAEncryption
        Issuer: /C=US/O=Test Certificates/CN=Policies P12 subCAP1
        Last Update: Apr 19 14:57:20 2001 GMT
        Next Update: Apr 19 14:57:20 2011 GMT
        CRL extensions:
            X509v3 Authority Key Identifier: 
                keyid:42:88:1C:C1:78:B7:43:DA:00:AF:BD:DE:BA:43:A7:E5:B5:61:FF:F2

            X509v3 CRL Number: 
                1
No Revoked Certificates.
    Signature Algorithm: sha1WithRSAEncryption
        38:85:fb:83:ec:f4:d5:e4:42:27:68:d3:d6:5f:c9:d5:60:4a:
        fc:33:39:94:ce:d9:28:71:4e:fe:aa:e6:61:05:6b:1c:42:96:
        56:40:e4:48:e6:96:65:21:17:f2:e6:8e:69:50:6f:44:8f:33:
        a3:8c:28:e9:f5:85:d6:de:55:bb:03:30:02:eb:bc:49:70:3b:
        bb:12:c6:f0:8c:8e:d6:5f:3f:30:aa:58:a9:6a:4e:3e:46:a1:
        f6:76:e7:a8:7d:28:e8:d8:44:32:58:76:88:f0:05:5f:37:27:
        03:28:e0:b3:88:c3:75:41:50:81:c2:fe:04:22:be:ea:4a:2b:
        fc:a1
-----BEGIN X509 CRL-----
MIIBQTCBqwIBATANBgkqhkiG9w0BAQUFADBIMQswCQYDVQQGEwJVUzEaMBgGA1UE
ChMRVGVzdCBDZXJ0aWZpY2F0ZXMxHTAbBgNVBAMTFFBvbGljaWVzIFAxMiBzdWJD
QVAxFw0wMTA0MTkxNDU3MjBaFw0xMTA0MTkxNDU3MjBaoC8wLTAfBgNVHSMEGDAW
gBRCiBzBeLdD2gCvvd66Q6fltWH/8jAKBgNVHRQEAwIBATANBgkqhkiG9w0BAQUF
AAOBgQA4hfuD7PTV5EInaNPWX8nVYEr8MzmUztkocU7+quZhBWscQpZWQORI5pZl
IRfy5o5pUG9EjzOjjCjp9YXW3lW7AzAC67xJcDu7EsbwjI7WXz8wqlipak4+RqH2
dueofSjo2EQyWHaI8AVfNycDKOCziMN1QVCBwv4EIr7qSiv8oQ==
-----END X509 CRL-----

Certificate Revocation List (CRL):
        Version 2 (0x1)
        Signature Algorithm: sha1WithRSAEncryption
        Issuer: /C=US/O=Test Certificates/CN=Policies P12 subsubCAP1P2
        Last Update: Apr 19 14:57:20 2001 GMT
        Next Update: Apr 19 14:57:20 2011 GMT
        CRL extensions:
            X509v3 Authority Key Identifier: 
                keyid:67:E5:0D:8D:8C:6C:2A:BB:55:6D:2D:E8:22:AA:04:4B:73:2B:88:2A

            X509v3 CRL Number: 
                1
No Revoked Certificates.
    Signature Algorithm: sha1WithRSAEncryption
        25:a2:e2:75:db:ff:f0:10:9c:e2:59:90:7c:f9:c6:8e:63:cc:
        d4:d1:19:7e:d4:97:09:0e:ea:09:59:88:13:b4:ec:07:f9:58:
        7d:fd:87:4e:85:00:16:e2:e4:54:c3:ec:fe:0e:bf:f3:ab:59:
        af:49:e4:97:ba:c2:df:6e:45:e9:4f:e9:0e:4a:07:41:85:8e:
        f5:7c:da:c7:21:73:33:37:ff:e1:e0:fc:ae:98:29:f6:04:2d:
        d1:4b:54:a4:fb:ee:17:ae:4d:73:b9:ff:ca:6e:6d:56:c3:27:
        d8:d2:b4:d5:9c:c6:3d:40:48:f9:37:8d:2f:22:bb:55:4f:84:
        07:65
-----BEGIN X509 CRL-----
MIIBRjCBsAIBATANBgkqhkiG9w0BAQUFADBNMQswCQYDVQQGEwJVUzEaMBgGA1UE
ChMRVGVzdCBDZXJ0aWZpY2F0ZXMxIjAgBgNVBAMTGVBvbGljaWVzIFAxMiBzdWJz
dWJDQVAxUDIXDTAxMDQxOTE0NTcyMFoXDTExMDQxOTE0NTcyMFqgLzAtMB8GA1Ud
IwQYMBaAFGflDY2MbCq7VW0t6CKqBEtzK4gqMAoGA1UdFAQDAgEBMA0GCSqGSIb3
DQEBBQUAA4GBACWi4nXb//AQnOJZkHz5xo5jzNTRGX7UlwkO6glZiBO07Af5WH39
h06FABbi5FTD7P4Ov/OrWa9J5Je6wt9uRelP6Q5KB0GFjvV82schczM3/+Hg/K6Y
KfYELdFLVKT77heuTXO5/8pubVbDJ9jStNWcxj1ASPk3jS8iu1VPhAdl
-----END X509 CRL-----

Certificate Revocation List (CRL):
        Version 2 (0x1)
        Signature Algorithm: sha1WithRSAEncryption
        Issuer: /C=US/O=Test Certificates/CN=Trust Anchor
        Last Update: Apr 19 14:57:20 2001 GMT
        Next Update: Apr 19 14:57:20 2011 GMT
        CRL extensions:
            X509v3 Authority Key Identifier: 
                keyid:FB:6C:D4:2D:81:9E:CA:27:7A:9E:0D:B0:3C:EA:9A:BC:87:FF:49:EA

            X509v3 CRL Number: 
                1
Revoked Certificates:
    Serial Number: 68
        Revocation Date: Apr 19 14:57:20 2001 GMT
        CRL entry extensions:
            X509v3 CRL Reason Code: 
                Key Compromise
    Signature Algorithm: sha1WithRSAEncryption
        92:12:c4:34:b4:92:ab:ba:71:6b:74:31:16:ce:ed:25:d6:4b:
        1e:fa:f8:20:1e:9d:d7:7f:30:ed:15:f7:8b:5d:64:9b:dd:31:
        40:e4:55:0f:0c:5f:82:69:63:00:76:a5:cf:9e:c4:5f:f2:53:
        9b:9b:7d:f5:69:1d:74:57:38:70:e5:fb:5b:76:58:c9:ec:31:
        dc:94:1b:02:ee:9d:33:9c:38:4b:29:1d:e1:0c:29:8b:6e:c7:
        bf:a0:e8:40:34:83:cf:ff:9f:cd:b5:f7:d9:4d:a7:9f:2e:bf:
        44:98:6b:f2:d3:fe:a8:20:31:c1:33:76:b7:1c:19:65:4d:b9:
        14:39
-----BEGIN X509 CRL-----
MIIBXTCBxwIBATANBgkqhkiG9w0BAQUFADBAMQswCQYDVQQGEwJVUzEaMBgGA1UE
ChMRVGVzdCBDZXJ0aWZpY2F0ZXMxFTATBgNVBAMTDFRydXN0IEFuY2hvchcNMDEw
NDE5MTQ1NzIwWhcNMTEwNDE5MTQ1NzIwWjAiMCACAWgXDTAxMDQxOTE0NTcyMFow
DDAKBgNVHRUEAwoBAaAvMC0wHwYDVR0jBBgwFoAU+2zULYGeyid6ng2wPOqavIf/
SeowCgYDVR0UBAMCAQEwDQYJKoZIhvcNAQEFBQADgYEAkhLENLSSq7pxa3QxFs7t
JdZLHvr4IB6d138w7RX3i11km90xQORVDwxfgmljAHalz57EX/JTm5t99WkddFc4
cOX7W3ZYyewx3JQbAu6dM5w4Sykd4Qwpi27Hv6DoQDSDz/+fzbX32U2nny6/RJhr
8tP+qCAxwTN2txwZZU25FDk=
-----END X509 CRL-----

