subject=/C=US/O=Test Certificates/CN=inhibitAnyPolicy1 subCA1
issuer=/C=US/O=Test Certificates/CN=inhibitAnyPolicy1 CA
-----BEGIN CERTIFICATE-----
MIICgDCCAemgAwIBAgIBATANBgkqhkiG9w0BAQUFADBIMQswCQYDVQQGEwJVUzEa
MBgGA1UEChMRVGVzdCBDZXJ0aWZpY2F0ZXMxHTAbBgNVBAMTFGluaGliaXRBbnlQ
b2xpY3kxIENBMB4XDTAxMDQxOTE0NTcyMFoXDTExMDQxOTE0NTcyMFowTDELMAkG
A1UEBhMCVVMxGjAYBgNVBAoTEVRlc3QgQ2VydGlmaWNhdGVzMSEwHwYDVQQDExhp
bmhpYml0QW55UG9saWN5MSBzdWJDQTEwgZ8wDQYJKoZIhvcNAQEBBQADgY0AMIGJ
AoGBAMvuM5rrG+hunxSZwR8TVsLND7teVaTAzIxbnJv0xpVvawDeQiN1A+CIdJH8
TUXrgcfdU+E04StBCqDRBr1+DBMt/PuBDS/I2PcKqBuP6sfkSDr/lPYkbRBI8wZ9
87H/ke7seqh7cSVORfqg4KupdEE3i2gxONHlTT/7XV0C5aOlAgMBAAGjdjB0MB8G
A1UdIwQYMBaAFGbbtZTHBcSzPiuRud/IqNBNKzREMB0GA1UdDgQWBBQpIHiUjoSQ
KUJLfKsOgyq+NVs8FTAOBgNVHQ8BAf8EBAMCAQYwEQYDVR0gBAowCDAGBgRVHSAA
MA8GA1UdEwEB/wQFMAMBAf8wDQYJKoZIhvcNAQEFBQADgYEAuKZUyh6gvU8Ab5pl
P79yddRQcx4G1navwUD3YSS7q2rnmqY2ucmHX8H1JsOhQUqvLL81fIqAkWPANAmQ
K4NU/ZSkkjtfTcJy5oYsVXjz0MyLKOwrt52j8MLZsUW/TIf5e57kPbORC7RQhEr+
yMDT6AY3En8iF4h8mqMhwnQnO3U=
-----END CERTIFICATE-----

subject=/C=US/O=Test Certificates/CN=inhibitAnyPolicy EE Certificate Test3
issuer=/C=US/O=Test Certificates/CN=inhibitAnyPolicy1 subCA1
-----BEGIN CERTIFICATE-----
MIIChjCCAe+gAwIBAgIBATANBgkqhkiG9w0BAQUFADBMMQswCQYDVQQGEwJVUzEa
MBgGA1UEChMRVGVzdCBDZXJ0aWZpY2F0ZXMxITAfBgNVBAMTGGluaGliaXRBbnlQ
b2xpY3kxIHN1YkNBMTAeFw0wMTA0MTkxNDU3MjBaFw0xMTA0MTkxNDU3MjBaMFkx
CzAJBgNVBAYTAlVTMRowGAYDVQQKExFUZXN0IENlcnRpZmljYXRlczEuMCwGA1UE
AxMlaW5oaWJpdEFueVBvbGljeSBFRSBDZXJ0aWZpY2F0ZSBUZXN0MzCBnzANBgkq
hkiG9w0BAQEFAAOBjQAwgYkCgYEA5paTjQbj3puhDjZ2oS+VWmYpkB1j3pR42xS6
DZJFysWv18MFWj06Gcb3VAc4DowyPEHzYQuzdaTQASCQLSX9JskU/ohcioVwGiK5
S80dAfcGLSVJsvMROXvlapFvgkhM/qqtvyL0ft/bTTMPPkQMqayQPNiS1j1NIOaj
nLReO+sCAwEAAaNrMGkwHwYDVR0jBBgwFoAUKSB4lI6EkClCS3yrDoMqvjVbPBUw
HQYDVR0OBBYEFFXoqY9k25OSv29Bm8cxsKCX5ASxMA4GA1UdDwEB/wQEAwIE8DAX
BgNVHSAEEDAOMAwGCmCGSAFlAwIBMAEwDQYJKoZIhvcNAQEFBQADgYEARqFA8zrZ
Fv0+U+IKZbMlVa9p1ILSXSsNk+KlwRjgJRk1l3UQtw6G6NfVhKkgNvqgrj7zcfg6
zZuuMCad33y5ysIFZ4ohuBtD19Rq5TEp+UqAqMwaewF7AajpU0h+XnLg8v1uPY0j
a6MimyCJtGwBH9LcptLn/+La3+6ap7ji+nM=
-----END CERTIFICATE-----

subject=/C=US/O=Test Certificates/CN=inhibitAnyPolicy1 CA
issuer=/C=US/O=Test Certificates/CN=Trust Anchor
-----BEGIN CERTIFICATE-----
MIICmTCCAgKgAwIBAgIBPDANBgkqhkiG9w0BAQUFADBAMQswCQYDVQQGEwJVUzEa
MBgGA1UEChMRVGVzdCBDZXJ0aWZpY2F0ZXMxFTATBgNVBAMTDFRydXN0IEFuY2hv
cjAeFw0wMTA0MTkxNDU3MjBaFw0xMTA0MTkxNDU3MjBaMEgxCzAJBgNVBAYTAlVT
MRowGAYDVQQKExFUZXN0IENlcnRpZmljYXRlczEdMBsGA1UEAxMUaW5oaWJpdEFu
eVBvbGljeTEgQ0EwgZ8wDQYJKoZIhvcNAQEBBQADgY0AMIGJAoGBAM97WBxcmLvJ
SCQLpyIPIhnb86f8mT4hWgvgIiFRNZDdlqrMl5D754iGLwoSRYWm6NZzneNuxpXa
sX+q9JyoOc6/7ZQy37w/cp6Elcq77KWgALd2zRbEAbFOtdy216GpPB+3c9I7msQT
W6bbzzGuqbTxaEEvWptSCBqXuFY6FR+XAgMBAAGjgZowgZcwHwYDVR0jBBgwFoAU
+2zULYGeyid6ng2wPOqavIf/SeowHQYDVR0OBBYEFGbbtZTHBcSzPiuRud/IqNBN
KzREMA4GA1UdDwEB/wQEAwIBBjAXBgNVHSAEEDAOMAwGCmCGSAFlAwIBMAEwDwYD
VR0TAQH/BAUwAwEB/zAMBgNVHSQEBTADgAEAMA0GA1UdNgEB/wQDAgEBMA0GCSqG
SIb3DQEBBQUAA4GBAJTqlrUt2/8sAjVasjqUiKDtFgaFp8ueEU93bKb/90sW+uxF
HCyYOqmVYnjKLDGYR0rR9R9hErIFwlqIz3ff2K6cq7ND2uLm8BctGWmvP3s56y7V
CooCKzBgRilaPqsJw12BrGGjZ4CaYx8ov4puyRW11UjrAcWn/8AIWCmIPuzH
-----END CERTIFICATE-----

Certificate Revocation List (CRL):
        Version 2 (0x1)
        Signature Algorithm: sha1WithRSAEncryption
        Issuer: /C=US/O=Test Certificates/CN=inhibitAnyPolicy1 CA
        Last Update: Apr 19 14:57:20 2001 GMT
        Next Update: Apr 19 14:57:20 2011 GMT
        CRL extensions:
            X509v3 Authority Key Identifier: 
                keyid:66:DB:B5:94:C7:05:C4:B3:3E:2B:91:B9:DF:C8:A8:D0:4D:2B:34:44

            X509v3 CRL Number: 
                1
No Revoked Certificates.
    Signature Algorithm: sha1WithRSAEncryption
        03:a6:22:4b:c0:43:a0:ed:e5:8e:d1:8b:0b:d2:cc:b6:8b:9b:
        21:e8:fc:2f:84:a1:cd:3c:a0:bf:73:be:9a:00:f2:b4:90:e5:
        15:a0:31:87:2b:61:f0:cd:3e:ad:db:d8:2d:91:db:ba:8f:5c:
        fd:95:59:36:0c:ba:0b:f1:79:a9:68:96:a1:2e:14:cc:0b:6a:
        43:93:0a:80:71:b7:3e:8e:3a:da:74:31:5c:1c:ec:82:b9:3c:
        88:ff:6f:51:05:f5:f8:d8:47:c2:9f:3d:3c:5c:98:be:f0:de:
        9d:d8:a6:56:e9:53:62:cd:09:56:91:c7:ea:c8:bb:2e:05:a6:
        38:b5
-----BEGIN X509 CRL-----
MIIBQTCBqwIBATANBgkqhkiG9w0BAQUFADBIMQswCQYDVQQGEwJVUzEaMBgGA1UE
ChMRVGVzdCBDZXJ0aWZpY2F0ZXMxHTAbBgNVBAMTFGluaGliaXRBbnlQb2xpY3kx
IENBFw0wMTA0MTkxNDU3MjBaFw0xMTA0MTkxNDU3MjBaoC8wLTAfBgNVHSMEGDAW
gBRm27WUxwXEsz4rkbnfyKjQTSs0RDAKBgNVHRQEAwIBATANBgkqhkiG9w0BAQUF
AAOBgQADpiJLwEOg7eWO0YsL0sy2i5sh6PwvhKHNPKC/c76aAPK0kOUVoDGHK2Hw
zT6t29gtkdu6j1z9lVk2DLoL8XmpaJahLhTMC2pDkwqAcbc+jjradDFcHOyCuTyI
/29RBfX42EfCnz08XJi+8N6d2KZW6VNizQlWkcfqyLsuBaY4tQ==
-----END X509 CRL-----

Certificate Revocation List (CRL):
        Version 2 (0x1)
        Signature Algorithm: sha1WithRSAEncryption
        Issuer: /C=US/O=Test Certificates/CN=inhibitAnyPolicy1 subCA1
        Last Update: Apr 19 14:57:20 2001 GMT
        Next Update: Apr 19 14:57:20 2011 GMT
        CRL extensions:
            X509v3 Authority Key Identifier: 
                keyid:29:20:78:94:8E:84:90:29:42:4B:7C:AB:0E:83:2A:BE:35:5B:3C:15

            X509v3 CRL Number: 
                1
No Revoked Certificates.
    Signature Algorithm: sha1WithRSAEncryption
        75:3b:42:7f:44:c5:fa:ab:b2:c4:63:ac:10:89:84:e0:50:32:
        4b:96:80:48:15:1d:19:1c:b8:49:6d:42:c3:4c:b4:bd:a0:29:
        e0:14:56:1a:1d:df:92:90:19:27:a0:b7:f3:1b:7a:32:32:2d:
        cd:ee:29:38:d0:75:8e:8c:51:9d:02:7f:92:a6:af:08:ef:23:
        8e:bc:b2:a6:47:36:d1:9c:e6:dd:4b:05:55:1c:56:47:1a:40:
        67:4b:01:bd:b4:d0:74:12:5a:97:83:20:d5:4e:a7:d2:bb:ad:
        52:a5:ac:13:44:fc:95:1f:d9:70:fa:a2:05:fb:73:e2:9d:15:
        61:ac
-----BEGIN X509 CRL-----
MIIBRTCBrwIBATANBgkqhkiG9w0BAQUFADBMMQswCQYDVQQGEwJVUzEaMBgGA1UE
ChMRVGVzdCBDZXJ0aWZpY2F0ZXMxITAfBgNVBAMTGGluaGliaXRBbnlQb2xpY3kx
IHN1YkNBMRcNMDEwNDE5MTQ1NzIwWhcNMTEwNDE5MTQ1NzIwWqAvMC0wHwYDVR0j
BBgwFoAUKSB4lI6EkClCS3yrDoMqvjVbPBUwCgYDVR0UBAMCAQEwDQYJKoZIhvcN
AQEFBQADgYEAdTtCf0TF+quyxGOsEImE4FAyS5aASBUdGRy4SW1Cw0y0vaAp4BRW
Gh3fkpAZJ6C38xt6MjItze4pONB1joxRnQJ/kqavCO8jjryypkc20Zzm3UsFVRxW
RxpAZ0sBvbTQdBJal4Mg1U6n0rutUqWsE0T8lR/ZcPqiBftz4p0VYaw=
-----END X509 CRL-----

Certificate Revocation List (CRL):
        Version 2 (0x1)
        Signature Algorithm: sha1WithRSAEncryption
        Issuer: /C=US/O=Test Certificates/CN=Trust Anchor
        Last Update: Apr 19 14:57:20 2001 GMT
        Next Update: Apr 19 14:57:20 2011 GMT
        CRL extensions:
            X509v3 Authority Key Identifier: 
                keyid:FB:6C:D4:2D:81:9E:CA:27:7A:9E:0D:B0:3C:EA:9A:BC:87:FF:49:EA

            X509v3 CRL Number: 
                1
Revoked Certificates:
    Serial Number: 68
        Revocation Date: Apr 19 14:57:20 2001 GMT
        CRL entry extensions:
            X509v3 CRL Reason Code: 
                Key Compromise
    Signature Algorithm: sha1WithRSAEncryption
        92:12:c4:34:b4:92:ab:ba:71:6b:74:31:16:ce:ed:25:d6:4b:
        1e:fa:f8:20:1e:9d:d7:7f:30:ed:15:f7:8b:5d:64:9b:dd:31:
        40:e4:55:0f:0c:5f:82:69:63:00:76:a5:cf:9e:c4:5f:f2:53:
        9b:9b:7d:f5:69:1d:74:57:38:70:e5:fb:5b:76:58:c9:ec:31:
        dc:94:1b:02:ee:9d:33:9c:38:4b:29:1d:e1:0c:29:8b:6e:c7:
        bf:a0:e8:40:34:83:cf:ff:9f:cd:b5:f7:d9:4d:a7:9f:2e:bf:
        44:98:6b:f2:d3:fe:a8:20:31:c1:33:76:b7:1c:19:65:4d:b9:
        14:39
-----BEGIN X509 CRL-----
MIIBXTCBxwIBATANBgkqhkiG9w0BAQUFADBAMQswCQYDVQQGEwJVUzEaMBgGA1UE
ChMRVGVzdCBDZXJ0aWZpY2F0ZXMxFTATBgNVBAMTDFRydXN0IEFuY2hvchcNMDEw
NDE5MTQ1NzIwWhcNMTEwNDE5MTQ1NzIwWjAiMCACAWgXDTAxMDQxOTE0NTcyMFow
DDAKBgNVHRUEAwoBAaAvMC0wHwYDVR0jBBgwFoAU+2zULYGeyid6ng2wPOqavIf/
SeowCgYDVR0UBAMCAQEwDQYJKoZIhvcNAQEFBQADgYEAkhLENLSSq7pxa3QxFs7t
JdZLHvr4IB6d138w7RX3i11km90xQORVDwxfgmljAHalz57EX/JTm5t99WkddFc4
cOX7W3ZYyewx3JQbAu6dM5w4Sykd4Qwpi27Hv6DoQDSDz/+fzbX32U2nny6/RJhr
8tP+qCAxwTN2txwZZU25FDk=
-----END X509 CRL-----

