subject=/C=US/O=Test Certificates/OU=onlySomeReasons CA4
issuer=/C=US/O=Test Certificates/CN=Trust Anchor
-----BEGIN CERTIFICATE-----
MIICeTCCAeKgAwIBAgIBUzANBgkqhkiG9w0BAQUFADBAMQswCQYDVQQGEwJVUzEa
MBgGA1UEChMRVGVzdCBDZXJ0aWZpY2F0ZXMxFTATBgNVBAMTDFRydXN0IEFuY2hv
cjAeFw0wMTA0MTkxNDU3MjBaFw0xMTA0MTkxNDU3MjBaMEcxCzAJBgNVBAYTAlVT
MRowGAYDVQQKExFUZXN0IENlcnRpZmljYXRlczEcMBoGA1UECxMTb25seVNvbWVS
ZWFzb25zIENBNDCBnzANBgkqhkiG9w0BAQEFAAOBjQAwgYkCgYEApawx8YRMPlMQ
024rS3sld90L6veeiaILQ6LHaLsGJq3VdzR86qrSqOOIC4riSla8gYRwgMxS4ex2
wjXsRFQbvsG09PcFyRJKJ0NLsY8FiVdShUDwLEohR/cdfL4Z+iCgZdY4iMaILI8a
MHiBRffd7isOjbgUd8JKQ6DM4ercJksCAwEAAaN8MHowHwYDVR0jBBgwFoAU+2zU
LYGeyid6ng2wPOqavIf/SeowHQYDVR0OBBYEFD++QPH3awL7sFnDAKRa4JdUCOkZ
MA4GA1UdDwEB/wQEAwIBBjAXBgNVHSAEEDAOMAwGCmCGSAFlAwIBMAEwDwYDVR0T
AQH/BAUwAwEB/zANBgkqhkiG9w0BAQUFAAOBgQAzmsqTCqqsyknqgNHYbj4aH461
hKTEkZRpMSUHjJwKJWFK4fzqdC8DDlCw9rfmNld7RwxcC3/o0J5v3T4KG3C4s9Rr
eVSmm4Kwvgjmj0tsm0TQbG+B4uLqaFAAmlBTZPYl9ABodUKUP2eKcAL7f98INanN
/veMciSwQ7N4Ku7Zjw==
-----END CERTIFICATE-----

subject=/C=US/O=Test Certificates/CN=Invalid onlySomeReasons EE Certificate Test20
issuer=/C=US/O=Test Certificates/OU=onlySomeReasons CA4
-----BEGIN CERTIFICATE-----
MIIDZDCCAs2gAwIBAgIBAjANBgkqhkiG9w0BAQUFADBHMQswCQYDVQQGEwJVUzEa
MBgGA1UEChMRVGVzdCBDZXJ0aWZpY2F0ZXMxHDAaBgNVBAsTE29ubHlTb21lUmVh
c29ucyBDQTQwHhcNMDEwNDE5MTQ1NzIwWhcNMTEwNDE5MTQ1NzIwWjBhMQswCQYD
VQQGEwJVUzEaMBgGA1UEChMRVGVzdCBDZXJ0aWZpY2F0ZXMxNjA0BgNVBAMTLUlu
dmFsaWQgb25seVNvbWVSZWFzb25zIEVFIENlcnRpZmljYXRlIFRlc3QyMDCBnzAN
BgkqhkiG9w0BAQEFAAOBjQAwgYkCgYEAo/2deWn2P1temSytp9fRh3t+UZIp62k5
iNe1RKLHz08HxSTMrPeCRNnJFp5opbLpQEsUk8xludZeIcWGyLtBTN5w46xk04gh
1Px8Z2+/mnT/ngizwoMvKZf1dqA1/IYacDNHoZB8wlR7iMEa3scvBmFE/B/Ieudc
hxnOxEhEprUCAwEAAaOCAUQwggFAMB8GA1UdIwQYMBaAFD++QPH3awL7sFnDAKRa
4JdUCOkZMB0GA1UdDgQWBBT9Hi+HZ9Okq+jLk3TXM424X5IyqzAOBgNVHQ8BAf8E
BAMCBPAwFwYDVR0gBBAwDjAMBgpghkgBZQMCATABMIHUBgNVHR8EgcwwgckwYqBc
oFqkWDBWMQswCQYDVQQGEwJVUzEaMBgGA1UEChMRVGVzdCBDZXJ0aWZpY2F0ZXMx
HDAaBgNVBAsTE29ubHlTb21lUmVhc29ucyBDQTQxDTALBgNVBAMTBENSTDGBAgVg
MGOgXKBapFgwVjELMAkGA1UEBhMCVVMxGjAYBgNVBAoTEVRlc3QgQ2VydGlmaWNh
dGVzMRwwGgYDVQQLExNvbmx5U29tZVJlYXNvbnMgQ0E0MQ0wCwYDVQQDEwRDUkwy
gQMHn4AwDQYJKoZIhvcNAQEFBQADgYEAEyLMappHZG7NaHTIJRCcyylzQD0od1Bi
cIsRgkSX4W6BWas7pnbYsIaBtY7SX6PU8lcrIBdjUlKUmzZP+0f08ptO5a4ZPaY3
mJ7GjPUXPN8T/P8cfpU5A3AlaLam894aWe2vJuwmNlrEs6I0mP20WbXkYjmg2qzP
joyjMV62Zb4=
-----END CERTIFICATE-----

Certificate Revocation List (CRL):
        Version 2 (0x1)
        Signature Algorithm: sha1WithRSAEncryption
        Issuer: /C=US/O=Test Certificates/CN=Trust Anchor
        Last Update: Apr 19 14:57:20 2001 GMT
        Next Update: Apr 19 14:57:20 2011 GMT
        CRL extensions:
            X509v3 Authority Key Identifier: 
                keyid:FB:6C:D4:2D:81:9E:CA:27:7A:9E:0D:B0:3C:EA:9A:BC:87:FF:49:EA

            X509v3 CRL Number: 
                1
Revoked Certificates:
    Serial Number: 68
        Revocation Date: Apr 19 14:57:20 2001 GMT
        CRL entry extensions:
            X509v3 CRL Reason Code: 
                Key Compromise
    Signature Algorithm: sha1WithRSAEncryption
        92:12:c4:34:b4:92:ab:ba:71:6b:74:31:16:ce:ed:25:d6:4b:
        1e:fa:f8:20:1e:9d:d7:7f:30:ed:15:f7:8b:5d:64:9b:dd:31:
        40:e4:55:0f:0c:5f:82:69:63:00:76:a5:cf:9e:c4:5f:f2:53:
        9b:9b:7d:f5:69:1d:74:57:38:70:e5:fb:5b:76:58:c9:ec:31:
        dc:94:1b:02:ee:9d:33:9c:38:4b:29:1d:e1:0c:29:8b:6e:c7:
        bf:a0:e8:40:34:83:cf:ff:9f:cd:b5:f7:d9:4d:a7:9f:2e:bf:
        44:98:6b:f2:d3:fe:a8:20:31:c1:33:76:b7:1c:19:65:4d:b9:
        14:39
-----BEGIN X509 CRL-----
MIIBXTCBxwIBATANBgkqhkiG9w0BAQUFADBAMQswCQYDVQQGEwJVUzEaMBgGA1UE
ChMRVGVzdCBDZXJ0aWZpY2F0ZXMxFTATBgNVBAMTDFRydXN0IEFuY2hvchcNMDEw
NDE5MTQ1NzIwWhcNMTEwNDE5MTQ1NzIwWjAiMCACAWgXDTAxMDQxOTE0NTcyMFow
DDAKBgNVHRUEAwoBAaAvMC0wHwYDVR0jBBgwFoAU+2zULYGeyid6ng2wPOqavIf/
SeowCgYDVR0UBAMCAQEwDQYJKoZIhvcNAQEFBQADgYEAkhLENLSSq7pxa3QxFs7t
JdZLHvr4IB6d138w7RX3i11km90xQORVDwxfgmljAHalz57EX/JTm5t99WkddFc4
cOX7W3ZYyewx3JQbAu6dM5w4Sykd4Qwpi27Hv6DoQDSDz/+fzbX32U2nny6/RJhr
8tP+qCAxwTN2txwZZU25FDk=
-----END X509 CRL-----

Certificate Revocation List (CRL):
        Version 2 (0x1)
        Signature Algorithm: sha1WithRSAEncryption
        Issuer: /C=US/O=Test Certificates/OU=onlySomeReasons CA4
        Last Update: Apr 19 14:57:20 2001 GMT
        Next Update: Apr 19 14:57:20 2011 GMT
        CRL extensions:
            X509v3 Authority Key Identifier: 
                keyid:3F:BE:40:F1:F7:6B:02:FB:B0:59:C3:00:A4:5A:E0:97:54:08:E9:19

            X509v3 CRL Number: 
                1
            2.5.29.28: critical
                0b.\.Z.X0V1.0...U....US1.0...U.
..Test Certificates1.0...U....onlySomeReasons CA410...U....CRL1...`
Revoked Certificates:
    Serial Number: 02
        Revocation Date: Apr 19 14:57:20 2001 GMT
        CRL entry extensions:
            X509v3 CRL Reason Code: 
                Key Compromise
    Signature Algorithm: sha1WithRSAEncryption
        0c:c9:cf:ae:6b:51:3a:d8:ee:4f:85:3b:a7:18:30:00:6c:cd:
        0f:1a:59:06:50:fd:75:49:44:9a:af:71:a5:74:ca:25:02:e1:
        fe:c2:0b:15:f4:db:0a:8c:7f:ca:9b:de:cd:bf:1a:2d:3e:10:
        1a:a9:4a:9b:a9:64:75:01:1c:dc:26:b2:f6:ab:2f:d2:7b:3d:
        01:f6:fb:64:a4:c8:53:65:b2:80:5a:1d:22:e7:3b:9c:12:92:
        96:01:0d:74:83:d2:72:c3:a6:34:cb:54:bc:75:c4:34:12:c1:
        4e:40:2e:e1:28:d7:ea:6d:c1:9a:4b:80:dc:2d:7c:7c:a5:a7:
        28:75
-----BEGIN X509 CRL-----
MIIB1zCCAUACAQEwDQYJKoZIhvcNAQEFBQAwRzELMAkGA1UEBhMCVVMxGjAYBgNV
BAoTEVRlc3QgQ2VydGlmaWNhdGVzMRwwGgYDVQQLExNvbmx5U29tZVJlYXNvbnMg
Q0E0Fw0wMTA0MTkxNDU3MjBaFw0xMTA0MTkxNDU3MjBaMCIwIAIBAhcNMDEwNDE5
MTQ1NzIwWjAMMAoGA1UdFQQDCgEBoIGgMIGdMB8GA1UdIwQYMBaAFD++QPH3awL7
sFnDAKRa4JdUCOkZMAoGA1UdFAQDAgEBMG4GA1UdHAEB/wRkMGKgXKBapFgwVjEL
MAkGA1UEBhMCVVMxGjAYBgNVBAoTEVRlc3QgQ2VydGlmaWNhdGVzMRwwGgYDVQQL
ExNvbmx5U29tZVJlYXNvbnMgQ0E0MQ0wCwYDVQQDEwRDUkwxgwIFYDANBgkqhkiG
9w0BAQUFAAOBgQAMyc+ua1E62O5PhTunGDAAbM0PGlkGUP11SUSar3GldMolAuH+
wgsV9NsKjH/Km97NvxotPhAaqUqbqWR1ARzcJrL2qy/Sez0B9vtkpMhTZbKAWh0i
5zucEpKWAQ10g9Jyw6Y0y1S8dcQ0EsFOQC7hKNfqbcGaS4DcLXx8pacodQ==
-----END X509 CRL-----

Certificate Revocation List (CRL):
        Version 2 (0x1)
        Signature Algorithm: sha1WithRSAEncryption
        Issuer: /C=US/O=Test Certificates/OU=onlySomeReasons CA4
        Last Update: Apr 19 14:57:20 2001 GMT
        Next Update: Apr 19 14:57:20 2011 GMT
        CRL extensions:
            X509v3 Authority Key Identifier: 
                keyid:3F:BE:40:F1:F7:6B:02:FB:B0:59:C3:00:A4:5A:E0:97:54:08:E9:19

            X509v3 CRL Number: 
                1
            2.5.29.28: critical
                0c.\.Z.X0V1.0...U....US1.0...U.
..Test Certificates1.0...U....onlySomeReasons CA410...U....CRL2.....
Revoked Certificates:
    Serial Number: 03
        Revocation Date: Apr 19 14:57:20 2001 GMT
        CRL entry extensions:
            X509v3 CRL Reason Code: 
                Affiliation Changed
    Signature Algorithm: sha1WithRSAEncryption
        3d:11:d9:b5:4a:98:2e:f6:01:84:ec:e5:d7:d5:20:45:06:18:
        19:5e:18:1b:89:27:c3:fc:7a:ea:a7:3e:3d:bc:ff:26:f1:69:
        90:73:a1:2f:d6:0e:82:36:1b:f7:98:7d:26:2f:07:86:05:58:
        b4:5f:ce:84:6d:ef:4a:51:e8:40:4a:51:b2:57:46:b6:76:e1:
        8f:0e:b8:03:16:88:72:c3:88:74:74:76:38:1d:44:87:88:c2:
        a5:ce:34:cb:a9:bf:a1:6f:e9:96:e3:a7:ab:3f:be:a5:60:b2:
        4b:e2:bb:f8:1b:84:4e:eb:69:ae:01:f2:5a:e9:78:9d:ac:38:
        45:4d
-----BEGIN X509 CRL-----
MIIB2DCCAUECAQEwDQYJKoZIhvcNAQEFBQAwRzELMAkGA1UEBhMCVVMxGjAYBgNV
BAoTEVRlc3QgQ2VydGlmaWNhdGVzMRwwGgYDVQQLExNvbmx5U29tZVJlYXNvbnMg
Q0E0Fw0wMTA0MTkxNDU3MjBaFw0xMTA0MTkxNDU3MjBaMCIwIAIBAxcNMDEwNDE5
MTQ1NzIwWjAMMAoGA1UdFQQDCgEDoIGhMIGeMB8GA1UdIwQYMBaAFD++QPH3awL7
sFnDAKRa4JdUCOkZMAoGA1UdFAQDAgEBMG8GA1UdHAEB/wRlMGOgXKBapFgwVjEL
MAkGA1UEBhMCVVMxGjAYBgNVBAoTEVRlc3QgQ2VydGlmaWNhdGVzMRwwGgYDVQQL
ExNvbmx5U29tZVJlYXNvbnMgQ0E0MQ0wCwYDVQQDEwRDUkwygwMHn4AwDQYJKoZI
hvcNAQEFBQADgYEAPRHZtUqYLvYBhOzl19UgRQYYGV4YG4knw/x66qc+Pbz/JvFp
kHOhL9YOgjYb95h9Ji8HhgVYtF/OhG3vSlHoQEpRsldGtnbhjw64AxaIcsOIdHR2
OB1Eh4jCpc40y6m/oW/pluOnqz++pWCyS+K7+BuETutprgHyWul4naw4RU0=
-----END X509 CRL-----

