subject=/C=US/O=Test Certificates/OU=excludedSubtree1/CN=Invalid DN nameConstraints EE Certificate Test15
issuer=/C=US/O=Test Certificates/CN=nameConstraints DN3 subCA1
-----BEGIN CERTIFICATE-----
MIICrjCCAhegAwIBAgIBATANBgkqhkiG9w0BAQUFADBOMQswCQYDVQQGEwJVUzEa
MBgGA1UEChMRVGVzdCBDZXJ0aWZpY2F0ZXMxIzAhBgNVBAMTGm5hbWVDb25zdHJh
aW50cyBETjMgc3ViQ0ExMB4XDTAxMDQxOTE0NTcyMFoXDTExMDQxOTE0NTcyMFow
fzELMAkGA1UEBhMCVVMxGjAYBgNVBAoTEVRlc3QgQ2VydGlmaWNhdGVzMRkwFwYD
VQQLExBleGNsdWRlZFN1YnRyZWUxMTkwNwYDVQQDEzBJbnZhbGlkIEROIG5hbWVD
b25zdHJhaW50cyBFRSBDZXJ0aWZpY2F0ZSBUZXN0MTUwgZ8wDQYJKoZIhvcNAQEB
BQADgY0AMIGJAoGBALLQPz8+2Ja6+sIASgBJ/ylBL061WtWS7vJK/LRNLFf9MyYG
VjXkjZyk9ZzlafhinCiXgrG77RGH8mVjuSwDNewt+DGGphh4dSnvg/MHRdi+NdSX
hjVOzH76HO6U0iKSSQCvNPSlTJrPWQkZDfj6AGO+5Pmn5RXRX7vwRuKDSsAdAgMB
AAGjazBpMB8GA1UdIwQYMBaAFK2SFB0uK9H4irG3IS5+jhlpPDR1MB0GA1UdDgQW
BBSpk2fPoInUxlgPeiQDw8iOa8Xp6DAOBgNVHQ8BAf8EBAMCBPAwFwYDVR0gBBAw
DjAMBgpghkgBZQMCATABMA0GCSqGSIb3DQEBBQUAA4GBACfYnz7Xr82ytcccJe6v
+1rv6v8SSi/dupn3lA8ZLFPQiM8Ep2kf5XkmrQCHk498pBRQJirzWX20QQSTv83B
M9DG721LCvFZuFB17sf03DMGDXw4ISy3bs+3I87HwHyziC9OtryWACWfZ2lAGUpD
V3U25s5CA62+qbg1jhc5LAKq
-----END CERTIFICATE-----

subject=/C=US/O=Test Certificates/CN=nameConstraints DN3 CA
issuer=/C=US/O=Test Certificates/CN=Trust Anchor
-----BEGIN CERTIFICATE-----
MIIC2DCCAkGgAwIBAgIBQDANBgkqhkiG9w0BAQUFADBAMQswCQYDVQQGEwJVUzEa
MBgGA1UEChMRVGVzdCBDZXJ0aWZpY2F0ZXMxFTATBgNVBAMTDFRydXN0IEFuY2hv
cjAeFw0wMTA0MTkxNDU3MjBaFw0xMTA0MTkxNDU3MjBaMEoxCzAJBgNVBAYTAlVT
MRowGAYDVQQKExFUZXN0IENlcnRpZmljYXRlczEfMB0GA1UEAxMWbmFtZUNvbnN0
cmFpbnRzIEROMyBDQTCBnzANBgkqhkiG9w0BAQEFAAOBjQAwgYkCgYEAti5Odfo3
pSf6p8iGjNMBwSlKozpyyMbXSxEjpiDvuZpllmjLqoXe6tiWiee19xCly8MnbxXl
4Pc6BglZNZd+adRIlPrFUPIVmBM51RJLvzQKjiTRPwrPwsJnizD9KLcr0Kf+e9Gi
LHBlqZM41/0oBCVuAX/5Y5zNNiFhFeOnkNECAwEAAaOB1zCB1DAfBgNVHSMEGDAW
gBT7bNQtgZ7KJ3qeDbA86pq8h/9J6jAdBgNVHQ4EFgQUi+O4WFafA2rfPdgHO7MH
NuHLtsowDgYDVR0PAQH/BAQDAgEGMBcGA1UdIAQQMA4wDAYKYIZIAWUDAgEwATAP
BgNVHRMBAf8EBTADAQH/MFgGA1UdHgEB/wROMEyhSjBIpEYwRDELMAkGA1UEBhMC
VVMxGjAYBgNVBAoTEVRlc3QgQ2VydGlmaWNhdGVzMRkwFwYDVQQLExBleGNsdWRl
ZFN1YnRyZWUxMA0GCSqGSIb3DQEBBQUAA4GBALkukW5Jb4GxdEYN7MeIVxnZX8fn
4Ulh/l6uDFKi+R8UZyMWYp0oi5F0sYQrrsjBwpg/ivfpJtxLh1uMEAWp98vMQPFZ
Hoo+ma1Ulfh6qAGv8C6EgA5sxWuNO0VrZsMbNsQeqVLXKvkBsYxrUAHXBd5ufqEA
Wofw3VBcFpqgolnA
-----END CERTIFICATE-----

subject=/C=US/O=Test Certificates/CN=nameConstraints DN3 subCA1
issuer=/C=US/O=Test Certificates/CN=nameConstraints DN3 CA
-----BEGIN CERTIFICATE-----
MIIC5jCCAk+gAwIBAgIBAzANBgkqhkiG9w0BAQUFADBKMQswCQYDVQQGEwJVUzEa
MBgGA1UEChMRVGVzdCBDZXJ0aWZpY2F0ZXMxHzAdBgNVBAMTFm5hbWVDb25zdHJh
aW50cyBETjMgQ0EwHhcNMDEwNDE5MTQ1NzIwWhcNMTEwNDE5MTQ1NzIwWjBOMQsw
CQYDVQQGEwJVUzEaMBgGA1UEChMRVGVzdCBDZXJ0aWZpY2F0ZXMxIzAhBgNVBAMT
Gm5hbWVDb25zdHJhaW50cyBETjMgc3ViQ0ExMIGfMA0GCSqGSIb3DQEBAQUAA4GN
ADCBiQKBgQCmh9zeM9BeyKndgrRFYNxn7+qDC4AKVdFmpv1ciqlk3RwU04FCEhC9
kN1hhqnghWi2XzHZ67kQD/azFMLQZU1b0JTg062pMox1ezyVsZCejrXUK8kMHEnW
SNSHkU6KnrSC4aHU5jSV8T2uANRsR0wQ80iBfuq+XcyF3r8jVsbpqQIDAQABo4HX
MIHUMB8GA1UdIwQYMBaAFIvjuFhWnwNq3z3YBzuzBzbhy7bKMB0GA1UdDgQWBBSt
khQdLivR+IqxtyEufo4ZaTw0dTAOBgNVHQ8BAf8EBAMCAQYwFwYDVR0gBBAwDjAM
BgpghkgBZQMCATABMA8GA1UdEwEB/wQFMAMBAf8wWAYDVR0eAQH/BE4wTKFKMEik
RjBEMQswCQYDVQQGEwJVUzEaMBgGA1UEChMRVGVzdCBDZXJ0aWZpY2F0ZXMxGTAX
BgNVBAsTEGV4Y2x1ZGVkU3VidHJlZTIwDQYJKoZIhvcNAQEFBQADgYEATe1pMNm0
Ae3tuDLPpXrBaSog47WFgLklqGnB7xH9+4x4SGehRirWS/0TH839Rbb/rmp0XptG
ECuOUS+tqrhiMPYmWxv65XMpPfwKHjxj9etcu/MgXytG7l1kFwuHP08zu43BEqRS
JY0NuHpCTzI4Natc8cB3JTktdUOAF2P22c0=
-----END CERTIFICATE-----

Certificate Revocation List (CRL):
        Version 2 (0x1)
        Signature Algorithm: sha1WithRSAEncryption
        Issuer: /C=US/O=Test Certificates/CN=nameConstraints DN3 CA
        Last Update: Apr 19 14:57:20 2001 GMT
        Next Update: Apr 19 14:57:20 2011 GMT
        CRL extensions:
            X509v3 Authority Key Identifier: 
                keyid:8B:E3:B8:58:56:9F:03:6A:DF:3D:D8:07:3B:B3:07:36:E1:CB:B6:CA

            X509v3 CRL Number: 
                1
No Revoked Certificates.
    Signature Algorithm: sha1WithRSAEncryption
        a9:3e:f9:c3:5c:b0:eb:85:59:db:c9:72:3e:b4:2b:30:6d:22:
        dc:9c:9f:fc:8a:ad:9b:1d:48:b0:19:9f:47:3e:d2:44:6c:3d:
        c4:6c:03:bb:82:6c:26:85:eb:7f:1d:9c:48:93:a0:9c:66:25:
        85:b1:5e:fe:71:a3:d6:2d:4d:c0:cb:3f:1a:46:fe:ea:31:8a:
        db:d2:1d:f5:0f:b3:48:ad:0b:48:0a:b4:19:cd:e9:c5:5d:17:
        6a:3f:f8:bc:99:39:5b:29:88:2d:7d:0f:b4:be:94:e6:8e:a1:
        7e:12:31:2a:46:f9:3c:1f:d1:c2:69:c3:be:62:f4:bb:b0:6b:
        16:a2
-----BEGIN X509 CRL-----
MIIBQzCBrQIBATANBgkqhkiG9w0BAQUFADBKMQswCQYDVQQGEwJVUzEaMBgGA1UE
ChMRVGVzdCBDZXJ0aWZpY2F0ZXMxHzAdBgNVBAMTFm5hbWVDb25zdHJhaW50cyBE
TjMgQ0EXDTAxMDQxOTE0NTcyMFoXDTExMDQxOTE0NTcyMFqgLzAtMB8GA1UdIwQY
MBaAFIvjuFhWnwNq3z3YBzuzBzbhy7bKMAoGA1UdFAQDAgEBMA0GCSqGSIb3DQEB
BQUAA4GBAKk++cNcsOuFWdvJcj60KzBtItycn/yKrZsdSLAZn0c+0kRsPcRsA7uC
bCaF638dnEiToJxmJYWxXv5xo9YtTcDLPxpG/uoxitvSHfUPs0itC0gKtBnN6cVd
F2o/+LyZOVspiC19D7S+lOaOoX4SMSpG+Twf0cJpw75i9Luwaxai
-----END X509 CRL-----

Certificate Revocation List (CRL):
        Version 2 (0x1)
        Signature Algorithm: sha1WithRSAEncryption
        Issuer: /C=US/O=Test Certificates/CN=nameConstraints DN3 subCA1
        Last Update: Apr 19 14:57:20 2001 GMT
        Next Update: Apr 19 14:57:20 2011 GMT
        CRL extensions:
            X509v3 Authority Key Identifier: 
                keyid:AD:92:14:1D:2E:2B:D1:F8:8A:B1:B7:21:2E:7E:8E:19:69:3C:34:75

            X509v3 CRL Number: 
                1
No Revoked Certificates.
    Signature Algorithm: sha1WithRSAEncryption
        2e:dc:3c:fd:cc:c2:50:20:4a:d3:de:11:60:93:75:ef:28:af:
        87:35:19:c7:47:5e:f2:c0:73:35:5c:47:4a:bd:54:84:f9:04:
        30:4c:a1:32:27:85:14:cb:ca:72:9e:77:70:14:ac:20:72:a9:
        d2:6f:50:b2:ae:b4:29:03:fe:00:c4:92:96:14:68:81:b3:d2:
        dd:60:41:d5:ee:d5:66:db:b4:f0:d4:5f:a0:6c:93:d8:3e:e7:
        a2:59:90:af:9f:05:22:b0:1e:f1:67:06:2b:85:eb:dc:a3:16:
        13:ad:74:89:dd:db:2a:71:8d:a8:22:8e:2f:f8:ca:7b:15:f3:
        cf:32
-----BEGIN X509 CRL-----
MIIBRzCBsQIBATANBgkqhkiG9w0BAQUFADBOMQswCQYDVQQGEwJVUzEaMBgGA1UE
ChMRVGVzdCBDZXJ0aWZpY2F0ZXMxIzAhBgNVBAMTGm5hbWVDb25zdHJhaW50cyBE
TjMgc3ViQ0ExFw0wMTA0MTkxNDU3MjBaFw0xMTA0MTkxNDU3MjBaoC8wLTAfBgNV
HSMEGDAWgBStkhQdLivR+IqxtyEufo4ZaTw0dTAKBgNVHRQEAwIBATANBgkqhkiG
9w0BAQUFAAOBgQAu3Dz9zMJQIErT3hFgk3XvKK+HNRnHR17ywHM1XEdKvVSE+QQw
TKEyJ4UUy8pynndwFKwgcqnSb1CyrrQpA/4AxJKWFGiBs9LdYEHV7tVm27Tw1F+g
bJPYPueiWZCvnwUisB7xZwYrhevcoxYTrXSJ3dsqcY2oIo4v+Mp7FfPPMg==
-----END X509 CRL-----

Certificate Revocation List (CRL):
        Version 2 (0x1)
        Signature Algorithm: sha1WithRSAEncryption
        Issuer: /C=US/O=Test Certificates/CN=Trust Anchor
        Last Update: Apr 19 14:57:20 2001 GMT
        Next Update: Apr 19 14:57:20 2011 GMT
        CRL extensions:
            X509v3 Authority Key Identifier: 
                keyid:FB:6C:D4:2D:81:9E:CA:27:7A:9E:0D:B0:3C:EA:9A:BC:87:FF:49:EA

            X509v3 CRL Number: 
                1
Revoked Certificates:
    Serial Number: 68
        Revocation Date: Apr 19 14:57:20 2001 GMT
        CRL entry extensions:
            X509v3 CRL Reason Code: 
                Key Compromise
    Signature Algorithm: sha1WithRSAEncryption
        92:12:c4:34:b4:92:ab:ba:71:6b:74:31:16:ce:ed:25:d6:4b:
        1e:fa:f8:20:1e:9d:d7:7f:30:ed:15:f7:8b:5d:64:9b:dd:31:
        40:e4:55:0f:0c:5f:82:69:63:00:76:a5:cf:9e:c4:5f:f2:53:
        9b:9b:7d:f5:69:1d:74:57:38:70:e5:fb:5b:76:58:c9:ec:31:
        dc:94:1b:02:ee:9d:33:9c:38:4b:29:1d:e1:0c:29:8b:6e:c7:
        bf:a0:e8:40:34:83:cf:ff:9f:cd:b5:f7:d9:4d:a7:9f:2e:bf:
        44:98:6b:f2:d3:fe:a8:20:31:c1:33:76:b7:1c:19:65:4d:b9:
        14:39
-----BEGIN X509 CRL-----
MIIBXTCBxwIBATANBgkqhkiG9w0BAQUFADBAMQswCQYDVQQGEwJVUzEaMBgGA1UE
ChMRVGVzdCBDZXJ0aWZpY2F0ZXMxFTATBgNVBAMTDFRydXN0IEFuY2hvchcNMDEw
NDE5MTQ1NzIwWhcNMTEwNDE5MTQ1NzIwWjAiMCACAWgXDTAxMDQxOTE0NTcyMFow
DDAKBgNVHRUEAwoBAaAvMC0wHwYDVR0jBBgwFoAU+2zULYGeyid6ng2wPOqavIf/
SeowCgYDVR0UBAMCAQEwDQYJKoZIhvcNAQEFBQADgYEAkhLENLSSq7pxa3QxFs7t
JdZLHvr4IB6d138w7RX3i11km90xQORVDwxfgmljAHalz57EX/JTm5t99WkddFc4
cOX7W3ZYyewx3JQbAu6dM5w4Sykd4Qwpi27Hv6DoQDSDz/+fzbX32U2nny6/RJhr
8tP+qCAxwTN2txwZZU25FDk=
-----END X509 CRL-----

