subject=/C=US/O=Test Certificates/CN=Basic Self-Issued CRL Signing Key CA
issuer=/C=US/O=Test Certificates/CN=Trust Anchor
-----BEGIN CERTIFICATE-----
MIICijCCAfOgAwIBAgIBFTANBgkqhkiG9w0BAQUFADBAMQswCQYDVQQGEwJVUzEa
MBgGA1UEChMRVGVzdCBDZXJ0aWZpY2F0ZXMxFTATBgNVBAMTDFRydXN0IEFuY2hv
cjAeFw0wMTA0MTkxNDU3MjBaFw0xMTA0MTkxNDU3MjBaMFgxCzAJBgNVBAYTAlVT
MRowGAYDVQQKExFUZXN0IENlcnRpZmljYXRlczEtMCsGA1UEAxMkQmFzaWMgU2Vs
Zi1Jc3N1ZWQgQ1JMIFNpZ25pbmcgS2V5IENBMIGfMA0GCSqGSIb3DQEBAQUAA4GN
ADCBiQKBgQCfjlwgIWm+Taynv+38GP1Yf2hDPMT5pcsPYlRaeFeg7Tsr/GhTZQKB
qfO7h8J6JjoKD1m1BTcrdiHbRBnn183kxyhljulJLu87gOUt6LlTGTBFeaUhNNxv
wpzF5uQ7xQcChTE7GF4kxt/oyehJFi9TGtnjdjlSi3LXG/xfQn81GwIDAQABo3ww
ejAfBgNVHSMEGDAWgBT7bNQtgZ7KJ3qeDbA86pq8h/9J6jAdBgNVHQ4EFgQUScn8
twM8Z20KAJOp5NalHpIftREwDgYDVR0PAQH/BAQDAgEGMBcGA1UdIAQQMA4wDAYK
YIZIAWUDAgEwATAPBgNVHRMBAf8EBTADAQH/MA0GCSqGSIb3DQEBBQUAA4GBABV8
zJCN9czUhadFLy10H1usL1xGEcB8SRR3Row0a+Zmj8T9Se71hTgW7LfXQj3bCDJV
3AyAd+WA4N0y0+eSRWRGNAcMrOeqNp1/Ki6iGNYceZ41Goudsc34StO7symFfatg
hTr8/7eU6NXu2o9cDREBOJujBK/Uy52E4rx/Faxk
-----END CERTIFICATE-----

subject=/C=US/O=Test Certificates/CN=Invalid Basic Self-Issued CRL Signing Key EE Certificate Test8
issuer=/C=US/O=Test Certificates/CN=Basic Self-Issued CRL Signing Key CA
-----BEGIN CERTIFICATE-----
MIICqzCCAhSgAwIBAgIBBDANBgkqhkiG9w0BAQUFADBYMQswCQYDVQQGEwJVUzEa
MBgGA1UEChMRVGVzdCBDZXJ0aWZpY2F0ZXMxLTArBgNVBAMTJEJhc2ljIFNlbGYt
SXNzdWVkIENSTCBTaWduaW5nIEtleSBDQTAeFw0wMTA0MTkxNDU3MjBaFw0xMTA0
MTkxNDU3MjBaMHIxCzAJBgNVBAYTAlVTMRowGAYDVQQKExFUZXN0IENlcnRpZmlj
YXRlczFHMEUGA1UEAxM+SW52YWxpZCBCYXNpYyBTZWxmLUlzc3VlZCBDUkwgU2ln
bmluZyBLZXkgRUUgQ2VydGlmaWNhdGUgVGVzdDgwgZ8wDQYJKoZIhvcNAQEBBQAD
gY0AMIGJAoGBAKvhIgfCe7osai3K6RoZSmpIrNAB/YJ7ImOrOZihxenRuEczoaGn
0dC3ajSeX3sg2RIomf4JTDpzcBM2swr8JOcChUwnFzOZ/Fz6Q6OREST65hRxXECk
GbkjgRrFnTgv3/s/v9Ilt/GbdIcgBxJ1797Fr+rOEDkwld4TGgIAIOO/AgMBAAGj
azBpMB8GA1UdIwQYMBaAFA9yyjNDqcQRUatj2kSHD2Gk9L5HMB0GA1UdDgQWBBRx
0uz3/5i8F8pGl1n7xes8mS3ymzAOBgNVHQ8BAf8EBAMCBPAwFwYDVR0gBBAwDjAM
BgpghkgBZQMCATABMA0GCSqGSIb3DQEBBQUAA4GBABvl4GhXI+6jjTcXaeraQVtN
9WsB0kIXPXptGui6yVAMTsB6MhCgqlhY3xihDUJIIXRy1oV4efSfFO7UbRWOoN5T
MikwqCAVoLnl3KAZZ4qXuwi6+OIUSXx0m8CfPRNAYdEAHCHJT+KFR8wtY4eAgyVw
ZVhFDwnSxbqX6ThJ5wdN
-----END CERTIFICATE-----

subject=/C=US/O=Test Certificates/CN=Basic Self-Issued CRL Signing Key CA
issuer=/C=US/O=Test Certificates/CN=Basic Self-Issued CRL Signing Key CA
-----BEGIN CERTIFICATE-----
MIIDGTCCAoKgAwIBAgIBATANBgkqhkiG9w0BAQUFADBYMQswCQYDVQQGEwJVUzEa
MBgGA1UEChMRVGVzdCBDZXJ0aWZpY2F0ZXMxLTArBgNVBAMTJEJhc2ljIFNlbGYt
SXNzdWVkIENSTCBTaWduaW5nIEtleSBDQTAeFw0wMTA0MTkxNDU3MjBaFw0xMTA0
MTkxNDU3MjBaMFgxCzAJBgNVBAYTAlVTMRowGAYDVQQKExFUZXN0IENlcnRpZmlj
YXRlczEtMCsGA1UEAxMkQmFzaWMgU2VsZi1Jc3N1ZWQgQ1JMIFNpZ25pbmcgS2V5
IENBMIGfMA0GCSqGSIb3DQEBAQUAA4GNADCBiQKBgQCXGyrLR0BviK/81C9C/igI
9zh+808dGICz2wS1Oh2CWCeYia4J/65Y7XBDRBW1TJbQLdrxt2289Lc/gc9+PW9j
gwVpGRuYkFf+AwbMgLa1Ro5zqoIbD7WjTu7vgGdDvJmrSVLfSXavpeUBzp37Dsw6
KzSHcBjPwGes7q3pjfhOMwIDAQABo4HyMIHvMB8GA1UdIwQYMBaAFEnJ/LcDPGdt
CgCTqeTWpR6SH7URMB0GA1UdDgQWBBQPcsozQ6nEEVGrY9pEhw9hpPS+RzAOBgNV
HQ8BAf8EBAMCAQIwFwYDVR0gBBAwDjAMBgpghkgBZQMCATABMIGDBgNVHR8EfDB6
MHigdqB0pHIwcDELMAkGA1UEBhMCVVMxGjAYBgNVBAoTEVRlc3QgQ2VydGlmaWNh
dGVzMUUwQwYDVQQDEzxTZWxmLUlzc3VlZCBDZXJ0IERQIGZvciBCYXNpYyBTZWxm
LUlzc3VlZCBDUkwgU2lnbmluZyBLZXkgQ0EwDQYJKoZIhvcNAQEFBQADgYEAjoyS
h7zhrGkL40stundacKPqIEZ3HyWW0NQhD0wBhWslGAOvlCaf44kuTKggRY6r96sy
4kWEjvfGu/r/dBgrFaCCGNv0ui5FfXu8WeZ4jvHg7wZbx5ATx5Jpumqbm0PcEYCr
YnA6WBCstG0lohNV2ohM/wqRFmBB0WL1K+9IdfQ=
-----END CERTIFICATE-----

Certificate Revocation List (CRL):
        Version 2 (0x1)
        Signature Algorithm: sha1WithRSAEncryption
        Issuer: /C=US/O=Test Certificates/CN=Trust Anchor
        Last Update: Apr 19 14:57:20 2001 GMT
        Next Update: Apr 19 14:57:20 2011 GMT
        CRL extensions:
            X509v3 Authority Key Identifier: 
                keyid:FB:6C:D4:2D:81:9E:CA:27:7A:9E:0D:B0:3C:EA:9A:BC:87:FF:49:EA

            X509v3 CRL Number: 
                1
Revoked Certificates:
    Serial Number: 68
        Revocation Date: Apr 19 14:57:20 2001 GMT
        CRL entry extensions:
            X509v3 CRL Reason Code: 
                Key Compromise
    Signature Algorithm: sha1WithRSAEncryption
        92:12:c4:34:b4:92:ab:ba:71:6b:74:31:16:ce:ed:25:d6:4b:
        1e:fa:f8:20:1e:9d:d7:7f:30:ed:15:f7:8b:5d:64:9b:dd:31:
        40:e4:55:0f:0c:5f:82:69:63:00:76:a5:cf:9e:c4:5f:f2:53:
        9b:9b:7d:f5:69:1d:74:57:38:70:e5:fb:5b:76:58:c9:ec:31:
        dc:94:1b:02:ee:9d:33:9c:38:4b:29:1d:e1:0c:29:8b:6e:c7:
        bf:a0:e8:40:34:83:cf:ff:9f:cd:b5:f7:d9:4d:a7:9f:2e:bf:
        44:98:6b:f2:d3:fe:a8:20:31:c1:33:76:b7:1c:19:65:4d:b9:
        14:39
-----BEGIN X509 CRL-----
MIIBXTCBxwIBATANBgkqhkiG9w0BAQUFADBAMQswCQYDVQQGEwJVUzEaMBgGA1UE
ChMRVGVzdCBDZXJ0aWZpY2F0ZXMxFTATBgNVBAMTDFRydXN0IEFuY2hvchcNMDEw
NDE5MTQ1NzIwWhcNMTEwNDE5MTQ1NzIwWjAiMCACAWgXDTAxMDQxOTE0NTcyMFow
DDAKBgNVHRUEAwoBAaAvMC0wHwYDVR0jBBgwFoAU+2zULYGeyid6ng2wPOqavIf/
SeowCgYDVR0UBAMCAQEwDQYJKoZIhvcNAQEFBQADgYEAkhLENLSSq7pxa3QxFs7t
JdZLHvr4IB6d138w7RX3i11km90xQORVDwxfgmljAHalz57EX/JTm5t99WkddFc4
cOX7W3ZYyewx3JQbAu6dM5w4Sykd4Qwpi27Hv6DoQDSDz/+fzbX32U2nny6/RJhr
8tP+qCAxwTN2txwZZU25FDk=
-----END X509 CRL-----

Certificate Revocation List (CRL):
        Version 2 (0x1)
        Signature Algorithm: sha1WithRSAEncryption
        Issuer: /C=US/O=Test Certificates/CN=Basic Self-Issued CRL Signing Key CA
        Last Update: Apr 19 14:57:20 2001 GMT
        Next Update: Apr 19 14:57:20 2011 GMT
        CRL extensions:
            X509v3 Authority Key Identifier: 
                keyid:0F:72:CA:33:43:A9:C4:11:51:AB:63:DA:44:87:0F:61:A4:F4:BE:47

            X509v3 CRL Number: 
                1
Revoked Certificates:
    Serial Number: 03
        Revocation Date: Apr 19 14:57:20 2001 GMT
        CRL entry extensions:
            X509v3 CRL Reason Code: 
                Key Compromise
    Signature Algorithm: sha1WithRSAEncryption
        5c:cd:8f:a3:3d:9e:64:f7:64:73:9c:2c:39:e2:e7:d7:0e:b8:
        1c:3e:9b:1d:14:dc:98:c2:8e:5a:1f:e5:47:31:fd:7e:a7:d5:
        9f:52:31:c8:10:f7:d0:a2:84:3f:77:c7:f1:ba:7e:24:62:ad:
        05:ae:1c:7b:ff:f0:e2:ce:55:f5:27:d3:cc:24:7f:c8:1d:a6:
        b8:ce:42:05:e1:06:ec:1f:87:4c:d5:69:8d:78:59:d2:33:94:
        1c:3b:27:68:80:3d:6f:3d:a6:c7:9f:2b:39:9f:d7:c3:83:eb:
        77:bd:cc:7f:96:b3:ad:24:68:99:d1:1a:bf:05:1c:8c:3e:2a:
        02:f8
-----BEGIN X509 CRL-----
MIIBdTCB3wIBATANBgkqhkiG9w0BAQUFADBYMQswCQYDVQQGEwJVUzEaMBgGA1UE
ChMRVGVzdCBDZXJ0aWZpY2F0ZXMxLTArBgNVBAMTJEJhc2ljIFNlbGYtSXNzdWVk
IENSTCBTaWduaW5nIEtleSBDQRcNMDEwNDE5MTQ1NzIwWhcNMTEwNDE5MTQ1NzIw
WjAiMCACAQMXDTAxMDQxOTE0NTcyMFowDDAKBgNVHRUEAwoBAaAvMC0wHwYDVR0j
BBgwFoAUD3LKM0OpxBFRq2PaRIcPYaT0vkcwCgYDVR0UBAMCAQEwDQYJKoZIhvcN
AQEFBQADgYEAXM2Poz2eZPdkc5wsOeLn1w64HD6bHRTcmMKOWh/lRzH9fqfVn1Ix
yBD30KKEP3fH8bp+JGKtBa4ce//w4s5V9SfTzCR/yB2muM5CBeEG7B+HTNVpjXhZ
0jOUHDsnaIA9bz2mx58rOZ/Xw4Prd73Mf5azrSRomdEavwUcjD4qAvg=
-----END X509 CRL-----

Certificate Revocation List (CRL):
        Version 2 (0x1)
        Signature Algorithm: sha1WithRSAEncryption
        Issuer: /C=US/O=Test Certificates/CN=Basic Self-Issued CRL Signing Key CA
        Last Update: Apr 19 14:57:20 2001 GMT
        Next Update: Apr 19 14:57:20 2011 GMT
        CRL extensions:
            X509v3 Authority Key Identifier: 
                keyid:49:C9:FC:B7:03:3C:67:6D:0A:00:93:A9:E4:D6:A5:1E:92:1F:B5:11

            X509v3 CRL Number: 
                1
            2.5.29.28: critical
                0x.v.t.r0p1.0...U....US1.0...U.
..Test Certificates1E0C..U...<Self-Issued Cert DP for Basic Self-Issued CRL Signing Key CA
No Revoked Certificates.
    Signature Algorithm: sha1WithRSAEncryption
        2e:12:1f:54:36:68:73:b2:5c:f6:11:48:f1:d6:7a:bf:ce:1d:
        d9:21:7a:96:29:44:bc:83:26:d8:8c:f5:11:36:9a:f1:23:78:
        57:00:8b:13:c6:74:57:4d:3d:ba:ee:d4:ac:d4:40:b1:d0:80:
        91:f1:06:81:91:ba:a4:f8:1e:c7:6b:d6:20:3c:92:26:23:94:
        80:33:df:c7:3b:ac:fc:94:ea:e8:3d:d0:37:c1:d5:e9:ba:53:
        83:9e:26:ed:da:fb:10:0a:6e:d8:cd:d7:20:42:2c:d6:7d:18:
        32:6b:75:2a:3c:51:03:dd:4d:a1:80:e6:d8:95:6a:2c:b0:b6:
        72:31
-----BEGIN X509 CRL-----
MIIB2zCCAUQCAQEwDQYJKoZIhvcNAQEFBQAwWDELMAkGA1UEBhMCVVMxGjAYBgNV
BAoTEVRlc3QgQ2VydGlmaWNhdGVzMS0wKwYDVQQDEyRCYXNpYyBTZWxmLUlzc3Vl
ZCBDUkwgU2lnbmluZyBLZXkgQ0EXDTAxMDQxOTE0NTcyMFoXDTExMDQxOTE0NTcy
MFqggbcwgbQwHwYDVR0jBBgwFoAUScn8twM8Z20KAJOp5NalHpIftREwCgYDVR0U
BAMCAQEwgYQGA1UdHAEB/wR6MHigdqB0pHIwcDELMAkGA1UEBhMCVVMxGjAYBgNV
BAoTEVRlc3QgQ2VydGlmaWNhdGVzMUUwQwYDVQQDEzxTZWxmLUlzc3VlZCBDZXJ0
IERQIGZvciBCYXNpYyBTZWxmLUlzc3VlZCBDUkwgU2lnbmluZyBLZXkgQ0EwDQYJ
KoZIhvcNAQEFBQADgYEALhIfVDZoc7Jc9hFI8dZ6v84d2SF6lilEvIMm2Iz1ETaa
8SN4VwCLE8Z0V009uu7UrNRAsdCAkfEGgZG6pPgex2vWIDySJiOUgDPfxzus/JTq
6D3QN8HV6bpTg54m7dr7EApu2M3XIEIs1n0YMmt1KjxRA91NoYDm2JVqLLC2cjE=
-----END X509 CRL-----

