subject=/C=US/O=Test Certificates/CN=onlySomeReasons CA1
issuer=/C=US/O=Test Certificates/CN=Trust Anchor
-----BEGIN CERTIFICATE-----
MIICeTCCAeKgAwIBAgIBUDANBgkqhkiG9w0BAQUFADBAMQswCQYDVQQGEwJVUzEa
MBgGA1UEChMRVGVzdCBDZXJ0aWZpY2F0ZXMxFTATBgNVBAMTDFRydXN0IEFuY2hv
cjAeFw0wMTA0MTkxNDU3MjBaFw0xMTA0MTkxNDU3MjBaMEcxCzAJBgNVBAYTAlVT
MRowGAYDVQQKExFUZXN0IENlcnRpZmljYXRlczEcMBoGA1UEAxMTb25seVNvbWVS
ZWFzb25zIENBMTCBnzANBgkqhkiG9w0BAQEFAAOBjQAwgYkCgYEAqY5YemfCgwOg
IB+hdOlRZFTinhkf1OaHBpkEgH6r2jJPiuhXh30ZT2TwX9aBiEGnnKuHuZmwGUK/
DCnAfvpZ621Oo7LXsNQFtGDYrh8Rfu93TxunsJNZQ9ZXWEcIjot4YGkbOO8Nu0il
Z/zLKJKQUSKKBW/5glVtiynAaixm6k0CAwEAAaN8MHowHwYDVR0jBBgwFoAU+2zU
LYGeyid6ng2wPOqavIf/SeowHQYDVR0OBBYEFOBimt8FUL0fD1sYSf6+cB3M3Dlu
MA4GA1UdDwEB/wQEAwIBBjAXBgNVHSAEEDAOMAwGCmCGSAFlAwIBMAEwDwYDVR0T
AQH/BAUwAwEB/zANBgkqhkiG9w0BAQUFAAOBgQCbnkFzDActclPpCRyu9PWbUrnQ
ZU76d5EXV40N6ma0OBngkU+7TJgmUNS2anUuxF51tkeYvMlqADT7KijrN/rGSipZ
yVR/ds2UaXdbfIfuFOs5TuVeClJ21BkYQgrmZ90/ti2fgIKn+cA1MQcnthtmtGJx
1JuSgthIOVfbeMWdCQ==
-----END CERTIFICATE-----

subject=/C=US/O=Test Certificates/CN=Invalid onlySomeReasons EE Certificate Test16
issuer=/C=US/O=Test Certificates/CN=onlySomeReasons CA1
-----BEGIN CERTIFICATE-----
MIICiTCCAfKgAwIBAgIBAjANBgkqhkiG9w0BAQUFADBHMQswCQYDVQQGEwJVUzEa
MBgGA1UEChMRVGVzdCBDZXJ0aWZpY2F0ZXMxHDAaBgNVBAMTE29ubHlTb21lUmVh
c29ucyBDQTEwHhcNMDEwNDE5MTQ1NzIwWhcNMTEwNDE5MTQ1NzIwWjBhMQswCQYD
VQQGEwJVUzEaMBgGA1UEChMRVGVzdCBDZXJ0aWZpY2F0ZXMxNjA0BgNVBAMTLUlu
dmFsaWQgb25seVNvbWVSZWFzb25zIEVFIENlcnRpZmljYXRlIFRlc3QxNjCBnzAN
BgkqhkiG9w0BAQEFAAOBjQAwgYkCgYEAlmAr5pfd8vA/RDJSfo8qPEDAbLwbxhVf
lv1WYCncGfhiyC77BYzSvBHiEp+84tJW6lBUUEewGRBDKerNZAnqkirYwLYccwav
76qQJnSFTKmjDS7BofPWH8/bVZXjwjGikKAChuVcBykwZt9zOhFCM4y5wUv1IEHe
iiDpoHEIPqsCAwEAAaNrMGkwHwYDVR0jBBgwFoAU4GKa3wVQvR8PWxhJ/r5wHczc
OW4wHQYDVR0OBBYEFJdQKB8LbKa2dsGgu3qroJY+rlmzMA4GA1UdDwEB/wQEAwIE
8DAXBgNVHSAEEDAOMAwGCmCGSAFlAwIBMAEwDQYJKoZIhvcNAQEFBQADgYEAG5qf
f86xb10ogmC7H1f//9eykm6gAA0EWFwyXzjCkIlk9WPjGOTBU3WNURziN5LdblcZ
Csf3gFtni07sN4ISdLTnJFzuW8Nk9vfmmhV74guH9wvMv4fCVInMBZEaak0bR2dY
LxvWYJ8K2rgUN4E3A5nNFA81/1xxbwCq7c2koa8=
-----END CERTIFICATE-----

Certificate Revocation List (CRL):
        Version 2 (0x1)
        Signature Algorithm: sha1WithRSAEncryption
        Issuer: /C=US/O=Test Certificates/CN=Trust Anchor
        Last Update: Apr 19 14:57:20 2001 GMT
        Next Update: Apr 19 14:57:20 2011 GMT
        CRL extensions:
            X509v3 Authority Key Identifier: 
                keyid:FB:6C:D4:2D:81:9E:CA:27:7A:9E:0D:B0:3C:EA:9A:BC:87:FF:49:EA

            X509v3 CRL Number: 
                1
Revoked Certificates:
    Serial Number: 68
        Revocation Date: Apr 19 14:57:20 2001 GMT
        CRL entry extensions:
            X509v3 CRL Reason Code: 
                Key Compromise
    Signature Algorithm: sha1WithRSAEncryption
        92:12:c4:34:b4:92:ab:ba:71:6b:74:31:16:ce:ed:25:d6:4b:
        1e:fa:f8:20:1e:9d:d7:7f:30:ed:15:f7:8b:5d:64:9b:dd:31:
        40:e4:55:0f:0c:5f:82:69:63:00:76:a5:cf:9e:c4:5f:f2:53:
        9b:9b:7d:f5:69:1d:74:57:38:70:e5:fb:5b:76:58:c9:ec:31:
        dc:94:1b:02:ee:9d:33:9c:38:4b:29:1d:e1:0c:29:8b:6e:c7:
        bf:a0:e8:40:34:83:cf:ff:9f:cd:b5:f7:d9:4d:a7:9f:2e:bf:
        44:98:6b:f2:d3:fe:a8:20:31:c1:33:76:b7:1c:19:65:4d:b9:
        14:39
-----BEGIN X509 CRL-----
MIIBXTCBxwIBATANBgkqhkiG9w0BAQUFADBAMQswCQYDVQQGEwJVUzEaMBgGA1UE
ChMRVGVzdCBDZXJ0aWZpY2F0ZXMxFTATBgNVBAMTDFRydXN0IEFuY2hvchcNMDEw
NDE5MTQ1NzIwWhcNMTEwNDE5MTQ1NzIwWjAiMCACAWgXDTAxMDQxOTE0NTcyMFow
DDAKBgNVHRUEAwoBAaAvMC0wHwYDVR0jBBgwFoAU+2zULYGeyid6ng2wPOqavIf/
SeowCgYDVR0UBAMCAQEwDQYJKoZIhvcNAQEFBQADgYEAkhLENLSSq7pxa3QxFs7t
JdZLHvr4IB6d138w7RX3i11km90xQORVDwxfgmljAHalz57EX/JTm5t99WkddFc4
cOX7W3ZYyewx3JQbAu6dM5w4Sykd4Qwpi27Hv6DoQDSDz/+fzbX32U2nny6/RJhr
8tP+qCAxwTN2txwZZU25FDk=
-----END X509 CRL-----

Certificate Revocation List (CRL):
        Version 2 (0x1)
        Signature Algorithm: sha1WithRSAEncryption
        Issuer: /C=US/O=Test Certificates/CN=onlySomeReasons CA1
        Last Update: Apr 19 14:57:20 2001 GMT
        Next Update: Apr 19 14:57:20 2011 GMT
        CRL extensions:
            X509v3 Authority Key Identifier: 
                keyid:E0:62:9A:DF:05:50:BD:1F:0F:5B:18:49:FE:BE:70:1D:CC:DC:39:6E

            X509v3 CRL Number: 
                1
            2.5.29.28: critical
                0....`
Revoked Certificates:
    Serial Number: 01
        Revocation Date: Apr 19 14:57:20 2001 GMT
        CRL entry extensions:
            X509v3 CRL Reason Code: 
                Key Compromise
    Signature Algorithm: sha1WithRSAEncryption
        99:f8:e1:09:a8:5d:d4:4d:a9:18:5c:91:9c:2c:a2:51:7c:dd:
        61:bd:4a:38:0c:5c:88:46:56:55:06:29:70:0f:cc:1d:cf:44:
        d9:9a:b9:11:94:82:53:48:b5:08:4d:19:89:42:c0:ff:7d:42:
        e0:39:98:43:6f:40:f3:e9:5e:8e:fe:56:3f:f4:4c:60:0e:22:
        29:c3:90:7d:2d:ea:d2:96:f1:3d:ce:35:d4:30:72:f2:9b:fc:
        86:44:fb:05:b7:3a:08:d2:bc:95:e8:d3:2b:18:a1:64:c9:25:
        19:3f:6e:8a:a5:9b:99:e4:f4:ac:1f:f9:ea:72:9c:88:b8:8f:
        ac:e9
-----BEGIN X509 CRL-----
MIIBdjCB4AIBATANBgkqhkiG9w0BAQUFADBHMQswCQYDVQQGEwJVUzEaMBgGA1UE
ChMRVGVzdCBDZXJ0aWZpY2F0ZXMxHDAaBgNVBAMTE29ubHlTb21lUmVhc29ucyBD
QTEXDTAxMDQxOTE0NTcyMFoXDTExMDQxOTE0NTcyMFowIjAgAgEBFw0wMTA0MTkx
NDU3MjBaMAwwCgYDVR0VBAMKAQGgQTA/MB8GA1UdIwQYMBaAFOBimt8FUL0fD1sY
Sf6+cB3M3DluMAoGA1UdFAQDAgEBMBAGA1UdHAEB/wQGMASDAgVgMA0GCSqGSIb3
DQEBBQUAA4GBAJn44QmoXdRNqRhckZwsolF83WG9SjgMXIhGVlUGKXAPzB3PRNma
uRGUglNItQhNGYlCwP99QuA5mENvQPPpXo7+Vj/0TGAOIinDkH0t6tKW8T3ONdQw
cvKb/IZE+wW3OgjSvJXo0ysYoWTJJRk/boqlm5nk9Kwf+epynIi4j6zp
-----END X509 CRL-----

Certificate Revocation List (CRL):
        Version 2 (0x1)
        Signature Algorithm: sha1WithRSAEncryption
        Issuer: /C=US/O=Test Certificates/CN=onlySomeReasons CA1
        Last Update: Apr 19 14:57:20 2001 GMT
        Next Update: Apr 19 14:57:20 2011 GMT
        CRL extensions:
            X509v3 Authority Key Identifier: 
                keyid:E0:62:9A:DF:05:50:BD:1F:0F:5B:18:49:FE:BE:70:1D:CC:DC:39:6E

            X509v3 CRL Number: 
                1
            2.5.29.28: critical
                0......
Revoked Certificates:
    Serial Number: 02
        Revocation Date: Apr 19 14:57:20 2001 GMT
        CRL entry extensions:
            X509v3 CRL Reason Code: 
                Certificate Hold
    Signature Algorithm: sha1WithRSAEncryption
        5a:9a:70:59:4f:6b:42:27:d8:2a:70:9e:91:bf:f5:09:c0:2c:
        8e:21:5d:6a:76:0f:70:61:ee:f8:20:c3:00:cf:7b:40:78:c5:
        25:5d:17:cf:c7:74:61:29:40:93:91:c1:52:68:4c:02:e3:b7:
        c2:0c:e3:26:ab:fa:2f:e2:0e:70:60:d9:ed:34:ec:72:4b:98:
        57:8c:5a:dd:1c:50:d2:6c:44:ee:4b:89:d6:f9:d4:79:64:9f:
        e7:f2:4f:e9:10:0c:8b:12:c4:ef:e4:2d:f8:8a:c6:94:9a:59:
        24:1b:f9:d4:6e:4c:19:4d:ed:4f:3f:e8:b1:29:f6:6e:2e:0c:
        d1:ef
-----BEGIN X509 CRL-----
MIIBdzCB4QIBATANBgkqhkiG9w0BAQUFADBHMQswCQYDVQQGEwJVUzEaMBgGA1UE
ChMRVGVzdCBDZXJ0aWZpY2F0ZXMxHDAaBgNVBAMTE29ubHlTb21lUmVhc29ucyBD
QTEXDTAxMDQxOTE0NTcyMFoXDTExMDQxOTE0NTcyMFowIjAgAgECFw0wMTA0MTkx
NDU3MjBaMAwwCgYDVR0VBAMKAQagQjBAMB8GA1UdIwQYMBaAFOBimt8FUL0fD1sY
Sf6+cB3M3DluMAoGA1UdFAQDAgEBMBEGA1UdHAEB/wQHMAWDAwefgDANBgkqhkiG
9w0BAQUFAAOBgQBamnBZT2tCJ9gqcJ6Rv/UJwCyOIV1qdg9wYe74IMMAz3tAeMUl
XRfPx3RhKUCTkcFSaEwC47fCDOMmq/ov4g5wYNntNOxyS5hXjFrdHFDSbETuS4nW
+dR5ZJ/n8k/pEAyLEsTv5C34isaUmlkkG/nUbkwZTe1PP+ixKfZuLgzR7w==
-----END X509 CRL-----

