subject=/C=US/O=Test Certificates/CN=onlySomeReasons CA2
issuer=/C=US/O=Test Certificates/CN=Trust Anchor
-----BEGIN CERTIFICATE-----
MIICeTCCAeKgAwIBAgIBUTANBgkqhkiG9w0BAQUFADBAMQswCQYDVQQGEwJVUzEa
MBgGA1UEChMRVGVzdCBDZXJ0aWZpY2F0ZXMxFTATBgNVBAMTDFRydXN0IEFuY2hv
cjAeFw0wMTA0MTkxNDU3MjBaFw0xMTA0MTkxNDU3MjBaMEcxCzAJBgNVBAYTAlVT
MRowGAYDVQQKExFUZXN0IENlcnRpZmljYXRlczEcMBoGA1UEAxMTb25seVNvbWVS
ZWFzb25zIENBMjCBnzANBgkqhkiG9w0BAQEFAAOBjQAwgYkCgYEAxjus5muZnJK+
vbTiSr7l+wNZkm4bBceUnfDkXaEsbIwJRhzBb2TVPT0Do+y3R/r9DGfLYXxCHohP
OsEkgaaxsJcVNb560ICl7I/WjFftw3D82YeCiqtUageZZbHBGBpb/utZyPdGLoc+
F6OmUprS/F3KhP6SSVq5/tN8vYA7dqsCAwEAAaN8MHowHwYDVR0jBBgwFoAU+2zU
LYGeyid6ng2wPOqavIf/SeowHQYDVR0OBBYEFKqh79hc2DiyM4fnkx5FQRjQinuN
MA4GA1UdDwEB/wQEAwIBBjAXBgNVHSAEEDAOMAwGCmCGSAFlAwIBMAEwDwYDVR0T
AQH/BAUwAwEB/zANBgkqhkiG9w0BAQUFAAOBgQAn3+Yq1ETHIYeBdtTuzCeQHWWo
VC03XoW3PZMLAKJZof8WbYui9I0Mz8eF7Ae1tgk4luOkc+1VEuf9Yj1R3/DnrFYR
Ws6bImkBgnSYYiUSo1GuqCC6L3FuD7KLs7vaCp+9EfS0igqOXxJwEESXgJixsOkz
/lp/IH1QU84Vh6fKlw==
-----END CERTIFICATE-----

subject=/C=US/O=Test Certificates/CN=Invalid onlySomeReasons EE Certificate Test17
issuer=/C=US/O=Test Certificates/CN=onlySomeReasons CA2
-----BEGIN CERTIFICATE-----
MIICiTCCAfKgAwIBAgIBATANBgkqhkiG9w0BAQUFADBHMQswCQYDVQQGEwJVUzEa
MBgGA1UEChMRVGVzdCBDZXJ0aWZpY2F0ZXMxHDAaBgNVBAMTE29ubHlTb21lUmVh
c29ucyBDQTIwHhcNMDEwNDE5MTQ1NzIwWhcNMTEwNDE5MTQ1NzIwWjBhMQswCQYD
VQQGEwJVUzEaMBgGA1UEChMRVGVzdCBDZXJ0aWZpY2F0ZXMxNjA0BgNVBAMTLUlu
dmFsaWQgb25seVNvbWVSZWFzb25zIEVFIENlcnRpZmljYXRlIFRlc3QxNzCBnzAN
BgkqhkiG9w0BAQEFAAOBjQAwgYkCgYEAr8VCnAdQKISRnLmjaXbkkMYcS02qC5Mj
4f2jw/FDEJKBWKopXex3k9qR+Dvaz6yGEJoi2wj1sUo8xdChVd1XbjGEYxwkaqpe
cOPYjHlvVF43YGWYhqWOtohBZfIT5uJi0rxZNApuHARfo6UGBaceSk/DUFbos1ag
lCxoF4pf+5cCAwEAAaNrMGkwHwYDVR0jBBgwFoAUqqHv2FzYOLIzh+eTHkVBGNCK
e40wHQYDVR0OBBYEFK5QFuk+bZ4HFuTJCRy2qPFS7YZ6MA4GA1UdDwEB/wQEAwIE
8DAXBgNVHSAEEDAOMAwGCmCGSAFlAwIBMAEwDQYJKoZIhvcNAQEFBQADgYEAOShO
p8bEYTzkGWyiUXPs0fZAQzFbgCpN3Q+ky2VZblbIuJTOToG/UiyIQ2FNCq53oBYe
ZYiuewxa/WWDunOwx7LwPtcksOo3M5BzFmZEqTKALQryiXj9X3ob3tZJFTpAs+X2
joJ0q+U06GYvbXscfXdm8nvBNA+r5BczWTlAG/4=
-----END CERTIFICATE-----

Certificate Revocation List (CRL):
        Version 2 (0x1)
        Signature Algorithm: sha1WithRSAEncryption
        Issuer: /C=US/O=Test Certificates/CN=onlySomeReasons CA2
        Last Update: Apr 19 14:57:20 2001 GMT
        Next Update: Apr 19 14:57:20 2011 GMT
        CRL extensions:
            X509v3 Authority Key Identifier: 
                keyid:AA:A1:EF:D8:5C:D8:38:B2:33:87:E7:93:1E:45:41:18:D0:8A:7B:8D

            X509v3 CRL Number: 
                1
            2.5.29.28: critical
                0.....
No Revoked Certificates.
    Signature Algorithm: sha1WithRSAEncryption
        38:01:7c:3a:47:fa:d7:7a:f9:a0:3c:17:f8:db:94:e7:1d:a0:
        fa:47:07:6b:ae:03:68:f4:f8:b4:4c:7b:70:a5:0b:5f:92:8c:
        b8:c3:32:e9:55:34:38:53:61:ba:d9:3d:dc:8f:39:45:dc:51:
        5c:ab:7b:67:80:47:b8:60:6c:88:4b:1a:8a:57:fd:73:69:0a:
        ff:2d:c3:23:8a:62:ea:31:c3:4a:07:3b:8b:89:a6:dd:4e:e8:
        8b:99:67:71:62:92:db:40:1e:af:e0:b4:e1:09:62:1d:42:69:
        b6:45:64:d8:94:4f:30:40:43:e9:38:3a:59:29:6d:0f:8d:72:
        0d:8c
-----BEGIN X509 CRL-----
MIIBUjCBvAIBATANBgkqhkiG9w0BAQUFADBHMQswCQYDVQQGEwJVUzEaMBgGA1UE
ChMRVGVzdCBDZXJ0aWZpY2F0ZXMxHDAaBgNVBAMTE29ubHlTb21lUmVhc29ucyBD
QTIXDTAxMDQxOTE0NTcyMFoXDTExMDQxOTE0NTcyMFqgQTA/MB8GA1UdIwQYMBaA
FKqh79hc2DiyM4fnkx5FQRjQinuNMAoGA1UdFAQDAgEBMBAGA1UdHAEB/wQGMASD
AgEGMA0GCSqGSIb3DQEBBQUAA4GBADgBfDpH+td6+aA8F/jblOcdoPpHB2uuA2j0
+LRMe3ClC1+SjLjDMulVNDhTYbrZPdyPOUXcUVyre2eAR7hgbIhLGopX/XNpCv8t
wyOKYuoxw0oHO4uJpt1O6IuZZ3FikttAHq/gtOEJYh1CabZFZNiUTzBAQ+k4Olkp
bQ+Ncg2M
-----END X509 CRL-----

Certificate Revocation List (CRL):
        Version 2 (0x1)
        Signature Algorithm: sha1WithRSAEncryption
        Issuer: /C=US/O=Test Certificates/CN=onlySomeReasons CA2
        Last Update: Apr 19 14:57:20 2001 GMT
        Next Update: Apr 19 14:57:20 2011 GMT
        CRL extensions:
            X509v3 Authority Key Identifier: 
                keyid:AA:A1:EF:D8:5C:D8:38:B2:33:87:E7:93:1E:45:41:18:D0:8A:7B:8D

            X509v3 CRL Number: 
                1
            2.5.29.28: critical
                0.....
No Revoked Certificates.
    Signature Algorithm: sha1WithRSAEncryption
        0e:a8:95:98:a1:9d:34:e4:fd:7f:b4:bf:94:48:d5:42:03:a5:
        cc:e1:85:55:65:15:c2:e7:cb:33:a1:fd:d8:cd:12:04:92:50:
        cb:bf:ea:6c:e2:ae:bc:55:48:cf:4a:29:61:6b:42:00:4c:08:
        35:f6:49:30:e7:37:94:a7:38:bc:bb:3c:8c:c3:11:ea:11:f3:
        0e:bd:9f:8f:a0:32:a2:b9:8a:03:cf:6c:eb:75:d7:5d:5f:f1:
        fe:97:f7:d8:33:e8:9d:9e:21:b6:8e:ba:2a:63:c1:0c:57:64:
        dd:90:98:34:4f:db:a1:d1:11:0e:77:13:87:f4:b0:61:c1:36:
        1f:c8
-----BEGIN X509 CRL-----
MIIBUjCBvAIBATANBgkqhkiG9w0BAQUFADBHMQswCQYDVQQGEwJVUzEaMBgGA1UE
ChMRVGVzdCBDZXJ0aWZpY2F0ZXMxHDAaBgNVBAMTE29ubHlTb21lUmVhc29ucyBD
QTIXDTAxMDQxOTE0NTcyMFoXDTExMDQxOTE0NTcyMFqgQTA/MB8GA1UdIwQYMBaA
FKqh79hc2DiyM4fnkx5FQRjQinuNMAoGA1UdFAQDAgEBMBAGA1UdHAEB/wQGMASD
AgMYMA0GCSqGSIb3DQEBBQUAA4GBAA6olZihnTTk/X+0v5RI1UIDpczhhVVlFcLn
yzOh/djNEgSSUMu/6mzirrxVSM9KKWFrQgBMCDX2STDnN5SnOLy7PIzDEeoR8w69
n4+gMqK5igPPbOt1111f8f6X99gz6J2eIbaOuipjwQxXZN2QmDRP26HREQ53E4f0
sGHBNh/I
-----END X509 CRL-----

Certificate Revocation List (CRL):
        Version 2 (0x1)
        Signature Algorithm: sha1WithRSAEncryption
        Issuer: /C=US/O=Test Certificates/CN=Trust Anchor
        Last Update: Apr 19 14:57:20 2001 GMT
        Next Update: Apr 19 14:57:20 2011 GMT
        CRL extensions:
            X509v3 Authority Key Identifier: 
                keyid:FB:6C:D4:2D:81:9E:CA:27:7A:9E:0D:B0:3C:EA:9A:BC:87:FF:49:EA

            X509v3 CRL Number: 
                1
Revoked Certificates:
    Serial Number: 68
        Revocation Date: Apr 19 14:57:20 2001 GMT
        CRL entry extensions:
            X509v3 CRL Reason Code: 
                Key Compromise
    Signature Algorithm: sha1WithRSAEncryption
        92:12:c4:34:b4:92:ab:ba:71:6b:74:31:16:ce:ed:25:d6:4b:
        1e:fa:f8:20:1e:9d:d7:7f:30:ed:15:f7:8b:5d:64:9b:dd:31:
        40:e4:55:0f:0c:5f:82:69:63:00:76:a5:cf:9e:c4:5f:f2:53:
        9b:9b:7d:f5:69:1d:74:57:38:70:e5:fb:5b:76:58:c9:ec:31:
        dc:94:1b:02:ee:9d:33:9c:38:4b:29:1d:e1:0c:29:8b:6e:c7:
        bf:a0:e8:40:34:83:cf:ff:9f:cd:b5:f7:d9:4d:a7:9f:2e:bf:
        44:98:6b:f2:d3:fe:a8:20:31:c1:33:76:b7:1c:19:65:4d:b9:
        14:39
-----BEGIN X509 CRL-----
MIIBXTCBxwIBATANBgkqhkiG9w0BAQUFADBAMQswCQYDVQQGEwJVUzEaMBgGA1UE
ChMRVGVzdCBDZXJ0aWZpY2F0ZXMxFTATBgNVBAMTDFRydXN0IEFuY2hvchcNMDEw
NDE5MTQ1NzIwWhcNMTEwNDE5MTQ1NzIwWjAiMCACAWgXDTAxMDQxOTE0NTcyMFow
DDAKBgNVHRUEAwoBAaAvMC0wHwYDVR0jBBgwFoAU+2zULYGeyid6ng2wPOqavIf/
SeowCgYDVR0UBAMCAQEwDQYJKoZIhvcNAQEFBQADgYEAkhLENLSSq7pxa3QxFs7t
JdZLHvr4IB6d138w7RX3i11km90xQORVDwxfgmljAHalz57EX/JTm5t99WkddFc4
cOX7W3ZYyewx3JQbAu6dM5w4Sykd4Qwpi27Hv6DoQDSDz/+fzbX32U2nny6/RJhr
8tP+qCAxwTN2txwZZU25FDk=
-----END X509 CRL-----

