subject=/C=US/O=Test Certificates/CN=nameConstraints URI1 CA
issuer=/C=US/O=Test Certificates/CN=Trust Anchor
-----BEGIN CERTIFICATE-----
MIICqDCCAhGgAwIBAgIBSDANBgkqhkiG9w0BAQUFADBAMQswCQYDVQQGEwJVUzEa
MBgGA1UEChMRVGVzdCBDZXJ0aWZpY2F0ZXMxFTATBgNVBAMTDFRydXN0IEFuY2hv
cjAeFw0wMTA0MTkxNDU3MjBaFw0xMTA0MTkxNDU3MjBaMEsxCzAJBgNVBAYTAlVT
MRowGAYDVQQKExFUZXN0IENlcnRpZmljYXRlczEgMB4GA1UEAxMXbmFtZUNvbnN0
cmFpbnRzIFVSSTEgQ0EwgZ8wDQYJKoZIhvcNAQEBBQADgY0AMIGJAoGBAKxL9gyE
2WbKCoEEU+RviucDsSOeDHQfoVxci7AD0RhpGDZkMaDQhM+DUHywwIo9zUpLVeGi
xQNu1+1bQ4SzVBT6k7vcf8ZxPOUI+8WQzMNO5H2/PGz3XGpfIw/RJrRH79ICwZlC
6QzvSbLJhOtJTQS9kFTECA4AeBzHEN3f0igTAgMBAAGjgaYwgaMwHwYDVR0jBBgw
FoAU+2zULYGeyid6ng2wPOqavIf/SeowHQYDVR0OBBYEFKwdFrpLHgtf4rxhruHZ
ZFp5vkXWMA4GA1UdDwEB/wQEAwIBBjAXBgNVHSAEEDAOMAwGCmCGSAFlAwIBMAEw
DwYDVR0TAQH/BAUwAwEB/zAnBgNVHR4BAf8EHTAboBkwF4YVLnRlc3RjZXJ0aWZp
Y2F0ZXMuZ292MA0GCSqGSIb3DQEBBQUAA4GBAHbVqbpvjgN0GV8abRGms01xVNHT
PtqMarG3/zQImm9xDzqUqv81kX/8DOy9I/lo3Mvp83M9B74mEEiTTnxkYEpaSouE
fE3/VAW8dTJb35NeZcOCNWDQv3eA7bufOVO+4KjEHERlxBfEYlPEkJGSLD98SF62
OYmmR3Cda8cKBk6p
-----END CERTIFICATE-----

subject=/C=US/O=Test Certificates/CN=Invalid URI nameConstraints EE Certificate Test35
issuer=/C=US/O=Test Certificates/CN=nameConstraints URI1 CA
-----BEGIN CERTIFICATE-----
MIICyDCCAjGgAwIBAgIBAjANBgkqhkiG9w0BAQUFADBLMQswCQYDVQQGEwJVUzEa
MBgGA1UEChMRVGVzdCBDZXJ0aWZpY2F0ZXMxIDAeBgNVBAMTF25hbWVDb25zdHJh
aW50cyBVUkkxIENBMB4XDTAxMDQxOTE0NTcyMFoXDTExMDQxOTE0NTcyMFowZTEL
MAkGA1UEBhMCVVMxGjAYBgNVBAoTEVRlc3QgQ2VydGlmaWNhdGVzMTowOAYDVQQD
EzFJbnZhbGlkIFVSSSBuYW1lQ29uc3RyYWludHMgRUUgQ2VydGlmaWNhdGUgVGVz
dDM1MIGfMA0GCSqGSIb3DQEBAQUAA4GNADCBiQKBgQCq7pFXOed1oA+6DHAsdURi
YtGnBPvAO55F3hR42UcP8vCvKmdtq0HpJsn34xYHoFPjGctei8AiFVXnj1jrbb8w
LyDLTRVPFPFHmy3Q956KRU0DteJ8ptI4FRQRT7KeqKADvth4tP91aH2DyFy4MTr4
wvUfV1mnYKgY7gpfBGlOPQIDAQABo4GhMIGeMB8GA1UdIwQYMBaAFKwdFrpLHgtf
4rxhruHZZFp5vkXWMB0GA1UdDgQWBBRJujI3sGa+0thW8SoF9JqAlJH04zAOBgNV
HQ8BAf8EBAMCBPAwFwYDVR0gBBAwDjAMBgpghkgBZQMCATABMDMGA1UdEQQsMCqG
KGh0dHA6Ly90ZXN0Y2VydGlmaWNhdGVzLmdvdi9pbnZhbGlkLmh0bWwwDQYJKoZI
hvcNAQEFBQADgYEAMZko+lW6d/NUyq1yPydllz9hzKbH8duOaaM8azG14FqmvYnz
EylKSfh2WuqTwkvpusjhdtr/33S7AFU74OJ9dJy1IgqvLWhD/qCm4fbEq44Ejhr5
sChHIwMIvecNIEOi6e2R7Ue9ivA2gtFEQCfse4ZVPf/f3MLErRsp1dtITxI=
-----END CERTIFICATE-----

Certificate Revocation List (CRL):
        Version 2 (0x1)
        Signature Algorithm: sha1WithRSAEncryption
        Issuer: /C=US/O=Test Certificates/CN=nameConstraints URI1 CA
        Last Update: Apr 19 14:57:20 2001 GMT
        Next Update: Apr 19 14:57:20 2011 GMT
        CRL extensions:
            X509v3 Authority Key Identifier: 
                keyid:AC:1D:16:BA:4B:1E:0B:5F:E2:BC:61:AE:E1:D9:64:5A:79:BE:45:D6

            X509v3 CRL Number: 
                1
No Revoked Certificates.
    Signature Algorithm: sha1WithRSAEncryption
        48:8d:62:fe:d7:4c:f3:06:9a:78:4d:e0:96:d6:4b:12:b3:93:
        23:96:6d:00:b6:6b:7f:35:25:e3:94:20:1b:fe:c8:cb:3d:5c:
        7b:e8:f3:cf:c3:db:96:d3:62:4e:b7:5b:93:05:11:c3:7f:41:
        94:e8:75:d2:8a:67:bf:f3:b0:81:25:22:99:a3:4c:02:9f:1c:
        87:1d:b1:20:a6:0f:b7:c8:f2:2b:e5:b2:4d:b4:e1:bc:c3:85:
        b7:54:29:13:e8:7e:53:ed:d2:cc:a7:95:3f:71:32:5d:3a:09:
        a1:fe:af:ba:45:14:41:1a:67:fb:8f:46:03:6a:fb:78:26:71:
        02:1b
-----BEGIN X509 CRL-----
MIIBRDCBrgIBATANBgkqhkiG9w0BAQUFADBLMQswCQYDVQQGEwJVUzEaMBgGA1UE
ChMRVGVzdCBDZXJ0aWZpY2F0ZXMxIDAeBgNVBAMTF25hbWVDb25zdHJhaW50cyBV
UkkxIENBFw0wMTA0MTkxNDU3MjBaFw0xMTA0MTkxNDU3MjBaoC8wLTAfBgNVHSME
GDAWgBSsHRa6Sx4LX+K8Ya7h2WRaeb5F1jAKBgNVHRQEAwIBATANBgkqhkiG9w0B
AQUFAAOBgQBIjWL+10zzBpp4TeCW1ksSs5Mjlm0Atmt/NSXjlCAb/sjLPVx76PPP
w9uW02JOt1uTBRHDf0GU6HXSime/87CBJSKZo0wCnxyHHbEgpg+3yPIr5bJNtOG8
w4W3VCkT6H5T7dLMp5U/cTJdOgmh/q+6RRRBGmf7j0YDavt4JnECGw==
-----END X509 CRL-----

Certificate Revocation List (CRL):
        Version 2 (0x1)
        Signature Algorithm: sha1WithRSAEncryption
        Issuer: /C=US/O=Test Certificates/CN=Trust Anchor
        Last Update: Apr 19 14:57:20 2001 GMT
        Next Update: Apr 19 14:57:20 2011 GMT
        CRL extensions:
            X509v3 Authority Key Identifier: 
                keyid:FB:6C:D4:2D:81:9E:CA:27:7A:9E:0D:B0:3C:EA:9A:BC:87:FF:49:EA

            X509v3 CRL Number: 
                1
Revoked Certificates:
    Serial Number: 68
        Revocation Date: Apr 19 14:57:20 2001 GMT
        CRL entry extensions:
            X509v3 CRL Reason Code: 
                Key Compromise
    Signature Algorithm: sha1WithRSAEncryption
        92:12:c4:34:b4:92:ab:ba:71:6b:74:31:16:ce:ed:25:d6:4b:
        1e:fa:f8:20:1e:9d:d7:7f:30:ed:15:f7:8b:5d:64:9b:dd:31:
        40:e4:55:0f:0c:5f:82:69:63:00:76:a5:cf:9e:c4:5f:f2:53:
        9b:9b:7d:f5:69:1d:74:57:38:70:e5:fb:5b:76:58:c9:ec:31:
        dc:94:1b:02:ee:9d:33:9c:38:4b:29:1d:e1:0c:29:8b:6e:c7:
        bf:a0:e8:40:34:83:cf:ff:9f:cd:b5:f7:d9:4d:a7:9f:2e:bf:
        44:98:6b:f2:d3:fe:a8:20:31:c1:33:76:b7:1c:19:65:4d:b9:
        14:39
-----BEGIN X509 CRL-----
MIIBXTCBxwIBATANBgkqhkiG9w0BAQUFADBAMQswCQYDVQQGEwJVUzEaMBgGA1UE
ChMRVGVzdCBDZXJ0aWZpY2F0ZXMxFTATBgNVBAMTDFRydXN0IEFuY2hvchcNMDEw
NDE5MTQ1NzIwWhcNMTEwNDE5MTQ1NzIwWjAiMCACAWgXDTAxMDQxOTE0NTcyMFow
DDAKBgNVHRUEAwoBAaAvMC0wHwYDVR0jBBgwFoAU+2zULYGeyid6ng2wPOqavIf/
SeowCgYDVR0UBAMCAQEwDQYJKoZIhvcNAQEFBQADgYEAkhLENLSSq7pxa3QxFs7t
JdZLHvr4IB6d138w7RX3i11km90xQORVDwxfgmljAHalz57EX/JTm5t99WkddFc4
cOX7W3ZYyewx3JQbAu6dM5w4Sykd4Qwpi27Hv6DoQDSDz/+fzbX32U2nny6/RJhr
8tP+qCAxwTN2txwZZU25FDk=
-----END X509 CRL-----

