subject=/C=US/O=Test Certificates/CN=Invalid inhibitAnyPolicy EE Certificate Test5
issuer=/C=US/O=Test Certificates/CN=inhibitAnyPolicy5 subsubCA
-----BEGIN CERTIFICATE-----
MIICijCCAfOgAwIBAgIBATANBgkqhkiG9w0BAQUFADBOMQswCQYDVQQGEwJVUzEa
MBgGA1UEChMRVGVzdCBDZXJ0aWZpY2F0ZXMxIzAhBgNVBAMTGmluaGliaXRBbnlQ
b2xpY3k1IHN1YnN1YkNBMB4XDTAxMDQxOTE0NTcyMFoXDTExMDQxOTE0NTcyMFow
YTELMAkGA1UEBhMCVVMxGjAYBgNVBAoTEVRlc3QgQ2VydGlmaWNhdGVzMTYwNAYD
VQQDEy1JbnZhbGlkIGluaGliaXRBbnlQb2xpY3kgRUUgQ2VydGlmaWNhdGUgVGVz
dDUwgZ8wDQYJKoZIhvcNAQEBBQADgY0AMIGJAoGBALJx+sbJu7vInzoWetJ2rz0L
6GPGRCd/xtyjMfyMSExsWdgxczZPdBMn9ON9XI/ASBPwvhcoq2pB9VqD+g2X9tfV
y7usPePkKYweFOPmIlrWZb9tAEfTgwkoHYiWEWazYt+6y65407713raA+9DmYQgX
m9RHrTFiSVJ3Z9RAtBEHAgMBAAGjZTBjMB8GA1UdIwQYMBaAFHMQBPkM9GScsvEb
je+3VaqkohmvMB0GA1UdDgQWBBQTUueG5HoT3TWlqqICt/b/VK5ROjAOBgNVHQ8B
Af8EBAMCBPAwEQYDVR0gBAowCDAGBgRVHSAAMA0GCSqGSIb3DQEBBQUAA4GBAEp6
lUPLqrzZI5cW9d33rfE+6PJIi7fI3T6aRuc2eG0GuaiGnwOJvwDXA1uHC2GzbiJZ
U61janUuTgxWCdE7uDZFU7f4M6Ws0V/RP0BDzWca9mLZenhrmNFYwCp+9ve9QMMx
6WjbrV0PBuEStbrdAH4wRquSNws7JKnHrpW2O88C
-----END CERTIFICATE-----

subject=/C=US/O=Test Certificates/CN=inhibitAnyPolicy5 subsubCA
issuer=/C=US/O=Test Certificates/CN=inhibitAnyPolicy5 subCA
-----BEGIN CERTIFICATE-----
MIICizCCAfSgAwIBAgIBATANBgkqhkiG9w0BAQUFADBLMQswCQYDVQQGEwJVUzEa
MBgGA1UEChMRVGVzdCBDZXJ0aWZpY2F0ZXMxIDAeBgNVBAMTF2luaGliaXRBbnlQ
b2xpY3k1IHN1YkNBMB4XDTAxMDQxOTE0NTcyMFoXDTExMDQxOTE0NTcyMFowTjEL
MAkGA1UEBhMCVVMxGjAYBgNVBAoTEVRlc3QgQ2VydGlmaWNhdGVzMSMwIQYDVQQD
ExppbmhpYml0QW55UG9saWN5NSBzdWJzdWJDQTCBnzANBgkqhkiG9w0BAQEFAAOB
jQAwgYkCgYEArf8a4YQqh0caACibKN+ne7IKGYWnwL8N2E4534sCUjlfic+5O3/s
ELf3kOpyOfw7NMoMTXQcsi+9wtB24eilTbHwdStKU/Mt15FCe5go7GepA2TbdomL
3mKUocf87YN4pZc8QBPA/hs5sYPbnCx4X2TK2oCNCwvfUgWWhnCN2mMCAwEAAaN8
MHowHwYDVR0jBBgwFoAUSndiWCMHosO57sdu3+0AiYhNl28wHQYDVR0OBBYEFHMQ
BPkM9GScsvEbje+3VaqkohmvMA4GA1UdDwEB/wQEAwIBBjAXBgNVHSAEEDAOMAwG
CmCGSAFlAwIBMAEwDwYDVR0TAQH/BAUwAwEB/zANBgkqhkiG9w0BAQUFAAOBgQCG
LcmSqA61BeAN21ekDRt5DAa9UGDAU8Bp/txAT+4H81/dzp5710w8QBHUcViEoL7l
Znf4/IR4isqKlRS6ctmN/K2BRJ/19TQiYN8JiaZQAluzpLlgMUV4iC+/JwZHnJZu
2c4mhWPSSBfUqHME3sp4dQxsrZNou/yOwzhTjmsNVw==
-----END CERTIFICATE-----

subject=/C=US/O=Test Certificates/CN=inhibitAnyPolicy5 subCA
issuer=/C=US/O=Test Certificates/CN=inhibitAnyPolicy5 CA
-----BEGIN CERTIFICATE-----
MIICljCCAf+gAwIBAgIBATANBgkqhkiG9w0BAQUFADBIMQswCQYDVQQGEwJVUzEa
MBgGA1UEChMRVGVzdCBDZXJ0aWZpY2F0ZXMxHTAbBgNVBAMTFGluaGliaXRBbnlQ
b2xpY3k1IENBMB4XDTAxMDQxOTE0NTcyMFoXDTExMDQxOTE0NTcyMFowSzELMAkG
A1UEBhMCVVMxGjAYBgNVBAoTEVRlc3QgQ2VydGlmaWNhdGVzMSAwHgYDVQQDExdp
bmhpYml0QW55UG9saWN5NSBzdWJDQTCBnzANBgkqhkiG9w0BAQEFAAOBjQAwgYkC
gYEAqzUjeD5TJL7TtPxRXU0nMcnBDmkPWyIAC1pNu3Tv0XwSE59I5Wr/Ytc+wMkJ
dM4d1IFPKtN+MlzNv4dHwxOQrb9Fi3ItNVRIOLRIttgQFMvCWl0FTh9svTC8NIUZ
lKD8zzDoBGD2ZEwHTYX1qLzneeTf3hMN4AyvxDVGekJWsdECAwEAAaOBjDCBiTAf
BgNVHSMEGDAWgBTGAIxxpplipn/SVG/ybgTKMLU6vzAdBgNVHQ4EFgQUSndiWCMH
osO57sdu3+0AiYhNl28wDgYDVR0PAQH/BAQDAgEGMBcGA1UdIAQQMA4wDAYKYIZI
AWUDAgEwATAPBgNVHRMBAf8EBTADAQH/MA0GA1UdNgEB/wQDAgEBMA0GCSqGSIb3
DQEBBQUAA4GBABOzlfB8CEJvHMdfoVtuMRmwTdF+Ypyvb6ileMKr9P+8j4gRzVgr
jZiHkH/a8ODtOat8ADR9USeVUAMIv2LZnw33x6xKWCZNJCwPysTVz72PLIPQ+2c0
yeOayIZxdJb9hidU7BT4q6FdbFecUUgSZS5FySOod8WI1jYTyHNEZeLa
-----END CERTIFICATE-----

subject=/C=US/O=Test Certificates/CN=inhibitAnyPolicy5 CA
issuer=/C=US/O=Test Certificates/CN=Trust Anchor
-----BEGIN CERTIFICATE-----
MIICmTCCAgKgAwIBAgIBPTANBgkqhkiG9w0BAQUFADBAMQswCQYDVQQGEwJVUzEa
MBgGA1UEChMRVGVzdCBDZXJ0aWZpY2F0ZXMxFTATBgNVBAMTDFRydXN0IEFuY2hv
cjAeFw0wMTA0MTkxNDU3MjBaFw0xMTA0MTkxNDU3MjBaMEgxCzAJBgNVBAYTAlVT
MRowGAYDVQQKExFUZXN0IENlcnRpZmljYXRlczEdMBsGA1UEAxMUaW5oaWJpdEFu
eVBvbGljeTUgQ0EwgZ8wDQYJKoZIhvcNAQEBBQADgY0AMIGJAoGBAJDz7OZ8u34K
hjI6cDaSvyyjIWPPGVdObfPls5iLOT434gz5hx3uyX17mOJnw+/5rOgcqatRDJ1I
mAI1pl0ZUVaaattiyBifI6LONlUpzVOmtr6yotsGY0DiCmtKBJh4geA9jQl/UCou
of64Smt1vsIL3SqiWkqCg0XFrXpTCCz1AgMBAAGjgZowgZcwHwYDVR0jBBgwFoAU
+2zULYGeyid6ng2wPOqavIf/SeowHQYDVR0OBBYEFMYAjHGmmWKmf9JUb/JuBMow
tTq/MA4GA1UdDwEB/wQEAwIBBjAXBgNVHSAEEDAOMAwGCmCGSAFlAwIBMAEwDwYD
VR0TAQH/BAUwAwEB/zAMBgNVHSQEBTADgAEAMA0GA1UdNgEB/wQDAgEFMA0GCSqG
SIb3DQEBBQUAA4GBAGt+M+PIMRTWFAO2C58l6vCjg40P4NFF6B3LWjGcpPnRDYP4
injOp/wD4IVvnXRpIFOq59qlJzmOJJDxCHGB11jkkxJK0v+pi7gvDrDw2av8wznR
K735aiuC7KCpEy7tQ59Ive9M8PPOuQ+Vd3CgKhv0GuGNb/6M+3cojz0fCNx6
-----END CERTIFICATE-----

Certificate Revocation List (CRL):
        Version 2 (0x1)
        Signature Algorithm: sha1WithRSAEncryption
        Issuer: /C=US/O=Test Certificates/CN=inhibitAnyPolicy5 CA
        Last Update: Apr 19 14:57:20 2001 GMT
        Next Update: Apr 19 14:57:20 2011 GMT
        CRL extensions:
            X509v3 Authority Key Identifier: 
                keyid:C6:00:8C:71:A6:99:62:A6:7F:D2:54:6F:F2:6E:04:CA:30:B5:3A:BF

            X509v3 CRL Number: 
                1
No Revoked Certificates.
    Signature Algorithm: sha1WithRSAEncryption
        4e:c7:09:29:78:ea:ef:43:a3:de:f8:6f:a5:b6:13:f2:ac:8e:
        93:7b:ce:f9:4f:12:e3:48:f5:f5:1e:47:b1:39:20:b4:ce:33:
        ea:bc:72:c1:11:a0:ab:75:59:68:03:68:dd:c8:96:02:1d:73:
        7f:fa:39:9d:2a:88:ce:53:d0:3d:73:27:d3:61:6f:d3:75:01:
        f2:2f:f8:02:cb:d4:00:63:71:eb:0c:84:19:10:d9:ac:48:6d:
        77:8f:3a:23:36:9a:63:98:4d:9a:16:bd:bd:08:1d:77:4b:59:
        98:21:d2:89:fd:1a:f5:f0:70:86:40:08:c5:be:59:5f:de:a8:
        fb:f2
-----BEGIN X509 CRL-----
MIIBQTCBqwIBATANBgkqhkiG9w0BAQUFADBIMQswCQYDVQQGEwJVUzEaMBgGA1UE
ChMRVGVzdCBDZXJ0aWZpY2F0ZXMxHTAbBgNVBAMTFGluaGliaXRBbnlQb2xpY3k1
IENBFw0wMTA0MTkxNDU3MjBaFw0xMTA0MTkxNDU3MjBaoC8wLTAfBgNVHSMEGDAW
gBTGAIxxpplipn/SVG/ybgTKMLU6vzAKBgNVHRQEAwIBATANBgkqhkiG9w0BAQUF
AAOBgQBOxwkpeOrvQ6Pe+G+lthPyrI6Te875TxLjSPX1HkexOSC0zjPqvHLBEaCr
dVloA2jdyJYCHXN/+jmdKojOU9A9cyfTYW/TdQHyL/gCy9QAY3HrDIQZENmsSG13
jzojNppjmE2aFr29CB13S1mYIdKJ/Rr18HCGQAjFvllf3qj78g==
-----END X509 CRL-----

Certificate Revocation List (CRL):
        Version 2 (0x1)
        Signature Algorithm: sha1WithRSAEncryption
        Issuer: /C=US/O=Test Certificates/CN=inhibitAnyPolicy5 subCA
        Last Update: Apr 19 14:57:20 2001 GMT
        Next Update: Apr 19 14:57:20 2011 GMT
        CRL extensions:
            X509v3 Authority Key Identifier: 
                keyid:4A:77:62:58:23:07:A2:C3:B9:EE:C7:6E:DF:ED:00:89:88:4D:97:6F

            X509v3 CRL Number: 
                1
No Revoked Certificates.
    Signature Algorithm: sha1WithRSAEncryption
        86:aa:0d:7c:0b:72:97:47:34:6d:6c:97:58:2d:d9:6a:0d:c5:
        8c:df:04:31:39:f7:22:cf:a8:20:3f:06:71:91:7b:72:cc:08:
        ae:bd:b5:c6:21:ec:95:a9:7c:95:8a:4d:b0:f5:ab:ff:0f:bf:
        5c:24:8f:01:fd:f6:1b:d2:08:61:ef:d0:8a:6e:84:29:cf:6c:
        32:bd:79:b6:bb:e1:cb:71:c9:ef:eb:17:14:fd:ca:87:4d:c9:
        54:5b:47:ee:f9:39:c4:9c:c2:fd:64:0e:2b:66:8d:0a:a8:6c:
        83:9b:07:e4:fa:5d:8a:34:91:99:e9:9a:0d:34:60:7c:0c:20:
        ba:44
-----BEGIN X509 CRL-----
MIIBRDCBrgIBATANBgkqhkiG9w0BAQUFADBLMQswCQYDVQQGEwJVUzEaMBgGA1UE
ChMRVGVzdCBDZXJ0aWZpY2F0ZXMxIDAeBgNVBAMTF2luaGliaXRBbnlQb2xpY3k1
IHN1YkNBFw0wMTA0MTkxNDU3MjBaFw0xMTA0MTkxNDU3MjBaoC8wLTAfBgNVHSME
GDAWgBRKd2JYIweiw7nux27f7QCJiE2XbzAKBgNVHRQEAwIBATANBgkqhkiG9w0B
AQUFAAOBgQCGqg18C3KXRzRtbJdYLdlqDcWM3wQxOfciz6ggPwZxkXtyzAiuvbXG
IeyVqXyVik2w9av/D79cJI8B/fYb0ghh79CKboQpz2wyvXm2u+HLccnv6xcU/cqH
TclUW0fu+TnEnML9ZA4rZo0KqGyDmwfk+l2KNJGZ6ZoNNGB8DCC6RA==
-----END X509 CRL-----

Certificate Revocation List (CRL):
        Version 2 (0x1)
        Signature Algorithm: sha1WithRSAEncryption
        Issuer: /C=US/O=Test Certificates/CN=inhibitAnyPolicy5 subsubCA
        Last Update: Apr 19 14:57:20 2001 GMT
        Next Update: Apr 19 14:57:20 2011 GMT
        CRL extensions:
            X509v3 Authority Key Identifier: 
                keyid:73:10:04:F9:0C:F4:64:9C:B2:F1:1B:8D:EF:B7:55:AA:A4:A2:19:AF

            X509v3 CRL Number: 
                1
No Revoked Certificates.
    Signature Algorithm: sha1WithRSAEncryption
        1d:c7:8a:0a:91:d4:7e:b5:29:3b:00:db:72:e0:8f:61:ef:9a:
        d1:b2:cc:11:bb:06:bb:aa:dd:6b:aa:76:8a:44:f5:57:b4:d2:
        ae:b5:28:29:7b:eb:06:a6:1c:c9:de:0c:61:d5:f4:6d:df:76:
        ee:9f:d4:00:6b:29:2d:15:18:e6:cb:02:52:4b:48:38:4c:b1:
        ed:4e:50:1d:60:68:92:85:86:b5:fb:98:d5:b5:1a:52:ba:a1:
        7e:d8:22:fe:b4:f1:04:b6:8b:6d:cc:5f:1f:dd:25:a2:a6:42:
        f0:13:60:de:bf:2e:fb:d6:38:dd:ed:ec:ea:7c:dd:5d:f0:a7:
        4a:c3
-----BEGIN X509 CRL-----
MIIBRzCBsQIBATANBgkqhkiG9w0BAQUFADBOMQswCQYDVQQGEwJVUzEaMBgGA1UE
ChMRVGVzdCBDZXJ0aWZpY2F0ZXMxIzAhBgNVBAMTGmluaGliaXRBbnlQb2xpY3k1
IHN1YnN1YkNBFw0wMTA0MTkxNDU3MjBaFw0xMTA0MTkxNDU3MjBaoC8wLTAfBgNV
HSMEGDAWgBRzEAT5DPRknLLxG43vt1WqpKIZrzAKBgNVHRQEAwIBATANBgkqhkiG
9w0BAQUFAAOBgQAdx4oKkdR+tSk7ANty4I9h75rRsswRuwa7qt1rqnaKRPVXtNKu
tSgpe+sGphzJ3gxh1fRt33bun9QAayktFRjmywJSS0g4TLHtTlAdYGiShYa1+5jV
tRpSuqF+2CL+tPEEtottzF8f3SWipkLwE2Devy771jjd7ezqfN1d8KdKww==
-----END X509 CRL-----

Certificate Revocation List (CRL):
        Version 2 (0x1)
        Signature Algorithm: sha1WithRSAEncryption
        Issuer: /C=US/O=Test Certificates/CN=Trust Anchor
        Last Update: Apr 19 14:57:20 2001 GMT
        Next Update: Apr 19 14:57:20 2011 GMT
        CRL extensions:
            X509v3 Authority Key Identifier: 
                keyid:FB:6C:D4:2D:81:9E:CA:27:7A:9E:0D:B0:3C:EA:9A:BC:87:FF:49:EA

            X509v3 CRL Number: 
                1
Revoked Certificates:
    Serial Number: 68
        Revocation Date: Apr 19 14:57:20 2001 GMT
        CRL entry extensions:
            X509v3 CRL Reason Code: 
                Key Compromise
    Signature Algorithm: sha1WithRSAEncryption
        92:12:c4:34:b4:92:ab:ba:71:6b:74:31:16:ce:ed:25:d6:4b:
        1e:fa:f8:20:1e:9d:d7:7f:30:ed:15:f7:8b:5d:64:9b:dd:31:
        40:e4:55:0f:0c:5f:82:69:63:00:76:a5:cf:9e:c4:5f:f2:53:
        9b:9b:7d:f5:69:1d:74:57:38:70:e5:fb:5b:76:58:c9:ec:31:
        dc:94:1b:02:ee:9d:33:9c:38:4b:29:1d:e1:0c:29:8b:6e:c7:
        bf:a0:e8:40:34:83:cf:ff:9f:cd:b5:f7:d9:4d:a7:9f:2e:bf:
        44:98:6b:f2:d3:fe:a8:20:31:c1:33:76:b7:1c:19:65:4d:b9:
        14:39
-----BEGIN X509 CRL-----
MIIBXTCBxwIBATANBgkqhkiG9w0BAQUFADBAMQswCQYDVQQGEwJVUzEaMBgGA1UE
ChMRVGVzdCBDZXJ0aWZpY2F0ZXMxFTATBgNVBAMTDFRydXN0IEFuY2hvchcNMDEw
NDE5MTQ1NzIwWhcNMTEwNDE5MTQ1NzIwWjAiMCACAWgXDTAxMDQxOTE0NTcyMFow
DDAKBgNVHRUEAwoBAaAvMC0wHwYDVR0jBBgwFoAU+2zULYGeyid6ng2wPOqavIf/
SeowCgYDVR0UBAMCAQEwDQYJKoZIhvcNAQEFBQADgYEAkhLENLSSq7pxa3QxFs7t
JdZLHvr4IB6d138w7RX3i11km90xQORVDwxfgmljAHalz57EX/JTm5t99WkddFc4
cOX7W3ZYyewx3JQbAu6dM5w4Sykd4Qwpi27Hv6DoQDSDz/+fzbX32U2nny6/RJhr
8tP+qCAxwTN2txwZZU25FDk=
-----END X509 CRL-----

