subject=/C=US/O=Test Certificates/CN=keyUsage Not Critical cRLSign False CA
issuer=/C=US/O=Test Certificates/CN=Trust Anchor
-----BEGIN CERTIFICATE-----
MIICiTCCAfKgAwIBAgIBITANBgkqhkiG9w0BAQUFADBAMQswCQYDVQQGEwJVUzEa
MBgGA1UEChMRVGVzdCBDZXJ0aWZpY2F0ZXMxFTATBgNVBAMTDFRydXN0IEFuY2hv
cjAeFw0wMTA0MTkxNDU3MjBaFw0xMTA0MTkxNDU3MjBaMFoxCzAJBgNVBAYTAlVT
MRowGAYDVQQKExFUZXN0IENlcnRpZmljYXRlczEvMC0GA1UEAxMma2V5VXNhZ2Ug
Tm90IENyaXRpY2FsIGNSTFNpZ24gRmFsc2UgQ0EwgZ8wDQYJKoZIhvcNAQEBBQAD
gY0AMIGJAoGBAMLOm8AZjGbhdJ7A5TMeS8YqKDv+sSvYbu/N0xYhBYw9btWqMvhg
UQRchnPigIMNH270hJTB0xUODgi5kEfd3aMcqP4p7092jT7nGwWiWqMfcOiDob/B
jwJbfa/pcDWtLtL9gGu3mD5phBMV422/vXk7DNPVTOsm0LK+kYcbkutzAgMBAAGj
eTB3MB8GA1UdIwQYMBaAFPts1C2Bnsonep4NsDzqmryH/0nqMB0GA1UdDgQWBBSb
FqRb5CIAWLVWFP8usoK/Iuj2+DALBgNVHQ8EBAMCAgQwFwYDVR0gBBAwDjAMBgpg
hkgBZQMCATABMA8GA1UdEwEB/wQFMAMBAf8wDQYJKoZIhvcNAQEFBQADgYEAXayz
RGBvRtkZyRHdFZY+3aIHHo7AdgjRSbvWFShHnbrZnd2E8mbkkk5NH7sD6IQygi5b
6s2ZEpMFRDc8NNSG1Qh5NagIp8Wguyqa8HgSA15CytfKd9nDdIY8NSFPiqXCXIOp
AXIf+LI9d8QnF/zOuRdKQiX26iVbh/Ofiij5b8s=
-----END CERTIFICATE-----

subject=/C=US/O=Test Certificates/CN=Invalid keyUsage Not Critical cRLSign False EE Certificate Test5
issuer=/C=US/O=Test Certificates/CN=keyUsage Not Critical cRLSign False CA
-----BEGIN CERTIFICATE-----
MIICrzCCAhigAwIBAgIBATANBgkqhkiG9w0BAQUFADBaMQswCQYDVQQGEwJVUzEa
MBgGA1UEChMRVGVzdCBDZXJ0aWZpY2F0ZXMxLzAtBgNVBAMTJmtleVVzYWdlIE5v
dCBDcml0aWNhbCBjUkxTaWduIEZhbHNlIENBMB4XDTAxMDQxOTE0NTcyMFoXDTEx
MDQxOTE0NTcyMFowdDELMAkGA1UEBhMCVVMxGjAYBgNVBAoTEVRlc3QgQ2VydGlm
aWNhdGVzMUkwRwYDVQQDE0BJbnZhbGlkIGtleVVzYWdlIE5vdCBDcml0aWNhbCBj
UkxTaWduIEZhbHNlIEVFIENlcnRpZmljYXRlIFRlc3Q1MIGfMA0GCSqGSIb3DQEB
AQUAA4GNADCBiQKBgQCniZx3i5eOoYfB4+DHDtBDWS3+uKOzezExgLASJeRuST/z
FBDywPOCHD9BqbsVdo+fQMjOEBs5C2QePhrQmo36vBpuTGeS6o0ZwnPqZEiR7BDm
BhaU5GfHWArITIQqqKeGMrcd6inS3EgiNfLoIgErgIYUE2Ay7N3jNAkZ+gHFsQID
AQABo2swaTAfBgNVHSMEGDAWgBSbFqRb5CIAWLVWFP8usoK/Iuj2+DAdBgNVHQ4E
FgQUO/h+SZvyJuF7i3RkSFnq+ekut+kwDgYDVR0PAQH/BAQDAgTwMBcGA1UdIAQQ
MA4wDAYKYIZIAWUDAgEwATANBgkqhkiG9w0BAQUFAAOBgQB63lqdcOrQ5elffexi
Pm+erQomlHA4QBd/o7W9oGu3wh9o/OxaXUX+q1y/xsFQPWY8rnd9WX2K/GbDnAkg
b9VumR4AI31DBsR9ON1LP252rSHzpH5VeLVX4yp+RU1J6VvXAFXD3RgVwYE16JFC
NKsFf0HL8FRjpLQp9+/qcp6A7Q==
-----END CERTIFICATE-----

Certificate Revocation List (CRL):
        Version 2 (0x1)
        Signature Algorithm: sha1WithRSAEncryption
        Issuer: /C=US/O=Test Certificates/CN=keyUsage Not Critical cRLSign False CA
        Last Update: Apr 19 14:57:20 2001 GMT
        Next Update: Apr 19 14:57:20 2011 GMT
        CRL extensions:
            X509v3 Authority Key Identifier: 
                keyid:9B:16:A4:5B:E4:22:00:58:B5:56:14:FF:2E:B2:82:BF:22:E8:F6:F8

            X509v3 CRL Number: 
                1
No Revoked Certificates.
    Signature Algorithm: sha1WithRSAEncryption
        09:d0:9f:43:ea:14:8b:96:bc:51:a7:26:e2:ad:a1:d9:85:d4:
        c4:54:67:72:3b:27:b9:51:74:ca:a5:72:a2:88:21:2d:f0:46:
        21:ca:5e:36:02:5f:bb:9c:1f:a4:84:63:64:8a:52:5a:17:b8:
        d5:5f:3f:d5:73:38:f0:f5:7e:e3:59:80:ef:1a:70:89:da:37:
        d4:b1:31:4a:94:01:ea:c9:71:98:aa:c4:ae:e2:8c:18:ab:7d:
        a9:7a:fc:23:1b:57:ee:90:81:0e:29:4b:c6:1f:78:2f:65:4d:
        38:df:f9:6e:74:90:71:57:a1:aa:06:4a:8a:a9:15:ab:87:17:
        1a:ee
-----BEGIN X509 CRL-----
MIIBUzCBvQIBATANBgkqhkiG9w0BAQUFADBaMQswCQYDVQQGEwJVUzEaMBgGA1UE
ChMRVGVzdCBDZXJ0aWZpY2F0ZXMxLzAtBgNVBAMTJmtleVVzYWdlIE5vdCBDcml0
aWNhbCBjUkxTaWduIEZhbHNlIENBFw0wMTA0MTkxNDU3MjBaFw0xMTA0MTkxNDU3
MjBaoC8wLTAfBgNVHSMEGDAWgBSbFqRb5CIAWLVWFP8usoK/Iuj2+DAKBgNVHRQE
AwIBATANBgkqhkiG9w0BAQUFAAOBgQAJ0J9D6hSLlrxRpybiraHZhdTEVGdyOye5
UXTKpXKiiCEt8EYhyl42Al+7nB+khGNkilJaF7jVXz/Vczjw9X7jWYDvGnCJ2jfU
sTFKlAHqyXGYqsSu4owYq32pevwjG1fukIEOKUvGH3gvZU043/ludJBxV6GqBkqK
qRWrhxca7g==
-----END X509 CRL-----

Certificate Revocation List (CRL):
        Version 2 (0x1)
        Signature Algorithm: sha1WithRSAEncryption
        Issuer: /C=US/O=Test Certificates/CN=Trust Anchor
        Last Update: Apr 19 14:57:20 2001 GMT
        Next Update: Apr 19 14:57:20 2011 GMT
        CRL extensions:
            X509v3 Authority Key Identifier: 
                keyid:FB:6C:D4:2D:81:9E:CA:27:7A:9E:0D:B0:3C:EA:9A:BC:87:FF:49:EA

            X509v3 CRL Number: 
                1
Revoked Certificates:
    Serial Number: 68
        Revocation Date: Apr 19 14:57:20 2001 GMT
        CRL entry extensions:
            X509v3 CRL Reason Code: 
                Key Compromise
    Signature Algorithm: sha1WithRSAEncryption
        92:12:c4:34:b4:92:ab:ba:71:6b:74:31:16:ce:ed:25:d6:4b:
        1e:fa:f8:20:1e:9d:d7:7f:30:ed:15:f7:8b:5d:64:9b:dd:31:
        40:e4:55:0f:0c:5f:82:69:63:00:76:a5:cf:9e:c4:5f:f2:53:
        9b:9b:7d:f5:69:1d:74:57:38:70:e5:fb:5b:76:58:c9:ec:31:
        dc:94:1b:02:ee:9d:33:9c:38:4b:29:1d:e1:0c:29:8b:6e:c7:
        bf:a0:e8:40:34:83:cf:ff:9f:cd:b5:f7:d9:4d:a7:9f:2e:bf:
        44:98:6b:f2:d3:fe:a8:20:31:c1:33:76:b7:1c:19:65:4d:b9:
        14:39
-----BEGIN X509 CRL-----
MIIBXTCBxwIBATANBgkqhkiG9w0BAQUFADBAMQswCQYDVQQGEwJVUzEaMBgGA1UE
ChMRVGVzdCBDZXJ0aWZpY2F0ZXMxFTATBgNVBAMTDFRydXN0IEFuY2hvchcNMDEw
NDE5MTQ1NzIwWhcNMTEwNDE5MTQ1NzIwWjAiMCACAWgXDTAxMDQxOTE0NTcyMFow
DDAKBgNVHRUEAwoBAaAvMC0wHwYDVR0jBBgwFoAU+2zULYGeyid6ng2wPOqavIf/
SeowCgYDVR0UBAMCAQEwDQYJKoZIhvcNAQEFBQADgYEAkhLENLSSq7pxa3QxFs7t
JdZLHvr4IB6d138w7RX3i11km90xQORVDwxfgmljAHalz57EX/JTm5t99WkddFc4
cOX7W3ZYyewx3JQbAu6dM5w4Sykd4Qwpi27Hv6DoQDSDz/+fzbX32U2nny6/RJhr
8tP+qCAxwTN2txwZZU25FDk=
-----END X509 CRL-----

