subject=/C=US/O=Test Certificates/CN=Invalid Mapping To anyPolicy EE Certificate Test8
issuer=/C=US/O=Test Certificates/CN=Mapping To anyPolicy CA
-----BEGIN CERTIFICATE-----
MIICizCCAfSgAwIBAgIBATANBgkqhkiG9w0BAQUFADBLMQswCQYDVQQGEwJVUzEa
MBgGA1UEChMRVGVzdCBDZXJ0aWZpY2F0ZXMxIDAeBgNVBAMTF01hcHBpbmcgVG8g
YW55UG9saWN5IENBMB4XDTAxMDQxOTE0NTcyMFoXDTExMDQxOTE0NTcyMFowZTEL
MAkGA1UEBhMCVVMxGjAYBgNVBAoTEVRlc3QgQ2VydGlmaWNhdGVzMTowOAYDVQQD
EzFJbnZhbGlkIE1hcHBpbmcgVG8gYW55UG9saWN5IEVFIENlcnRpZmljYXRlIFRl
c3Q4MIGfMA0GCSqGSIb3DQEBAQUAA4GNADCBiQKBgQC1bl/gTqVbi6yVtJxnXxNx
DlekTcCxPmcwCs7HEqTWzpbyvYxgoXfNIP7bjtabs/IK9+SG1YQpqAHt/UFImBzC
jdgEBzfRwt2eGR4wSeGN09s2jAjT2aq9dbkF+Ib99D2DNKjlPKBbb4GeNWnNEDno
yf4eZEPAx8P3QSsAfUqocQIDAQABo2UwYzAfBgNVHSMEGDAWgBS6gMx6LKdjWhCr
Tj+ExFNVCmn6HTAdBgNVHQ4EFgQUm+ENjbV3/gxDFuaWw6Dwa1YRk3swDgYDVR0P
AQH/BAQDAgTwMBEGA1UdIAQKMAgwBgYEVR0gADANBgkqhkiG9w0BAQUFAAOBgQCQ
H92kSHC9YZU7taUlRQda3eEkg775JMosyIMd1DwSzbT/wRoWU7/6BnsV99dq1Ja8
2pZn316o7wfz6POeSg/VzNFd4HC+j84NTUMBrFt/SSdoqh1CkUXNAKbqffDzn4gN
Sry4MX5zRGXwI3GYFol9TnNutj6HQl9Tr3iolkPufg==
-----END CERTIFICATE-----

subject=/C=US/O=Test Certificates/CN=Mapping To anyPolicy CA
issuer=/C=US/O=Test Certificates/CN=Trust Anchor
-----BEGIN CERTIFICATE-----
MIICsjCCAhugAwIBAgIBNDANBgkqhkiG9w0BAQUFADBAMQswCQYDVQQGEwJVUzEa
MBgGA1UEChMRVGVzdCBDZXJ0aWZpY2F0ZXMxFTATBgNVBAMTDFRydXN0IEFuY2hv
cjAeFw0wMTA0MTkxNDU3MjBaFw0xMTA0MTkxNDU3MjBaMEsxCzAJBgNVBAYTAlVT
MRowGAYDVQQKExFUZXN0IENlcnRpZmljYXRlczEgMB4GA1UEAxMXTWFwcGluZyBU
byBhbnlQb2xpY3kgQ0EwgZ8wDQYJKoZIhvcNAQEBBQADgY0AMIGJAoGBAJrojWZR
mKqz0wTzKWxK+BvdLHiNYkl7deU8v1nJqthPCd0D2ZxiM1IwaskiG9Nm+sO+91AZ
pk/QFCW8XKa70to819onqj29QyYeO8ukMtlXuLI0pXVjyN4cWxfHH9o5IUH897/t
hcTbFWYC1+TqZUNaPASnCw67YZejfdZZtD4VAgMBAAGjgbAwga0wHwYDVR0jBBgw
FoAU+2zULYGeyid6ng2wPOqavIf/SeowHQYDVR0OBBYEFLqAzHosp2NaEKtOP4TE
U1UKafodMA4GA1UdDwEB/wQEAwIBBjAXBgNVHSAEEDAOMAwGCmCGSAFlAwIBMAEw
IAYDVR0hAQH/BBYwFDASBgpghkgBZQMCATABBgRVHSAAMA8GA1UdEwEB/wQFMAMB
Af8wDwYDVR0kAQH/BAUwA4ABADANBgkqhkiG9w0BAQUFAAOBgQC4HMzKV0x+spl2
wCvBKf+ArCiSCklHEDKpj3HrJ7zIH1lqU73rZjOJQB3hsnSMYEB+ch4DQNDzOQIB
bGspRwEeTIRjZ1u6CZ9h+kIVu2R4eyfq9mNYOvYFeY/kB/zwrMQnoeJtJ9sQ6IQi
rwtT53uxl1gZv4pBZRIURDq8KEyoUQ==
-----END CERTIFICATE-----

Certificate Revocation List (CRL):
        Version 2 (0x1)
        Signature Algorithm: sha1WithRSAEncryption
        Issuer: /C=US/O=Test Certificates/CN=Mapping To anyPolicy CA
        Last Update: Apr 19 14:57:20 2001 GMT
        Next Update: Apr 19 14:57:20 2011 GMT
        CRL extensions:
            X509v3 Authority Key Identifier: 
                keyid:BA:80:CC:7A:2C:A7:63:5A:10:AB:4E:3F:84:C4:53:55:0A:69:FA:1D

            X509v3 CRL Number: 
                1
No Revoked Certificates.
    Signature Algorithm: sha1WithRSAEncryption
        92:da:09:1f:2a:48:11:8d:5a:7b:8f:a6:74:bc:32:70:4a:03:
        30:8b:f1:26:b4:cf:a0:9c:9d:89:84:98:71:48:4f:93:09:59:
        08:c0:07:e4:65:bf:12:ca:49:90:3d:36:f3:31:83:3e:34:b3:
        9a:df:d3:a4:f6:7d:cb:ee:5b:1e:cf:e0:70:25:94:0e:0e:54:
        9c:32:4a:50:41:ea:bf:f4:57:d3:53:02:7c:c7:bc:d4:04:a9:
        9f:36:51:04:26:6f:37:1f:62:8a:ea:f7:7b:2f:d1:24:53:17:
        de:db:e1:ce:89:00:3e:71:23:73:b2:da:af:79:f7:4a:2b:a4:
        2a:bb
-----BEGIN X509 CRL-----
MIIBRDCBrgIBATANBgkqhkiG9w0BAQUFADBLMQswCQYDVQQGEwJVUzEaMBgGA1UE
ChMRVGVzdCBDZXJ0aWZpY2F0ZXMxIDAeBgNVBAMTF01hcHBpbmcgVG8gYW55UG9s
aWN5IENBFw0wMTA0MTkxNDU3MjBaFw0xMTA0MTkxNDU3MjBaoC8wLTAfBgNVHSME
GDAWgBS6gMx6LKdjWhCrTj+ExFNVCmn6HTAKBgNVHRQEAwIBATANBgkqhkiG9w0B
AQUFAAOBgQCS2gkfKkgRjVp7j6Z0vDJwSgMwi/EmtM+gnJ2JhJhxSE+TCVkIwAfk
Zb8SykmQPTbzMYM+NLOa39Ok9n3L7lsez+BwJZQODlScMkpQQeq/9FfTUwJ8x7zU
BKmfNlEEJm83H2KK6vd7L9EkUxfe2+HOiQA+cSNzstqvefdKK6Qquw==
-----END X509 CRL-----

Certificate Revocation List (CRL):
        Version 2 (0x1)
        Signature Algorithm: sha1WithRSAEncryption
        Issuer: /C=US/O=Test Certificates/CN=Trust Anchor
        Last Update: Apr 19 14:57:20 2001 GMT
        Next Update: Apr 19 14:57:20 2011 GMT
        CRL extensions:
            X509v3 Authority Key Identifier: 
                keyid:FB:6C:D4:2D:81:9E:CA:27:7A:9E:0D:B0:3C:EA:9A:BC:87:FF:49:EA

            X509v3 CRL Number: 
                1
Revoked Certificates:
    Serial Number: 68
        Revocation Date: Apr 19 14:57:20 2001 GMT
        CRL entry extensions:
            X509v3 CRL Reason Code: 
                Key Compromise
    Signature Algorithm: sha1WithRSAEncryption
        92:12:c4:34:b4:92:ab:ba:71:6b:74:31:16:ce:ed:25:d6:4b:
        1e:fa:f8:20:1e:9d:d7:7f:30:ed:15:f7:8b:5d:64:9b:dd:31:
        40:e4:55:0f:0c:5f:82:69:63:00:76:a5:cf:9e:c4:5f:f2:53:
        9b:9b:7d:f5:69:1d:74:57:38:70:e5:fb:5b:76:58:c9:ec:31:
        dc:94:1b:02:ee:9d:33:9c:38:4b:29:1d:e1:0c:29:8b:6e:c7:
        bf:a0:e8:40:34:83:cf:ff:9f:cd:b5:f7:d9:4d:a7:9f:2e:bf:
        44:98:6b:f2:d3:fe:a8:20:31:c1:33:76:b7:1c:19:65:4d:b9:
        14:39
-----BEGIN X509 CRL-----
MIIBXTCBxwIBATANBgkqhkiG9w0BAQUFADBAMQswCQYDVQQGEwJVUzEaMBgGA1UE
ChMRVGVzdCBDZXJ0aWZpY2F0ZXMxFTATBgNVBAMTDFRydXN0IEFuY2hvchcNMDEw
NDE5MTQ1NzIwWhcNMTEwNDE5MTQ1NzIwWjAiMCACAWgXDTAxMDQxOTE0NTcyMFow
DDAKBgNVHRUEAwoBAaAvMC0wHwYDVR0jBBgwFoAU+2zULYGeyid6ng2wPOqavIf/
SeowCgYDVR0UBAMCAQEwDQYJKoZIhvcNAQEFBQADgYEAkhLENLSSq7pxa3QxFs7t
JdZLHvr4IB6d138w7RX3i11km90xQORVDwxfgmljAHalz57EX/JTm5t99WkddFc4
cOX7W3ZYyewx3JQbAu6dM5w4Sykd4Qwpi27Hv6DoQDSDz/+fzbX32U2nny6/RJhr
8tP+qCAxwTN2txwZZU25FDk=
-----END X509 CRL-----

