subject=/C=US/O=Test Certificates/CN=Old CRL nextUpdate CA
issuer=/C=US/O=Test Certificates/CN=Trust Anchor
-----BEGIN CERTIFICATE-----
MIICezCCAeSgAwIBAgIBDjANBgkqhkiG9w0BAQUFADBAMQswCQYDVQQGEwJVUzEa
MBgGA1UEChMRVGVzdCBDZXJ0aWZpY2F0ZXMxFTATBgNVBAMTDFRydXN0IEFuY2hv
cjAeFw0wMTA0MTkxNDU3MjBaFw0xMTA0MTkxNDU3MjBaMEkxCzAJBgNVBAYTAlVT
MRowGAYDVQQKExFUZXN0IENlcnRpZmljYXRlczEeMBwGA1UEAxMVT2xkIENSTCBu
ZXh0VXBkYXRlIENBMIGfMA0GCSqGSIb3DQEBAQUAA4GNADCBiQKBgQC3mWvvYS5A
sFNH3PbxcSFtUQ/3TzWlO4y6wINHN6Ypk9Okpx3uHSwBpkQ1N0htmUhGQYFyhzBx
ATrb4vlB4KzylhOwfX0F4cYko464NaCZNL7OzwjzOCgZ8097o6RD+Z2vsM0GmOeD
ycpB9yeqLhC4e30k8dFJqxzCAEJC0Et5swIDAQABo3wwejAfBgNVHSMEGDAWgBT7
bNQtgZ7KJ3qeDbA86pq8h/9J6jAdBgNVHQ4EFgQUwGrz/yOO0EdEUB5DUcJ8XjGJ
zAcwDgYDVR0PAQH/BAQDAgEGMBcGA1UdIAQQMA4wDAYKYIZIAWUDAgEwATAPBgNV
HRMBAf8EBTADAQH/MA0GCSqGSIb3DQEBBQUAA4GBADOSGYLxhRxOj7gm33bTOeiQ
PIlmAlvVtqg+44hgkcovBETHehNU1xBQRF/tdPACobZUA1/0YoyNZTHIY87qLDkJ
Ks0twBDEHmgmadu+IKhutKIZzHSsU9xVfyipeAX7BfgDDeEaRdyPCan3KO9hpbhS
CruOE+/WuIQiY2bS2SPs
-----END CERTIFICATE-----

subject=/C=US/O=Test Certificates/CN=Invalid Old CRL nextUpdate EE Certificate Test11
issuer=/C=US/O=Test Certificates/CN=Old CRL nextUpdate CA
-----BEGIN CERTIFICATE-----
MIICjjCCAfegAwIBAgIBATANBgkqhkiG9w0BAQUFADBJMQswCQYDVQQGEwJVUzEa
MBgGA1UEChMRVGVzdCBDZXJ0aWZpY2F0ZXMxHjAcBgNVBAMTFU9sZCBDUkwgbmV4
dFVwZGF0ZSBDQTAeFw0wMTA0MTkxNDU3MjBaFw0xMTA0MTkxNDU3MjBaMGQxCzAJ
BgNVBAYTAlVTMRowGAYDVQQKExFUZXN0IENlcnRpZmljYXRlczE5MDcGA1UEAxMw
SW52YWxpZCBPbGQgQ1JMIG5leHRVcGRhdGUgRUUgQ2VydGlmaWNhdGUgVGVzdDEx
MIGfMA0GCSqGSIb3DQEBAQUAA4GNADCBiQKBgQCvSHDwBMR2xa4zMZPJ+4WCtp4V
RyIBBXrHretH519ipC4dqURqRrI7/N9ApYs6t/xevUxi+T2rDzXZB8L6x3AhE+BZ
xOknZ/gpSN3du4ofSeM8DT7vzkwkj9S+bdEcU480Om0P40OwnQUIiR92HM8xO5r1
qNrXauV14rf3F461HwIDAQABo2swaTAfBgNVHSMEGDAWgBTAavP/I47QR0RQHkNR
wnxeMYnMBzAdBgNVHQ4EFgQU/pqWPiQxXU/VEoME39jSmPZFApEwDgYDVR0PAQH/
BAQDAgTwMBcGA1UdIAQQMA4wDAYKYIZIAWUDAgEwATANBgkqhkiG9w0BAQUFAAOB
gQC2hDiZpMieKwCdZ3STNKZnLhmmgmcxMnshFx6iQ2B8XIbpY8fNvTUCPf9MMEvP
a+1O7EDTEdrQCEpnKZWExBuB5qpOeP6ddjsedieij7YZUsPCn8aYxz3Cc8uBailz
2ooOjU9ubv3hI/vnWXYKhZZwPdognMfenzqgqVonVkrt7A==
-----END CERTIFICATE-----

Certificate Revocation List (CRL):
        Version 2 (0x1)
        Signature Algorithm: sha1WithRSAEncryption
        Issuer: /C=US/O=Test Certificates/CN=Old CRL nextUpdate CA
        Last Update: Apr 19 14:57:20 2001 GMT
        Next Update: Jan  1 12:01:00 2002 GMT
        CRL extensions:
            X509v3 Authority Key Identifier: 
                keyid:C0:6A:F3:FF:23:8E:D0:47:44:50:1E:43:51:C2:7C:5E:31:89:CC:07

            X509v3 CRL Number: 
                1
No Revoked Certificates.
    Signature Algorithm: sha1WithRSAEncryption
        09:dc:b4:50:29:96:87:a1:e0:b8:2e:39:6e:17:6e:95:7c:a2:
        45:a8:24:5d:ce:da:6a:00:6f:8c:7a:19:77:5e:d8:d6:ff:63:
        12:a5:68:c5:3e:e2:17:87:57:98:08:d7:2b:26:2e:1b:3d:12:
        56:39:9c:93:8c:0e:c4:ed:19:af:37:4e:9c:2e:4a:54:85:8b:
        54:2f:b2:a5:c9:ca:5a:9c:d2:a7:76:c5:00:1f:92:c0:cb:3e:
        1d:0f:69:63:4c:f9:40:fe:40:d7:17:fa:ae:b2:5f:e2:f4:8b:
        01:b1:2f:bc:7e:8a:b4:05:1a:97:21:8a:84:66:94:ec:5f:fa:
        4d:28
-----BEGIN X509 CRL-----
MIIBQjCBrAIBATANBgkqhkiG9w0BAQUFADBJMQswCQYDVQQGEwJVUzEaMBgGA1UE
ChMRVGVzdCBDZXJ0aWZpY2F0ZXMxHjAcBgNVBAMTFU9sZCBDUkwgbmV4dFVwZGF0
ZSBDQRcNMDEwNDE5MTQ1NzIwWhcNMDIwMTAxMTIwMTAwWqAvMC0wHwYDVR0jBBgw
FoAUwGrz/yOO0EdEUB5DUcJ8XjGJzAcwCgYDVR0UBAMCAQEwDQYJKoZIhvcNAQEF
BQADgYEACdy0UCmWh6HguC45bhdulXyiRagkXc7aagBvjHoZd17Y1v9jEqVoxT7i
F4dXmAjXKyYuGz0SVjmck4wOxO0ZrzdOnC5KVIWLVC+ypcnKWpzSp3bFAB+SwMs+
HQ9pY0z5QP5A1xf6rrJf4vSLAbEvvH6KtAUalyGKhGaU7F/6TSg=
-----END X509 CRL-----

Certificate Revocation List (CRL):
        Version 2 (0x1)
        Signature Algorithm: sha1WithRSAEncryption
        Issuer: /C=US/O=Test Certificates/CN=Trust Anchor
        Last Update: Apr 19 14:57:20 2001 GMT
        Next Update: Apr 19 14:57:20 2011 GMT
        CRL extensions:
            X509v3 Authority Key Identifier: 
                keyid:FB:6C:D4:2D:81:9E:CA:27:7A:9E:0D:B0:3C:EA:9A:BC:87:FF:49:EA

            X509v3 CRL Number: 
                1
Revoked Certificates:
    Serial Number: 68
        Revocation Date: Apr 19 14:57:20 2001 GMT
        CRL entry extensions:
            X509v3 CRL Reason Code: 
                Key Compromise
    Signature Algorithm: sha1WithRSAEncryption
        92:12:c4:34:b4:92:ab:ba:71:6b:74:31:16:ce:ed:25:d6:4b:
        1e:fa:f8:20:1e:9d:d7:7f:30:ed:15:f7:8b:5d:64:9b:dd:31:
        40:e4:55:0f:0c:5f:82:69:63:00:76:a5:cf:9e:c4:5f:f2:53:
        9b:9b:7d:f5:69:1d:74:57:38:70:e5:fb:5b:76:58:c9:ec:31:
        dc:94:1b:02:ee:9d:33:9c:38:4b:29:1d:e1:0c:29:8b:6e:c7:
        bf:a0:e8:40:34:83:cf:ff:9f:cd:b5:f7:d9:4d:a7:9f:2e:bf:
        44:98:6b:f2:d3:fe:a8:20:31:c1:33:76:b7:1c:19:65:4d:b9:
        14:39
-----BEGIN X509 CRL-----
MIIBXTCBxwIBATANBgkqhkiG9w0BAQUFADBAMQswCQYDVQQGEwJVUzEaMBgGA1UE
ChMRVGVzdCBDZXJ0aWZpY2F0ZXMxFTATBgNVBAMTDFRydXN0IEFuY2hvchcNMDEw
NDE5MTQ1NzIwWhcNMTEwNDE5MTQ1NzIwWjAiMCACAWgXDTAxMDQxOTE0NTcyMFow
DDAKBgNVHRUEAwoBAaAvMC0wHwYDVR0jBBgwFoAU+2zULYGeyid6ng2wPOqavIf/
SeowCgYDVR0UBAMCAQEwDQYJKoZIhvcNAQEFBQADgYEAkhLENLSSq7pxa3QxFs7t
JdZLHvr4IB6d138w7RX3i11km90xQORVDwxfgmljAHalz57EX/JTm5t99WkddFc4
cOX7W3ZYyewx3JQbAu6dM5w4Sykd4Qwpi27Hv6DoQDSDz/+fzbX32U2nny6/RJhr
8tP+qCAxwTN2txwZZU25FDk=
-----END X509 CRL-----

