subject=/C=US/O=Test Certificates/CN=inhibitAnyPolicy1 subCA2
issuer=/C=US/O=Test Certificates/CN=inhibitAnyPolicy1 CA
-----BEGIN CERTIFICATE-----
MIICgDCCAemgAwIBAgIBBDANBgkqhkiG9w0BAQUFADBIMQswCQYDVQQGEwJVUzEa
MBgGA1UEChMRVGVzdCBDZXJ0aWZpY2F0ZXMxHTAbBgNVBAMTFGluaGliaXRBbnlQ
b2xpY3kxIENBMB4XDTAxMDQxOTE0NTcyMFoXDTExMDQxOTE0NTcyMFowTDELMAkG
A1UEBhMCVVMxGjAYBgNVBAoTEVRlc3QgQ2VydGlmaWNhdGVzMSEwHwYDVQQDExhp
bmhpYml0QW55UG9saWN5MSBzdWJDQTIwgZ8wDQYJKoZIhvcNAQEBBQADgY0AMIGJ
AoGBAOJaxR70a7a1EjJOHlf9fG9BEsSto4MGr1bnQLMud29/o1aka1mDrcT4ehXL
RT2j2lOFHI+7Cv5UrjI2iI/CWsH+z+PM+sB19pJmrqshzC5FwfeHDzFTUsn8D+5R
WJAx3NZbB++nDKkIIPql/K61Z8VyKD+3k7nNSHvXV+dKCWd3AgMBAAGjdjB0MB8G
A1UdIwQYMBaAFKeFECzgAW7nVCNqd6KPFwSv++MSMB0GA1UdDgQWBBSryEEAJtDV
TOYrVmfs74LEwt3yVTAOBgNVHQ8BAf8EBAMCAQYwEQYDVR0gBAowCDAGBgRVHSAA
MA8GA1UdEwEB/wQFMAMBAf8wDQYJKoZIhvcNAQEFBQADgYEAcBSBfFavoevmu4Jr
Fzz3LyHSA3rWhajms8ZL6AtVPDfyQaJsZizVZqKYejWLXv3jNCri/c5BBB2XTXdD
zAQfwr2W2FfXMkNDUWt95C0NOF7NK5Z2XbmFMGaqn8y/rsYv+Zj7zl98yp0efRKw
JEDyqFgkV/+0sLFjQvvcCdY9ucM=
-----END CERTIFICATE-----

subject=/C=US/O=Test Certificates/CN=inhibitAnyPolicy1 CA
issuer=/C=US/O=Test Certificates/CN=inhibitAnyPolicy1 CA
-----BEGIN CERTIFICATE-----
MIICgjCCAeugAwIBAgIBAzANBgkqhkiG9w0BAQUFADBIMQswCQYDVQQGEwJVUzEa
MBgGA1UEChMRVGVzdCBDZXJ0aWZpY2F0ZXMxHTAbBgNVBAMTFGluaGliaXRBbnlQ
b2xpY3kxIENBMB4XDTAxMDQxOTE0NTcyMFoXDTExMDQxOTE0NTcyMFowSDELMAkG
A1UEBhMCVVMxGjAYBgNVBAoTEVRlc3QgQ2VydGlmaWNhdGVzMR0wGwYDVQQDExRp
bmhpYml0QW55UG9saWN5MSBDQTCBnzANBgkqhkiG9w0BAQEFAAOBjQAwgYkCgYEA
vcxz0dHrlH/i+DaS78z2Y0O98xlH0yo64kCvWxGo//3ZvMZl+wyQwcAOqDnIH20X
Fi+G9BhwuyzlaqMenvEQFImtvvDspxYtq/xqmTHET1+9rkF0f8Ex8uV9VgGGMJFB
Kjax2S+jexoGNro4EeLopi6cOXBgeqwkzcpdi0C3ugECAwEAAaN8MHowHwYDVR0j
BBgwFoAUZtu1lMcFxLM+K5G538io0E0rNEQwHQYDVR0OBBYEFKeFECzgAW7nVCNq
d6KPFwSv++MSMA4GA1UdDwEB/wQEAwIBBjAXBgNVHSAEEDAOMAwGCmCGSAFlAwIB
MAEwDwYDVR0TAQH/BAUwAwEB/zANBgkqhkiG9w0BAQUFAAOBgQDGuWkVLrBfOy6K
Y46FaTMnWYkjBWyjC9mgPrq97h90tejc8Z+5Q7u+WD+f//iSoC19Uy65lnk10g56
UqaqA7zZQ25N28un3YqnKwS1pWrtUGNiAi3vYPUkmwq+6PJvWAcVl56td6OmQOIO
hDwXMBUcDUYTCVAMRY5fiMx7ARRmeQ==
-----END CERTIFICATE-----

subject=/C=US/O=Test Certificates/CN=inhibitAnyPolicy1 subsubCA2
issuer=/C=US/O=Test Certificates/CN=inhibitAnyPolicy1 subCA2
-----BEGIN CERTIFICATE-----
MIIChzCCAfCgAwIBAgIBAjANBgkqhkiG9w0BAQUFADBMMQswCQYDVQQGEwJVUzEa
MBgGA1UEChMRVGVzdCBDZXJ0aWZpY2F0ZXMxITAfBgNVBAMTGGluaGliaXRBbnlQ
b2xpY3kxIHN1YkNBMjAeFw0wMTA0MTkxNDU3MjBaFw0xMTA0MTkxNDU3MjBaME8x
CzAJBgNVBAYTAlVTMRowGAYDVQQKExFUZXN0IENlcnRpZmljYXRlczEkMCIGA1UE
AxMbaW5oaWJpdEFueVBvbGljeTEgc3Vic3ViQ0EyMIGfMA0GCSqGSIb3DQEBAQUA
A4GNADCBiQKBgQCSWo7+2d9aVEIC1GxMTDBcE+ozTf3DLetgbtqH0eb/EK+ZLwVz
cVTjWrdl1UTfNgUR9FkYIxWkXmme/JXqvYFtYTmNiz0Yj4KGpl25Mi4qoxtRFk2M
BKLOpp+oY4PsNGSc5CMRc3sfZHeKe8jZK3nA4G5nv0/KELI4m69QKI7u4wIDAQAB
o3YwdDAfBgNVHSMEGDAWgBSryEEAJtDVTOYrVmfs74LEwt3yVTAdBgNVHQ4EFgQU
Iskd1THdwnbnw9yS/MCFk6rmzc4wDgYDVR0PAQH/BAQDAgEGMBEGA1UdIAQKMAgw
BgYEVR0gADAPBgNVHRMBAf8EBTADAQH/MA0GCSqGSIb3DQEBBQUAA4GBADf72Lgp
rqTepmy2dScOvurWUGzi/mA303snWu2b/DOnZOn2MJmmN2OIau2+7H9N1CVJDq+9
gF97Zy3sIukm2yyJ623TL2sO5JeKNIP87CGXEiuU8qe/7BaW8C4dkm9dE0hIq82/
vPG+JF3KAey6HeGOdaLoj+DyiSWJsJmzb1OC
-----END CERTIFICATE-----

subject=/C=US/O=Test Certificates/CN=inhibitAnyPolicy1 CA
issuer=/C=US/O=Test Certificates/CN=Trust Anchor
-----BEGIN CERTIFICATE-----
MIICmTCCAgKgAwIBAgIBPDANBgkqhkiG9w0BAQUFADBAMQswCQYDVQQGEwJVUzEa
MBgGA1UEChMRVGVzdCBDZXJ0aWZpY2F0ZXMxFTATBgNVBAMTDFRydXN0IEFuY2hv
cjAeFw0wMTA0MTkxNDU3MjBaFw0xMTA0MTkxNDU3MjBaMEgxCzAJBgNVBAYTAlVT
MRowGAYDVQQKExFUZXN0IENlcnRpZmljYXRlczEdMBsGA1UEAxMUaW5oaWJpdEFu
eVBvbGljeTEgQ0EwgZ8wDQYJKoZIhvcNAQEBBQADgY0AMIGJAoGBAM97WBxcmLvJ
SCQLpyIPIhnb86f8mT4hWgvgIiFRNZDdlqrMl5D754iGLwoSRYWm6NZzneNuxpXa
sX+q9JyoOc6/7ZQy37w/cp6Elcq77KWgALd2zRbEAbFOtdy216GpPB+3c9I7msQT
W6bbzzGuqbTxaEEvWptSCBqXuFY6FR+XAgMBAAGjgZowgZcwHwYDVR0jBBgwFoAU
+2zULYGeyid6ng2wPOqavIf/SeowHQYDVR0OBBYEFGbbtZTHBcSzPiuRud/IqNBN
KzREMA4GA1UdDwEB/wQEAwIBBjAXBgNVHSAEEDAOMAwGCmCGSAFlAwIBMAEwDwYD
VR0TAQH/BAUwAwEB/zAMBgNVHSQEBTADgAEAMA0GA1UdNgEB/wQDAgEBMA0GCSqG
SIb3DQEBBQUAA4GBAJTqlrUt2/8sAjVasjqUiKDtFgaFp8ueEU93bKb/90sW+uxF
HCyYOqmVYnjKLDGYR0rR9R9hErIFwlqIz3ff2K6cq7ND2uLm8BctGWmvP3s56y7V
CooCKzBgRilaPqsJw12BrGGjZ4CaYx8ov4puyRW11UjrAcWn/8AIWCmIPuzH
-----END CERTIFICATE-----

subject=/C=US/O=Test Certificates/CN=Invalid Self-Issued inhibitAnyPolicy EE Certificate Test8
issuer=/C=US/O=Test Certificates/CN=inhibitAnyPolicy1 subsubCA2
-----BEGIN CERTIFICATE-----
MIICnTCCAgagAwIBAgIBATANBgkqhkiG9w0BAQUFADBPMQswCQYDVQQGEwJVUzEa
MBgGA1UEChMRVGVzdCBDZXJ0aWZpY2F0ZXMxJDAiBgNVBAMTG2luaGliaXRBbnlQ
b2xpY3kxIHN1YnN1YkNBMjAeFw0wMTA0MTkxNDU3MjBaFw0xMTA0MTkxNDU3MjBa
MG0xCzAJBgNVBAYTAlVTMRowGAYDVQQKExFUZXN0IENlcnRpZmljYXRlczFCMEAG
A1UEAxM5SW52YWxpZCBTZWxmLUlzc3VlZCBpbmhpYml0QW55UG9saWN5IEVFIENl
cnRpZmljYXRlIFRlc3Q4MIGfMA0GCSqGSIb3DQEBAQUAA4GNADCBiQKBgQDQ/9Ia
17vdObtOssUs8md1zwyBeKcC3f6mFfybdaruKZpzVmuAkDJec9ZV+ye3BJUB/5Vd
FE+xni7v7HcxxRwnFHLMDEqoBYuAuMxi8tWDpWAT9bG9tlMH27i6in9PqUFDtMba
A2eI2p7J64Nm+mtNtbwY8obe+0CbvRPJDnBU+wIDAQABo2swaTAfBgNVHSMEGDAW
gBQiyR3VMd3CdufD3JL8wIWTqubNzjAdBgNVHQ4EFgQUON+KAQ3zmTRqwEhvTM0g
vMZUZF4wDgYDVR0PAQH/BAQDAgTwMBcGA1UdIAQQMA4wDAYKYIZIAWUDAgEwATAN
BgkqhkiG9w0BAQUFAAOBgQBxH+ujnhDuJ8w84wkOZvsaXK8TaJMO7AkbWriyl9Bm
rMj0tb0bKud0bFlnK+uuetnpFGNysBArTwGQMpQ8C9KsHDEDVoC5A7TAUXHJgtyG
geWX6fiC8ZBA/LDkDjqLchdfF2r/Enjo84+EbjA28xHQeJt+AMv2PrX41z7EWjjj
dA==
-----END CERTIFICATE-----

Certificate Revocation List (CRL):
        Version 2 (0x1)
        Signature Algorithm: sha1WithRSAEncryption
        Issuer: /C=US/O=Test Certificates/CN=inhibitAnyPolicy1 CA
        Last Update: Apr 19 14:57:20 2001 GMT
        Next Update: Apr 19 14:57:20 2011 GMT
        CRL extensions:
            X509v3 Authority Key Identifier: 
                keyid:66:DB:B5:94:C7:05:C4:B3:3E:2B:91:B9:DF:C8:A8:D0:4D:2B:34:44

            X509v3 CRL Number: 
                1
No Revoked Certificates.
    Signature Algorithm: sha1WithRSAEncryption
        03:a6:22:4b:c0:43:a0:ed:e5:8e:d1:8b:0b:d2:cc:b6:8b:9b:
        21:e8:fc:2f:84:a1:cd:3c:a0:bf:73:be:9a:00:f2:b4:90:e5:
        15:a0:31:87:2b:61:f0:cd:3e:ad:db:d8:2d:91:db:ba:8f:5c:
        fd:95:59:36:0c:ba:0b:f1:79:a9:68:96:a1:2e:14:cc:0b:6a:
        43:93:0a:80:71:b7:3e:8e:3a:da:74:31:5c:1c:ec:82:b9:3c:
        88:ff:6f:51:05:f5:f8:d8:47:c2:9f:3d:3c:5c:98:be:f0:de:
        9d:d8:a6:56:e9:53:62:cd:09:56:91:c7:ea:c8:bb:2e:05:a6:
        38:b5
-----BEGIN X509 CRL-----
MIIBQTCBqwIBATANBgkqhkiG9w0BAQUFADBIMQswCQYDVQQGEwJVUzEaMBgGA1UE
ChMRVGVzdCBDZXJ0aWZpY2F0ZXMxHTAbBgNVBAMTFGluaGliaXRBbnlQb2xpY3kx
IENBFw0wMTA0MTkxNDU3MjBaFw0xMTA0MTkxNDU3MjBaoC8wLTAfBgNVHSMEGDAW
gBRm27WUxwXEsz4rkbnfyKjQTSs0RDAKBgNVHRQEAwIBATANBgkqhkiG9w0BAQUF
AAOBgQADpiJLwEOg7eWO0YsL0sy2i5sh6PwvhKHNPKC/c76aAPK0kOUVoDGHK2Hw
zT6t29gtkdu6j1z9lVk2DLoL8XmpaJahLhTMC2pDkwqAcbc+jjradDFcHOyCuTyI
/29RBfX42EfCnz08XJi+8N6d2KZW6VNizQlWkcfqyLsuBaY4tQ==
-----END X509 CRL-----

Certificate Revocation List (CRL):
        Version 2 (0x1)
        Signature Algorithm: sha1WithRSAEncryption
        Issuer: /C=US/O=Test Certificates/CN=inhibitAnyPolicy1 subCA2
        Last Update: Apr 19 14:57:20 2001 GMT
        Next Update: Apr 19 14:57:20 2011 GMT
        CRL extensions:
            X509v3 Authority Key Identifier: 
                keyid:AB:C8:41:00:26:D0:D5:4C:E6:2B:56:67:EC:EF:82:C4:C2:DD:F2:55

            X509v3 CRL Number: 
                1
No Revoked Certificates.
    Signature Algorithm: sha1WithRSAEncryption
        85:eb:03:68:bb:91:5d:9a:09:2a:f7:5c:73:90:8d:e8:4b:23:
        92:c3:d6:b3:8b:81:ba:d2:b9:dc:a1:e4:48:29:a8:98:cf:59:
        db:2b:1e:de:1a:ce:db:cd:5a:dd:de:f5:f3:91:13:9c:1e:a6:
        c8:4c:d1:ee:24:10:7c:95:df:a0:ed:4d:f9:a5:16:43:89:af:
        18:f6:1c:24:b0:70:9c:62:86:07:f8:0c:e1:61:d6:99:ed:7b:
        88:58:9f:79:d6:3a:1e:ba:aa:52:97:13:5e:00:7d:00:ce:9a:
        d2:34:9f:0d:bc:18:09:f8:10:2d:c5:d2:8f:d7:eb:a9:59:25:
        45:1c
-----BEGIN X509 CRL-----
MIIBRTCBrwIBATANBgkqhkiG9w0BAQUFADBMMQswCQYDVQQGEwJVUzEaMBgGA1UE
ChMRVGVzdCBDZXJ0aWZpY2F0ZXMxITAfBgNVBAMTGGluaGliaXRBbnlQb2xpY3kx
IHN1YkNBMhcNMDEwNDE5MTQ1NzIwWhcNMTEwNDE5MTQ1NzIwWqAvMC0wHwYDVR0j
BBgwFoAUq8hBACbQ1UzmK1Zn7O+CxMLd8lUwCgYDVR0UBAMCAQEwDQYJKoZIhvcN
AQEFBQADgYEAhesDaLuRXZoJKvdcc5CN6EsjksPWs4uButK53KHkSCmomM9Z2yse
3hrO281a3d7185ETnB6myEzR7iQQfJXfoO1N+aUWQ4mvGPYcJLBwnGKGB/gM4WHW
me17iFifedY6HrqqUpcTXgB9AM6a0jSfDbwYCfgQLcXSj9frqVklRRw=
-----END X509 CRL-----

Certificate Revocation List (CRL):
        Version 2 (0x1)
        Signature Algorithm: sha1WithRSAEncryption
        Issuer: /C=US/O=Test Certificates/CN=inhibitAnyPolicy1 subsubCA2
        Last Update: Apr 19 14:57:20 2001 GMT
        Next Update: Apr 19 14:57:20 2011 GMT
        CRL extensions:
            X509v3 Authority Key Identifier: 
                keyid:22:C9:1D:D5:31:DD:C2:76:E7:C3:DC:92:FC:C0:85:93:AA:E6:CD:CE

            X509v3 CRL Number: 
                1
No Revoked Certificates.
    Signature Algorithm: sha1WithRSAEncryption
        1d:88:c0:b5:68:f8:c5:35:0c:66:d2:54:82:7f:06:cd:fb:e4:
        14:7b:81:fd:e0:ff:7f:0c:33:e4:b4:07:82:8e:40:8e:46:36:
        5c:05:8c:72:bc:b9:83:50:2b:c9:d5:23:08:40:c9:a3:47:ca:
        cf:41:15:86:1d:a8:fe:50:a9:ec:75:78:c9:d1:6f:94:00:86:
        c3:05:3d:e4:39:af:b4:a0:9e:07:88:24:fe:66:f9:7b:f5:95:
        7c:dc:08:c5:ca:e4:4c:d3:82:bb:6c:de:07:8a:f2:18:71:ff:
        8b:d2:a0:95:2d:c4:e2:12:37:bf:12:cc:e9:bb:75:de:16:9f:
        86:32
-----BEGIN X509 CRL-----
MIIBSDCBsgIBATANBgkqhkiG9w0BAQUFADBPMQswCQYDVQQGEwJVUzEaMBgGA1UE
ChMRVGVzdCBDZXJ0aWZpY2F0ZXMxJDAiBgNVBAMTG2luaGliaXRBbnlQb2xpY3kx
IHN1YnN1YkNBMhcNMDEwNDE5MTQ1NzIwWhcNMTEwNDE5MTQ1NzIwWqAvMC0wHwYD
VR0jBBgwFoAUIskd1THdwnbnw9yS/MCFk6rmzc4wCgYDVR0UBAMCAQEwDQYJKoZI
hvcNAQEFBQADgYEAHYjAtWj4xTUMZtJUgn8GzfvkFHuB/eD/fwwz5LQHgo5AjkY2
XAWMcry5g1ArydUjCEDJo0fKz0EVhh2o/lCp7HV4ydFvlACGwwU95DmvtKCeB4gk
/mb5e/WVfNwIxcrkTNOCu2zeB4ryGHH/i9KglS3E4hI3vxLM6bt13hafhjI=
-----END X509 CRL-----

Certificate Revocation List (CRL):
        Version 2 (0x1)
        Signature Algorithm: sha1WithRSAEncryption
        Issuer: /C=US/O=Test Certificates/CN=Trust Anchor
        Last Update: Apr 19 14:57:20 2001 GMT
        Next Update: Apr 19 14:57:20 2011 GMT
        CRL extensions:
            X509v3 Authority Key Identifier: 
                keyid:FB:6C:D4:2D:81:9E:CA:27:7A:9E:0D:B0:3C:EA:9A:BC:87:FF:49:EA

            X509v3 CRL Number: 
                1
Revoked Certificates:
    Serial Number: 68
        Revocation Date: Apr 19 14:57:20 2001 GMT
        CRL entry extensions:
            X509v3 CRL Reason Code: 
                Key Compromise
    Signature Algorithm: sha1WithRSAEncryption
        92:12:c4:34:b4:92:ab:ba:71:6b:74:31:16:ce:ed:25:d6:4b:
        1e:fa:f8:20:1e:9d:d7:7f:30:ed:15:f7:8b:5d:64:9b:dd:31:
        40:e4:55:0f:0c:5f:82:69:63:00:76:a5:cf:9e:c4:5f:f2:53:
        9b:9b:7d:f5:69:1d:74:57:38:70:e5:fb:5b:76:58:c9:ec:31:
        dc:94:1b:02:ee:9d:33:9c:38:4b:29:1d:e1:0c:29:8b:6e:c7:
        bf:a0:e8:40:34:83:cf:ff:9f:cd:b5:f7:d9:4d:a7:9f:2e:bf:
        44:98:6b:f2:d3:fe:a8:20:31:c1:33:76:b7:1c:19:65:4d:b9:
        14:39
-----BEGIN X509 CRL-----
MIIBXTCBxwIBATANBgkqhkiG9w0BAQUFADBAMQswCQYDVQQGEwJVUzEaMBgGA1UE
ChMRVGVzdCBDZXJ0aWZpY2F0ZXMxFTATBgNVBAMTDFRydXN0IEFuY2hvchcNMDEw
NDE5MTQ1NzIwWhcNMTEwNDE5MTQ1NzIwWjAiMCACAWgXDTAxMDQxOTE0NTcyMFow
DDAKBgNVHRUEAwoBAaAvMC0wHwYDVR0jBBgwFoAU+2zULYGeyid6ng2wPOqavIf/
SeowCgYDVR0UBAMCAQEwDQYJKoZIhvcNAQEFBQADgYEAkhLENLSSq7pxa3QxFs7t
JdZLHvr4IB6d138w7RX3i11km90xQORVDwxfgmljAHalz57EX/JTm5t99WkddFc4
cOX7W3ZYyewx3JQbAu6dM5w4Sykd4Qwpi27Hv6DoQDSDz/+fzbX32U2nny6/RJhr
8tP+qCAxwTN2txwZZU25FDk=
-----END X509 CRL-----

