subject=/C=US/O=Test Certificates/CN=Good CA
issuer=/C=US/O=Test Certificates/CN=Trust Anchor
-----BEGIN CERTIFICATE-----
MIICbTCCAdagAwIBAgIBAjANBgkqhkiG9w0BAQUFADBAMQswCQYDVQQGEwJVUzEa
MBgGA1UEChMRVGVzdCBDZXJ0aWZpY2F0ZXMxFTATBgNVBAMTDFRydXN0IEFuY2hv
cjAeFw0wMTA0MTkxNDU3MjBaFw0xMTA0MTkxNDU3MjBaMDsxCzAJBgNVBAYTAlVT
MRowGAYDVQQKExFUZXN0IENlcnRpZmljYXRlczEQMA4GA1UEAxMHR29vZCBDQTCB
nzANBgkqhkiG9w0BAQEFAAOBjQAwgYkCgYEArsI1lQuXKwOxSkOVRaPwlhMQtgp0
p7HT4rKLGqojfY0twvMDc4rC9uj97wlh98kkraMx3r0wlllYSQ+Cp9mCCNu/C/Y2
IbZCyG+io4A3Um3q/QGvbHlclmrJb0j0MQi3o88GhE8Q6Vy6SGwFXGpKDJMpLSFp
Pxz8lh7M6J56Ex8CAwEAAaN8MHowHwYDVR0jBBgwFoAU+2zULYGeyid6ng2wPOqa
vIf/SeowHQYDVR0OBBYEFLcupoLLwsi8qHsnRNc1M9+aFZTHMA4GA1UdDwEB/wQE
AwIBBjAXBgNVHSAEEDAOMAwGCmCGSAFlAwIBMAEwDwYDVR0TAQH/BAUwAwEB/zAN
BgkqhkiG9w0BAQUFAAOBgQCOls9+0kEUS71w+KoQhfkVLdAKANXUmGCVZHL1zsya
cPP/Q8IsCNvwjefZpgc0cuhtnHt2uDd0/zYLRmgcvJwfx5vwOfmDN13mMB8Za+cg
3sZ/NI8MqQseKvS3fWqXaK6FJoKLzxId0iUGntbF4c5+rPFArzqM6IE7f9cMD5Fq
rA==
-----END CERTIFICATE-----

subject=/C=US/O=Test Certificates/CN=Invalid Policy Mapping EE Certificate Test10
issuer=/C=US/O=Test Certificates/CN=Good subCA PanyPolicy Mapping 1to2
-----BEGIN CERTIFICATE-----
MIIClzCCAgCgAwIBAgIBATANBgkqhkiG9w0BAQUFADBWMQswCQYDVQQGEwJVUzEa
MBgGA1UEChMRVGVzdCBDZXJ0aWZpY2F0ZXMxKzApBgNVBAMTIkdvb2Qgc3ViQ0Eg
UGFueVBvbGljeSBNYXBwaW5nIDF0bzIwHhcNMDEwNDE5MTQ1NzIwWhcNMTEwNDE5
MTQ1NzIwWjBgMQswCQYDVQQGEwJVUzEaMBgGA1UEChMRVGVzdCBDZXJ0aWZpY2F0
ZXMxNTAzBgNVBAMTLEludmFsaWQgUG9saWN5IE1hcHBpbmcgRUUgQ2VydGlmaWNh
dGUgVGVzdDEwMIGfMA0GCSqGSIb3DQEBAQUAA4GNADCBiQKBgQChB9eTYlpZl1JR
8TrbGxGjxB92HiDmmZ2KLK8LOAzDhLn6pDzsOGwkyo7M6CDyAoWz/eaCmRD1i6qy
QKVu2sn162p7KlvlNyd1JYAVIAPjkGR/a8VfCm9q3N/lRKwsSj/GZIek/8iSW/KC
FdaqSGbsEbHK6Fn8vcQ4Lh4eUroNKwIDAQABo2swaTAfBgNVHSMEGDAWgBSR1+G1
pJYIkfGicS9m2Sd7SoKTmjAdBgNVHQ4EFgQUqFpT/L04k96R6J+5dQbd8YN6qoMw
DgYDVR0PAQH/BAQDAgTwMBcGA1UdIAQQMA4wDAYKYIZIAWUDAgEwATANBgkqhkiG
9w0BAQUFAAOBgQADIM+40SMZ1r8wWXESNPXd8FCdvGJyWdeFjUA0Ads0pN+XIsnC
4sPLYgWB1xdrSQyNdrwkLoyy2UGPHgSTwlhlX7NxZHyfxaMZRN1FKRPHs6alDc/M
603qZ04FrwJd54rHiHLAI5/fgJzZRu5bOUBiDFxW7skEOp/4AiVZG4+8Wg==
-----END CERTIFICATE-----

subject=/C=US/O=Test Certificates/CN=Good subCA PanyPolicy Mapping 1to2
issuer=/C=US/O=Test Certificates/CN=Good CA
-----BEGIN CERTIFICATE-----
MIICtTCCAh6gAwIBAgIBFjANBgkqhkiG9w0BAQUFADA7MQswCQYDVQQGEwJVUzEa
MBgGA1UEChMRVGVzdCBDZXJ0aWZpY2F0ZXMxEDAOBgNVBAMTB0dvb2QgQ0EwHhcN
MDEwNDE5MTQ1NzIwWhcNMTEwNDE5MTQ1NzIwWjBWMQswCQYDVQQGEwJVUzEaMBgG
A1UEChMRVGVzdCBDZXJ0aWZpY2F0ZXMxKzApBgNVBAMTIkdvb2Qgc3ViQ0EgUGFu
eVBvbGljeSBNYXBwaW5nIDF0bzIwgZ8wDQYJKoZIhvcNAQEBBQADgY0AMIGJAoGB
ANGY6UqVJ9oB3KneANaPiYS3vFaEAo7CVhPn358boVTv2/wQv8iwT9MvDcASa4Fi
5kaob+B5k7T8qjNOtxaZJb69UDUDsAYww6r/NK5pkS1KNf7CJZW6/RQC06GsivKO
kQoudXfGEjAMhmHNuEXS4biTlRuVUXJqLPq2yLwAJPZ1AgMBAAGjga0wgaowHwYD
VR0jBBgwFoAUty6mgsvCyLyoeydE1zUz35oVlMcwHQYDVR0OBBYEFJHX4bWklgiR
8aJxL2bZJ3tKgpOaMA4GA1UdDwEB/wQEAwIBBjARBgNVHSAECjAIMAYGBFUdIAAw
JgYDVR0hAQH/BBwwGjAYBgpghkgBZQMCATABBgpghkgBZQMCATACMA8GA1UdEwEB
/wQFMAMBAf8wDAYDVR0kBAUwA4ABADANBgkqhkiG9w0BAQUFAAOBgQBNuXYJvgOn
wez9J/K4ZZhWpMPo/7Qso2S6BAoJh7QdTymJKxD6nDnPwetIpbQkbEtq+V30ZA+o
6v+0cntT/I7cm9JKOXMOKn35BODzS8u5UJTDwWc/l5SA0scCSRfTT9LJambCyz+m
C0/k+v5zw5VpFozVY4FoV4/KnwIhJPuDwg==
-----END CERTIFICATE-----

Certificate Revocation List (CRL):
        Version 2 (0x1)
        Signature Algorithm: sha1WithRSAEncryption
        Issuer: /C=US/O=Test Certificates/CN=Good subCA PanyPolicy Mapping 1to2
        Last Update: Apr 19 14:57:20 2001 GMT
        Next Update: Apr 19 14:57:20 2011 GMT
        CRL extensions:
            X509v3 Authority Key Identifier: 
                keyid:91:D7:E1:B5:A4:96:08:91:F1:A2:71:2F:66:D9:27:7B:4A:82:93:9A

            X509v3 CRL Number: 
                1
No Revoked Certificates.
    Signature Algorithm: sha1WithRSAEncryption
        97:e7:b7:e3:46:cf:59:49:72:d2:0e:de:0e:f6:c3:1a:ca:34:
        59:50:f1:2d:fb:11:31:f7:bb:b2:f7:dd:0e:fb:bd:6b:7a:7f:
        e7:dd:02:be:6c:7b:36:1c:49:50:38:d9:85:67:97:a5:0f:84:
        49:de:8a:d5:0b:d0:36:fc:6c:4a:82:cb:83:73:ed:1e:af:31:
        dc:0f:6f:eb:69:18:67:b7:fb:1e:a8:1d:a5:36:84:dd:05:72:
        52:f1:51:e1:93:6a:ff:2f:92:6b:7a:c1:67:90:0b:7f:66:0e:
        f1:83:22:d9:52:5e:f7:58:5d:5c:7a:1b:69:84:91:da:b1:18:
        11:c2
-----BEGIN X509 CRL-----
MIIBTzCBuQIBATANBgkqhkiG9w0BAQUFADBWMQswCQYDVQQGEwJVUzEaMBgGA1UE
ChMRVGVzdCBDZXJ0aWZpY2F0ZXMxKzApBgNVBAMTIkdvb2Qgc3ViQ0EgUGFueVBv
bGljeSBNYXBwaW5nIDF0bzIXDTAxMDQxOTE0NTcyMFoXDTExMDQxOTE0NTcyMFqg
LzAtMB8GA1UdIwQYMBaAFJHX4bWklgiR8aJxL2bZJ3tKgpOaMAoGA1UdFAQDAgEB
MA0GCSqGSIb3DQEBBQUAA4GBAJfnt+NGz1lJctIO3g72wxrKNFlQ8S37ETH3u7L3
3Q77vWt6f+fdAr5sezYcSVA42YVnl6UPhEneitUL0Db8bEqCy4Nz7R6vMdwPb+tp
GGe3+x6oHaU2hN0FclLxUeGTav8vkmt6wWeQC39mDvGDItlSXvdYXVx6G2mEkdqx
GBHC
-----END X509 CRL-----

Certificate Revocation List (CRL):
        Version 2 (0x1)
        Signature Algorithm: sha1WithRSAEncryption
        Issuer: /C=US/O=Test Certificates/CN=Trust Anchor
        Last Update: Apr 19 14:57:20 2001 GMT
        Next Update: Apr 19 14:57:20 2011 GMT
        CRL extensions:
            X509v3 Authority Key Identifier: 
                keyid:FB:6C:D4:2D:81:9E:CA:27:7A:9E:0D:B0:3C:EA:9A:BC:87:FF:49:EA

            X509v3 CRL Number: 
                1
Revoked Certificates:
    Serial Number: 68
        Revocation Date: Apr 19 14:57:20 2001 GMT
        CRL entry extensions:
            X509v3 CRL Reason Code: 
                Key Compromise
    Signature Algorithm: sha1WithRSAEncryption
        92:12:c4:34:b4:92:ab:ba:71:6b:74:31:16:ce:ed:25:d6:4b:
        1e:fa:f8:20:1e:9d:d7:7f:30:ed:15:f7:8b:5d:64:9b:dd:31:
        40:e4:55:0f:0c:5f:82:69:63:00:76:a5:cf:9e:c4:5f:f2:53:
        9b:9b:7d:f5:69:1d:74:57:38:70:e5:fb:5b:76:58:c9:ec:31:
        dc:94:1b:02:ee:9d:33:9c:38:4b:29:1d:e1:0c:29:8b:6e:c7:
        bf:a0:e8:40:34:83:cf:ff:9f:cd:b5:f7:d9:4d:a7:9f:2e:bf:
        44:98:6b:f2:d3:fe:a8:20:31:c1:33:76:b7:1c:19:65:4d:b9:
        14:39
-----BEGIN X509 CRL-----
MIIBXTCBxwIBATANBgkqhkiG9w0BAQUFADBAMQswCQYDVQQGEwJVUzEaMBgGA1UE
ChMRVGVzdCBDZXJ0aWZpY2F0ZXMxFTATBgNVBAMTDFRydXN0IEFuY2hvchcNMDEw
NDE5MTQ1NzIwWhcNMTEwNDE5MTQ1NzIwWjAiMCACAWgXDTAxMDQxOTE0NTcyMFow
DDAKBgNVHRUEAwoBAaAvMC0wHwYDVR0jBBgwFoAU+2zULYGeyid6ng2wPOqavIf/
SeowCgYDVR0UBAMCAQEwDQYJKoZIhvcNAQEFBQADgYEAkhLENLSSq7pxa3QxFs7t
JdZLHvr4IB6d138w7RX3i11km90xQORVDwxfgmljAHalz57EX/JTm5t99WkddFc4
cOX7W3ZYyewx3JQbAu6dM5w4Sykd4Qwpi27Hv6DoQDSDz/+fzbX32U2nny6/RJhr
8tP+qCAxwTN2txwZZU25FDk=
-----END X509 CRL-----

Certificate Revocation List (CRL):
        Version 2 (0x1)
        Signature Algorithm: sha1WithRSAEncryption
        Issuer: /C=US/O=Test Certificates/CN=Good CA
        Last Update: Apr 19 14:57:20 2001 GMT
        Next Update: Apr 19 14:57:20 2011 GMT
        CRL extensions:
            X509v3 Authority Key Identifier: 
                keyid:B7:2E:A6:82:CB:C2:C8:BC:A8:7B:27:44:D7:35:33:DF:9A:15:94:C7

            X509v3 CRL Number: 
                1
Revoked Certificates:
    Serial Number: 0E
        Revocation Date: Apr 19 14:57:20 2001 GMT
        CRL entry extensions:
            X509v3 CRL Reason Code: 
                Key Compromise
    Serial Number: 0F
        Revocation Date: Apr 19 14:57:20 2001 GMT
        CRL entry extensions:
            X509v3 CRL Reason Code: 
                Key Compromise
    Signature Algorithm: sha1WithRSAEncryption
        93:c2:ec:0b:71:07:2d:9d:d7:a2:b3:f0:ed:08:4d:6e:06:90:
        66:72:06:a9:c2:30:73:f1:18:72:bf:a7:51:13:95:c4:31:3f:
        1d:79:41:ed:ed:ab:d0:96:11:1e:32:47:4c:c4:f7:e2:08:65:
        6f:73:55:c1:59:09:56:f2:60:79:27:18:2e:94:40:dd:7e:b1:
        92:bf:b8:57:e5:4c:c5:38:97:75:2a:a1:17:a2:25:0d:ec:0e:
        b7:95:40:8d:2c:df:b9:fa:10:ff:be:9e:4a:f2:37:4f:25:cb:
        1b:c8:6d:ef:e4:09:b9:03:36:1b:c1:d9:f9:4f:00:5e:80:85:
        92:cd
-----BEGIN X509 CRL-----
MIIBejCB5AIBATANBgkqhkiG9w0BAQUFADA7MQswCQYDVQQGEwJVUzEaMBgGA1UE
ChMRVGVzdCBDZXJ0aWZpY2F0ZXMxEDAOBgNVBAMTB0dvb2QgQ0EXDTAxMDQxOTE0
NTcyMFoXDTExMDQxOTE0NTcyMFowRDAgAgEOFw0wMTA0MTkxNDU3MjBaMAwwCgYD
VR0VBAMKAQEwIAIBDxcNMDEwNDE5MTQ1NzIwWjAMMAoGA1UdFQQDCgEBoC8wLTAf
BgNVHSMEGDAWgBS3LqaCy8LIvKh7J0TXNTPfmhWUxzAKBgNVHRQEAwIBATANBgkq
hkiG9w0BAQUFAAOBgQCTwuwLcQctndeis/DtCE1uBpBmcgapwjBz8Rhyv6dRE5XE
MT8deUHt7avQlhEeMkdMxPfiCGVvc1XBWQlW8mB5JxgulEDdfrGSv7hX5UzFOJd1
KqEXoiUN7A63lUCNLN+5+hD/vp5K8jdPJcsbyG3v5Am5AzYbwdn5TwBegIWSzQ==
-----END X509 CRL-----

