subject=/C=US/O=Test Certificates/CN=Bad notBefore Date CA
issuer=/C=US/O=Test Certificates/CN=Trust Anchor
-----BEGIN CERTIFICATE-----
MIICezCCAeSgAwIBAgIBBDANBgkqhkiG9w0BAQUFADBAMQswCQYDVQQGEwJVUzEa
MBgGA1UEChMRVGVzdCBDZXJ0aWZpY2F0ZXMxFTATBgNVBAMTDFRydXN0IEFuY2hv
cjAeFw00NzAxMDExMjAxMDBaFw00OTAxMDExMjAxMDBaMEkxCzAJBgNVBAYTAlVT
MRowGAYDVQQKExFUZXN0IENlcnRpZmljYXRlczEeMBwGA1UEAxMVQmFkIG5vdEJl
Zm9yZSBEYXRlIENBMIGfMA0GCSqGSIb3DQEBAQUAA4GNADCBiQKBgQDJp+RthgxM
5Y+NQaGv+L8CNjnEejXyimG9JuXmo6Uc6ZjMhYgIlr3iAA+dcZRCJhsJxY7RXaS4
q3rRLSR7ROQdjSDNbuGXRht0SGe3MlOoIJEqFVGWppp3BVY4GUwN/s5zmgj/vE+2
eCwl96Fk8NWIm/qvugmG7+bvAy80zDvMLwIDAQABo3wwejAfBgNVHSMEGDAWgBT7
bNQtgZ7KJ3qeDbA86pq8h/9J6jAdBgNVHQ4EFgQUHnoz+COKGJwqbE84ItXL/Z2Q
fVgwDgYDVR0PAQH/BAQDAgEGMBcGA1UdIAQQMA4wDAYKYIZIAWUDAgEwATAPBgNV
HRMBAf8EBTADAQH/MA0GCSqGSIb3DQEBBQUAA4GBAJpC5ygICALpvY5i3Q5a3179
Ao05EA6N8ZKZHoS49lok81lUMy/MLGY5zQlggicV916WyTdDd2CO8q/lSCMTRO3C
CrsU9kd4w1V1J/OnfYDuHoRIH0hqowTdm6bEnyMhuq2YnRotAKhkX2g/ekDYuC9A
Lo8Ispl3HslMbhf/mhGj
-----END CERTIFICATE-----

subject=/C=US/O=Test Certificates/CN=Invalid CA notBefore Date EE Certificate Test1
issuer=/C=US/O=Test Certificates/CN=Bad notBefore Date CA
-----BEGIN CERTIFICATE-----
MIICjDCCAfWgAwIBAgIBATANBgkqhkiG9w0BAQUFADBJMQswCQYDVQQGEwJVUzEa
MBgGA1UEChMRVGVzdCBDZXJ0aWZpY2F0ZXMxHjAcBgNVBAMTFUJhZCBub3RCZWZv
cmUgRGF0ZSBDQTAeFw0wMTA0MTkxNDU3MjBaFw0xMTA0MTkxNDU3MjBaMGIxCzAJ
BgNVBAYTAlVTMRowGAYDVQQKExFUZXN0IENlcnRpZmljYXRlczE3MDUGA1UEAxMu
SW52YWxpZCBDQSBub3RCZWZvcmUgRGF0ZSBFRSBDZXJ0aWZpY2F0ZSBUZXN0MTCB
nzANBgkqhkiG9w0BAQEFAAOBjQAwgYkCgYEAuT/PBuMdSN+JtQHVYA67GVmByJJV
4dw76fphkGkaVX0EhLBs1ZK0jH4H+/rGlzrmDGTT5k2xwYc73ZJOkGDq+5EPnKy2
0MMuiU34oORcfElE/rYu4tqGwh9aARFDBpjzBNqCNMTR6wD5uIJ1HpZI3KfyuP1b
sX5KW83tw4qRbmsCAwEAAaNrMGkwHwYDVR0jBBgwFoAUHnoz+COKGJwqbE84ItXL
/Z2QfVgwHQYDVR0OBBYEFGl/WT2zZWdmw1t+EsACdTdTWeWwMA4GA1UdDwEB/wQE
AwIE8DAXBgNVHSAEEDAOMAwGCmCGSAFlAwIBMAEwDQYJKoZIhvcNAQEFBQADgYEA
bf33IqIzT3eBs8IJCqw6hFy40WjrIDPUgfNMdPE02k+Z8/0y+QCczqm4PXynRsyk
Zrn38tggQf2IVs/q+1IJsZS+3FWaj/iucO3twNWqPGqq60uc0xwpRhbIx1V8s1Dt
1Jh1zD4+KU9o+ai5aN2ErGWfCjBpIlFhwI1XXT0NLKY=
-----END CERTIFICATE-----

Certificate Revocation List (CRL):
        Version 2 (0x1)
        Signature Algorithm: sha1WithRSAEncryption
        Issuer: /C=US/O=Test Certificates/CN=Bad notBefore Date CA
        Last Update: Apr 19 14:57:20 2001 GMT
        Next Update: Apr 19 14:57:20 2011 GMT
        CRL extensions:
            X509v3 Authority Key Identifier: 
                keyid:1E:7A:33:F8:23:8A:18:9C:2A:6C:4F:38:22:D5:CB:FD:9D:90:7D:58

            X509v3 CRL Number: 
                1
No Revoked Certificates.
    Signature Algorithm: sha1WithRSAEncryption
        8a:4b:5c:e0:02:33:0e:3b:5e:59:a5:2d:7e:5c:16:2d:22:fc:
        b4:11:aa:00:7f:9c:51:f3:38:85:a3:84:33:3e:68:e5:7a:0d:
        d9:e1:c7:6a:f9:48:cc:f0:ee:0c:c8:15:b4:41:b7:a6:20:2a:
        9d:68:8e:74:dd:b6:ee:eb:03:ae:fa:4d:50:c4:80:e7:7a:6a:
        0a:0e:eb:64:ca:a5:a6:64:e4:98:96:75:f1:50:9f:c3:a6:c8:
        b6:d5:b7:64:7b:8e:ce:40:f2:bc:13:1b:16:52:4a:e5:8b:22:
        ae:9a:59:a9:e3:a7:44:0a:8f:92:b6:15:76:cc:25:f3:c7:a4:
        1c:f0
-----BEGIN X509 CRL-----
MIIBQjCBrAIBATANBgkqhkiG9w0BAQUFADBJMQswCQYDVQQGEwJVUzEaMBgGA1UE
ChMRVGVzdCBDZXJ0aWZpY2F0ZXMxHjAcBgNVBAMTFUJhZCBub3RCZWZvcmUgRGF0
ZSBDQRcNMDEwNDE5MTQ1NzIwWhcNMTEwNDE5MTQ1NzIwWqAvMC0wHwYDVR0jBBgw
FoAUHnoz+COKGJwqbE84ItXL/Z2QfVgwCgYDVR0UBAMCAQEwDQYJKoZIhvcNAQEF
BQADgYEAiktc4AIzDjteWaUtflwWLSL8tBGqAH+cUfM4haOEMz5o5XoN2eHHavlI
zPDuDMgVtEG3piAqnWiOdN227usDrvpNUMSA53pqCg7rZMqlpmTkmJZ18VCfw6bI
ttW3ZHuOzkDyvBMbFlJK5YsirppZqeOnRAqPkrYVdswl88ekHPA=
-----END X509 CRL-----

Certificate Revocation List (CRL):
        Version 2 (0x1)
        Signature Algorithm: sha1WithRSAEncryption
        Issuer: /C=US/O=Test Certificates/CN=Trust Anchor
        Last Update: Apr 19 14:57:20 2001 GMT
        Next Update: Apr 19 14:57:20 2011 GMT
        CRL extensions:
            X509v3 Authority Key Identifier: 
                keyid:FB:6C:D4:2D:81:9E:CA:27:7A:9E:0D:B0:3C:EA:9A:BC:87:FF:49:EA

            X509v3 CRL Number: 
                1
Revoked Certificates:
    Serial Number: 68
        Revocation Date: Apr 19 14:57:20 2001 GMT
        CRL entry extensions:
            X509v3 CRL Reason Code: 
                Key Compromise
    Signature Algorithm: sha1WithRSAEncryption
        92:12:c4:34:b4:92:ab:ba:71:6b:74:31:16:ce:ed:25:d6:4b:
        1e:fa:f8:20:1e:9d:d7:7f:30:ed:15:f7:8b:5d:64:9b:dd:31:
        40:e4:55:0f:0c:5f:82:69:63:00:76:a5:cf:9e:c4:5f:f2:53:
        9b:9b:7d:f5:69:1d:74:57:38:70:e5:fb:5b:76:58:c9:ec:31:
        dc:94:1b:02:ee:9d:33:9c:38:4b:29:1d:e1:0c:29:8b:6e:c7:
        bf:a0:e8:40:34:83:cf:ff:9f:cd:b5:f7:d9:4d:a7:9f:2e:bf:
        44:98:6b:f2:d3:fe:a8:20:31:c1:33:76:b7:1c:19:65:4d:b9:
        14:39
-----BEGIN X509 CRL-----
MIIBXTCBxwIBATANBgkqhkiG9w0BAQUFADBAMQswCQYDVQQGEwJVUzEaMBgGA1UE
ChMRVGVzdCBDZXJ0aWZpY2F0ZXMxFTATBgNVBAMTDFRydXN0IEFuY2hvchcNMDEw
NDE5MTQ1NzIwWhcNMTEwNDE5MTQ1NzIwWjAiMCACAWgXDTAxMDQxOTE0NTcyMFow
DDAKBgNVHRUEAwoBAaAvMC0wHwYDVR0jBBgwFoAU+2zULYGeyid6ng2wPOqavIf/
SeowCgYDVR0UBAMCAQEwDQYJKoZIhvcNAQEFBQADgYEAkhLENLSSq7pxa3QxFs7t
JdZLHvr4IB6d138w7RX3i11km90xQORVDwxfgmljAHalz57EX/JTm5t99WkddFc4
cOX7W3ZYyewx3JQbAu6dM5w4Sykd4Qwpi27Hv6DoQDSDz/+fzbX32U2nny6/RJhr
8tP+qCAxwTN2txwZZU25FDk=
-----END X509 CRL-----

