subject=/C=US/O=Test Certificates/CN=Invalid Policy Mapping EE Certificate Test4
issuer=/C=US/O=Test Certificates/CN=P12 Mapping 1to3 subsubCA
-----BEGIN CERTIFICATE-----
MIICjTCCAfagAwIBAgIBAjANBgkqhkiG9w0BAQUFADBNMQswCQYDVQQGEwJVUzEa
MBgGA1UEChMRVGVzdCBDZXJ0aWZpY2F0ZXMxIjAgBgNVBAMTGVAxMiBNYXBwaW5n
IDF0bzMgc3Vic3ViQ0EwHhcNMDEwNDE5MTQ1NzIwWhcNMTEwNDE5MTQ1NzIwWjBf
MQswCQYDVQQGEwJVUzEaMBgGA1UEChMRVGVzdCBDZXJ0aWZpY2F0ZXMxNDAyBgNV
BAMTK0ludmFsaWQgUG9saWN5IE1hcHBpbmcgRUUgQ2VydGlmaWNhdGUgVGVzdDQw
gZ8wDQYJKoZIhvcNAQEBBQADgY0AMIGJAoGBAJprKoJhJkwv9iBN1IYtMV3uRD5s
uHrGKo8QKVwNvqYLHai3buTlKV5MkXVGAX4jOoo4gsNST1yqaYHmB/PN8gpC5Zei
k0+5yWdAraOAj6IeMEJzs6Vu9ajsCKNQ/hbc6SBJ7wYIxviyUzvUVS9L7tGbO9ww
+pDzJ+GDcBzAhMJNAgMBAAGjazBpMB8GA1UdIwQYMBaAFPYssbcpta6Vf7D4OUFT
LS4PBOPHMB0GA1UdDgQWBBSEY/EgMg6/W2kqOBHmu0ZzH+8FdjAOBgNVHQ8BAf8E
BAMCBPAwFwYDVR0gBBAwDjAMBgpghkgBZQMCATADMA0GCSqGSIb3DQEBBQUAA4GB
AI26nbSlHGf56TsealBKtrzfLJm4+UtAODZ+a5qU/JtzajvXGdh66TgEK+NFB83w
h3OtGs/OQ39fhXosCcXXmXk8mNBj6MokhRptFdnJz+edT9yqz96ufAHZSKpG1Di2
d9bllknCKDikzWUOGTOiCuHc2n7ymexbgnYnUAdvLw2s
-----END CERTIFICATE-----

subject=/C=US/O=Test Certificates/CN=P12 Mapping 1to3 CA
issuer=/C=US/O=Test Certificates/CN=Trust Anchor
-----BEGIN CERTIFICATE-----
MIICvzCCAiigAwIBAgIBMTANBgkqhkiG9w0BAQUFADBAMQswCQYDVQQGEwJVUzEa
MBgGA1UEChMRVGVzdCBDZXJ0aWZpY2F0ZXMxFTATBgNVBAMTDFRydXN0IEFuY2hv
cjAeFw0wMTA0MTkxNDU3MjBaFw0xMTA0MTkxNDU3MjBaMEcxCzAJBgNVBAYTAlVT
MRowGAYDVQQKExFUZXN0IENlcnRpZmljYXRlczEcMBoGA1UEAxMTUDEyIE1hcHBp
bmcgMXRvMyBDQTCBnzANBgkqhkiG9w0BAQEFAAOBjQAwgYkCgYEAmTEwLH6u6mb6
kvz4ulbBVFC2Ea6WdEv2uH/vNi23mER2Nl+xAbeopiy3OLEiXavvD3uvVjX0bSOH
BGk2j/ern/Urw6djfKt5V4O3NMYi6Grvfm346kdutjJuBcNlhLOE8mLXUguspocr
AoAEjrQtuS4Bkb9A5wj3OYy4jr2JhtMCAwEAAaOBwTCBvjAfBgNVHSMEGDAWgBT7
bNQtgZ7KJ3qeDbA86pq8h/9J6jAdBgNVHQ4EFgQUreIKE61SbSWszamYogoEaK1y
rrIwDgYDVR0PAQH/BAQDAgEGMCUGA1UdIAQeMBwwDAYKYIZIAWUDAgEwATAMBgpg
hkgBZQMCATACMCYGA1UdIQEB/wQcMBowGAYKYIZIAWUDAgEwAQYKYIZIAWUDAgEw
AzAPBgNVHRMBAf8EBTADAQH/MAwGA1UdJAQFMAOAAQAwDQYJKoZIhvcNAQEFBQAD
gYEAEelnHhW6SAs3Zj4a5YMVTKDe7vCThen9bA1Awt3yFincViRt5/s2ZyzTN5fr
Xi+2m42Gm+Anb3D7rpV9IJ/PahHq4yrKSrcAzhT3IcHbuHFNwiw8Z3T+31hhjJUx
3atYpYOZZPYwuT0inFHJWRfBNA8NGBtqYlxI1C+/ucdy7ik=
-----END CERTIFICATE-----

subject=/C=US/O=Test Certificates/CN=P12 Mapping 1to3 subsubCA
issuer=/C=US/O=Test Certificates/CN=P12 Mapping 1to3 subCA
-----BEGIN CERTIFICATE-----
MIICwTCCAiqgAwIBAgIBATANBgkqhkiG9w0BAQUFADBKMQswCQYDVQQGEwJVUzEa
MBgGA1UEChMRVGVzdCBDZXJ0aWZpY2F0ZXMxHzAdBgNVBAMTFlAxMiBNYXBwaW5n
IDF0bzMgc3ViQ0EwHhcNMDEwNDE5MTQ1NzIwWhcNMTEwNDE5MTQ1NzIwWjBNMQsw
CQYDVQQGEwJVUzEaMBgGA1UEChMRVGVzdCBDZXJ0aWZpY2F0ZXMxIjAgBgNVBAMT
GVAxMiBNYXBwaW5nIDF0bzMgc3Vic3ViQ0EwgZ8wDQYJKoZIhvcNAQEBBQADgY0A
MIGJAoGBAJjo4/4TekqllLI7gPzmE2OceB30SRuraEVWVdR/lmFpFTks5fKkqf96
WjYpnJZwaqE1ZdUQxgeNsswPm4pUAhVmU9IHvqBaM+bNXFsrwBOYYhfZY3xnwcxp
IZsvkLPuEq1vLwxpn+0zTDOpDGf9zhiTrswEUoGYBwOVqRDaToYdAgMBAAGjgbMw
gbAwHwYDVR0jBBgwFoAUXcS6eHk0JsNyV9FZ9KPiVKcocdEwHQYDVR0OBBYEFPYs
sbcpta6Vf7D4OUFTLS4PBOPHMA4GA1UdDwEB/wQEAwIBBjAlBgNVHSAEHjAcMAwG
CmCGSAFlAwIBMAMwDAYKYIZIAWUDAgEwBDAmBgNVHSEBAf8EHDAaMBgGCmCGSAFl
AwIBMAQGCmCGSAFlAwIBMAgwDwYDVR0TAQH/BAUwAwEB/zANBgkqhkiG9w0BAQUF
AAOBgQCass0kmtqSdWX5lffBs/tSTSvnGK38REo2IwTFLHduO4cvzAyS7ProbF/J
al8FtT9mdnl+NpwrH4KlFNu+uti47wFj9xov/kbcmp21DvZ/m8ihmStk4FG2r6Ad
0gdmVfBYem0mOu/1r/F8deNFP/Dpd8w3KFnv3Dd9wZd/Eb5hrg==
-----END CERTIFICATE-----

subject=/C=US/O=Test Certificates/CN=P12 Mapping 1to3 subCA
issuer=/C=US/O=Test Certificates/CN=P12 Mapping 1to3 CA
-----BEGIN CERTIFICATE-----
MIIC1TCCAj6gAwIBAgIBATANBgkqhkiG9w0BAQUFADBHMQswCQYDVQQGEwJVUzEa
MBgGA1UEChMRVGVzdCBDZXJ0aWZpY2F0ZXMxHDAaBgNVBAMTE1AxMiBNYXBwaW5n
IDF0bzMgQ0EwHhcNMDEwNDE5MTQ1NzIwWhcNMTEwNDE5MTQ1NzIwWjBKMQswCQYD
VQQGEwJVUzEaMBgGA1UEChMRVGVzdCBDZXJ0aWZpY2F0ZXMxHzAdBgNVBAMTFlAx
MiBNYXBwaW5nIDF0bzMgc3ViQ0EwgZ8wDQYJKoZIhvcNAQEBBQADgY0AMIGJAoGB
AMsNrOgngQPHY/5QvmR5y8mHOJJ2T8Vjf+3/DPv5eMF+q11urxfCat4faDdtchBa
QXOWQ2TEy6tqpR7u8UJ2wnI7phld51gAcT2I8V7swo/EM1Ga1i5bWa5G10vPmZw5
l7QwqT/D6JkHdthcaJdQrBP9zesYPEp13RFQU9mP5451AgMBAAGjgc0wgcowHwYD
VR0jBBgwFoAUreIKE61SbSWszamYogoEaK1yrrIwHQYDVR0OBBYEFF3Eunh5NCbD
clfRWfSj4lSnKHHRMA4GA1UdDwEB/wQEAwIBBjAlBgNVHSAEHjAcMAwGCmCGSAFl
AwIBMAIwDAYKYIZIAWUDAgEwBTBABgNVHSEBAf8ENjA0MBgGCmCGSAFlAwIBMAIG
CmCGSAFlAwIBMAQwGAYKYIZIAWUDAgEwBQYKYIZIAWUDAgEwBzAPBgNVHRMBAf8E
BTADAQH/MA0GCSqGSIb3DQEBBQUAA4GBAHwK+aOYJpXAoXSRQ1o82pqD++jA/uvr
2eJoXbcch64CAdRNuCA7rQoRAx1nSUgjoLmHcTDrowQzodrVXVmCmYqXxB5XswG6
z5Oj09NorxHxpAs7E/izElYwEXl5n0NMInD6S2r1SWOnRpGnCL8PYM3gW+xne8rJ
CZMIMADOWvrc
-----END CERTIFICATE-----

Certificate Revocation List (CRL):
        Version 2 (0x1)
        Signature Algorithm: sha1WithRSAEncryption
        Issuer: /C=US/O=Test Certificates/CN=P12 Mapping 1to3 CA
        Last Update: Apr 19 14:57:20 2001 GMT
        Next Update: Apr 19 14:57:20 2011 GMT
        CRL extensions:
            X509v3 Authority Key Identifier: 
                keyid:AD:E2:0A:13:AD:52:6D:25:AC:CD:A9:98:A2:0A:04:68:AD:72:AE:B2

            X509v3 CRL Number: 
                1
No Revoked Certificates.
    Signature Algorithm: sha1WithRSAEncryption
        94:34:62:ba:34:51:b4:ad:dd:01:40:fe:3d:eb:bc:6c:7c:89:
        cb:f0:7e:e5:38:03:50:93:5b:68:ba:d1:ca:14:39:ec:a8:9c:
        37:24:c3:0f:01:eb:14:67:8c:07:fc:37:1f:bb:45:b9:4f:5f:
        56:ad:f3:85:03:23:a8:bd:93:1c:ca:01:e8:b5:1c:c8:60:18:
        13:95:bf:5a:11:11:b2:3c:3c:27:69:bf:97:08:c0:b7:4a:7a:
        39:5e:03:2c:67:5a:11:a0:4f:6f:8d:70:4e:e2:b5:31:73:2a:
        bf:5b:15:af:5b:4e:14:e0:73:5b:f1:2d:cd:bc:75:44:42:d4:
        da:3b
-----BEGIN X509 CRL-----
MIIBQDCBqgIBATANBgkqhkiG9w0BAQUFADBHMQswCQYDVQQGEwJVUzEaMBgGA1UE
ChMRVGVzdCBDZXJ0aWZpY2F0ZXMxHDAaBgNVBAMTE1AxMiBNYXBwaW5nIDF0bzMg
Q0EXDTAxMDQxOTE0NTcyMFoXDTExMDQxOTE0NTcyMFqgLzAtMB8GA1UdIwQYMBaA
FK3iChOtUm0lrM2pmKIKBGitcq6yMAoGA1UdFAQDAgEBMA0GCSqGSIb3DQEBBQUA
A4GBAJQ0Yro0UbSt3QFA/j3rvGx8icvwfuU4A1CTW2i60coUOeyonDckww8B6xRn
jAf8Nx+7RblPX1at84UDI6i9kxzKAei1HMhgGBOVv1oREbI8PCdpv5cIwLdKejle
AyxnWhGgT2+NcE7itTFzKr9bFa9bThTgc1vxLc28dURC1No7
-----END X509 CRL-----

Certificate Revocation List (CRL):
        Version 2 (0x1)
        Signature Algorithm: sha1WithRSAEncryption
        Issuer: /C=US/O=Test Certificates/CN=P12 Mapping 1to3 subCA
        Last Update: Apr 19 14:57:20 2001 GMT
        Next Update: Apr 19 14:57:20 2011 GMT
        CRL extensions:
            X509v3 Authority Key Identifier: 
                keyid:5D:C4:BA:78:79:34:26:C3:72:57:D1:59:F4:A3:E2:54:A7:28:71:D1

            X509v3 CRL Number: 
                1
No Revoked Certificates.
    Signature Algorithm: sha1WithRSAEncryption
        15:bb:13:8f:22:9e:5f:ae:7d:26:76:5b:6f:8d:8b:a4:37:1d:
        fa:87:83:61:23:70:ca:f2:bd:ba:ae:72:04:3e:0a:21:70:4e:
        01:97:4c:e3:16:d0:ef:d9:31:50:6f:5b:ff:51:10:40:73:82:
        0f:f2:00:90:1a:bb:f8:93:68:b9:0c:15:9d:b2:c3:5b:56:73:
        52:d3:1c:0f:75:2f:51:5b:40:3f:8b:71:42:54:33:af:55:20:
        c8:ff:bf:ff:68:43:78:93:55:01:fb:7e:4d:db:a8:57:36:34:
        df:a2:90:75:bb:fa:23:f3:9f:de:e4:4d:92:30:65:8c:f2:64:
        e0:01
-----BEGIN X509 CRL-----
MIIBQzCBrQIBATANBgkqhkiG9w0BAQUFADBKMQswCQYDVQQGEwJVUzEaMBgGA1UE
ChMRVGVzdCBDZXJ0aWZpY2F0ZXMxHzAdBgNVBAMTFlAxMiBNYXBwaW5nIDF0bzMg
c3ViQ0EXDTAxMDQxOTE0NTcyMFoXDTExMDQxOTE0NTcyMFqgLzAtMB8GA1UdIwQY
MBaAFF3Eunh5NCbDclfRWfSj4lSnKHHRMAoGA1UdFAQDAgEBMA0GCSqGSIb3DQEB
BQUAA4GBABW7E48inl+ufSZ2W2+Ni6Q3HfqHg2EjcMryvbqucgQ+CiFwTgGXTOMW
0O/ZMVBvW/9REEBzgg/yAJAau/iTaLkMFZ2yw1tWc1LTHA91L1FbQD+LcUJUM69V
IMj/v/9oQ3iTVQH7fk3bqFc2NN+ikHW7+iPzn97kTZIwZYzyZOAB
-----END X509 CRL-----

Certificate Revocation List (CRL):
        Version 2 (0x1)
        Signature Algorithm: sha1WithRSAEncryption
        Issuer: /C=US/O=Test Certificates/CN=P12 Mapping 1to3 subsubCA
        Last Update: Apr 19 14:57:20 2001 GMT
        Next Update: Apr 19 14:57:20 2011 GMT
        CRL extensions:
            X509v3 Authority Key Identifier: 
                keyid:F6:2C:B1:B7:29:B5:AE:95:7F:B0:F8:39:41:53:2D:2E:0F:04:E3:C7

            X509v3 CRL Number: 
                1
No Revoked Certificates.
    Signature Algorithm: sha1WithRSAEncryption
        6f:b3:1a:29:36:35:76:c7:62:11:6e:e9:29:e6:83:8b:5e:bf:
        25:ea:4d:71:56:16:50:25:92:68:a8:a2:e9:4d:09:a3:74:36:
        e2:9b:c1:52:dd:87:0a:64:98:58:da:6a:96:e6:c4:02:90:d8:
        cd:4c:10:71:4c:98:1d:bb:d4:8d:7d:74:f9:34:3f:98:f7:8a:
        5e:eb:bf:7c:8f:90:2a:7b:c4:f3:29:cc:3c:62:a3:f8:08:c2:
        0a:ae:35:92:8d:ed:c0:30:a3:f2:a1:c7:7c:a1:68:1d:b0:48:
        4d:c1:4f:50:7f:1f:af:c6:f3:a1:d0:ad:8a:1a:78:05:84:6d:
        d9:7e
-----BEGIN X509 CRL-----
MIIBRjCBsAIBATANBgkqhkiG9w0BAQUFADBNMQswCQYDVQQGEwJVUzEaMBgGA1UE
ChMRVGVzdCBDZXJ0aWZpY2F0ZXMxIjAgBgNVBAMTGVAxMiBNYXBwaW5nIDF0bzMg
c3Vic3ViQ0EXDTAxMDQxOTE0NTcyMFoXDTExMDQxOTE0NTcyMFqgLzAtMB8GA1Ud
IwQYMBaAFPYssbcpta6Vf7D4OUFTLS4PBOPHMAoGA1UdFAQDAgEBMA0GCSqGSIb3
DQEBBQUAA4GBAG+zGik2NXbHYhFu6Snmg4tevyXqTXFWFlAlkmiooulNCaN0NuKb
wVLdhwpkmFjaapbmxAKQ2M1MEHFMmB271I19dPk0P5j3il7rv3yPkCp7xPMpzDxi
o/gIwgquNZKN7cAwo/Khx3yhaB2wSE3BT1B/H6/G86HQrYoaeAWEbdl+
-----END X509 CRL-----

Certificate Revocation List (CRL):
        Version 2 (0x1)
        Signature Algorithm: sha1WithRSAEncryption
        Issuer: /C=US/O=Test Certificates/CN=Trust Anchor
        Last Update: Apr 19 14:57:20 2001 GMT
        Next Update: Apr 19 14:57:20 2011 GMT
        CRL extensions:
            X509v3 Authority Key Identifier: 
                keyid:FB:6C:D4:2D:81:9E:CA:27:7A:9E:0D:B0:3C:EA:9A:BC:87:FF:49:EA

            X509v3 CRL Number: 
                1
Revoked Certificates:
    Serial Number: 68
        Revocation Date: Apr 19 14:57:20 2001 GMT
        CRL entry extensions:
            X509v3 CRL Reason Code: 
                Key Compromise
    Signature Algorithm: sha1WithRSAEncryption
        92:12:c4:34:b4:92:ab:ba:71:6b:74:31:16:ce:ed:25:d6:4b:
        1e:fa:f8:20:1e:9d:d7:7f:30:ed:15:f7:8b:5d:64:9b:dd:31:
        40:e4:55:0f:0c:5f:82:69:63:00:76:a5:cf:9e:c4:5f:f2:53:
        9b:9b:7d:f5:69:1d:74:57:38:70:e5:fb:5b:76:58:c9:ec:31:
        dc:94:1b:02:ee:9d:33:9c:38:4b:29:1d:e1:0c:29:8b:6e:c7:
        bf:a0:e8:40:34:83:cf:ff:9f:cd:b5:f7:d9:4d:a7:9f:2e:bf:
        44:98:6b:f2:d3:fe:a8:20:31:c1:33:76:b7:1c:19:65:4d:b9:
        14:39
-----BEGIN X509 CRL-----
MIIBXTCBxwIBATANBgkqhkiG9w0BAQUFADBAMQswCQYDVQQGEwJVUzEaMBgGA1UE
ChMRVGVzdCBDZXJ0aWZpY2F0ZXMxFTATBgNVBAMTDFRydXN0IEFuY2hvchcNMDEw
NDE5MTQ1NzIwWhcNMTEwNDE5MTQ1NzIwWjAiMCACAWgXDTAxMDQxOTE0NTcyMFow
DDAKBgNVHRUEAwoBAaAvMC0wHwYDVR0jBBgwFoAU+2zULYGeyid6ng2wPOqavIf/
SeowCgYDVR0UBAMCAQEwDQYJKoZIhvcNAQEFBQADgYEAkhLENLSSq7pxa3QxFs7t
JdZLHvr4IB6d138w7RX3i11km90xQORVDwxfgmljAHalz57EX/JTm5t99WkddFc4
cOX7W3ZYyewx3JQbAu6dM5w4Sykd4Qwpi27Hv6DoQDSDz/+fzbX32U2nny6/RJhr
8tP+qCAxwTN2txwZZU25FDk=
-----END X509 CRL-----

