subject=/C=US/O=Test Certificates/CN=Invalid Policy Mapping EE Certificate Test2
issuer=/C=US/O=Test Certificates/CN=Mapping 1to2 CA
-----BEGIN CERTIFICATE-----
MIICgzCCAeygAwIBAgIBAjANBgkqhkiG9w0BAQUFADBDMQswCQYDVQQGEwJVUzEa
MBgGA1UEChMRVGVzdCBDZXJ0aWZpY2F0ZXMxGDAWBgNVBAMTD01hcHBpbmcgMXRv
MiBDQTAeFw0wMTA0MTkxNDU3MjBaFw0xMTA0MTkxNDU3MjBaMF8xCzAJBgNVBAYT
AlVTMRowGAYDVQQKExFUZXN0IENlcnRpZmljYXRlczE0MDIGA1UEAxMrSW52YWxp
ZCBQb2xpY3kgTWFwcGluZyBFRSBDZXJ0aWZpY2F0ZSBUZXN0MjCBnzANBgkqhkiG
9w0BAQEFAAOBjQAwgYkCgYEAoadvCebWnauqUaHFp40w4mCV71scsCOfYsKd2A1Z
qG7a+bY47N5PYZ3U5Ma08y9eYo1tp/KdyjpqVjRyjuThypOpD9w0G+SKNSSO9qWC
MDvLPUi28tTApRjWztYYwN/g5vFkSu17fxV+2UFjktKI5L7kajObs+ukIn+CZjp2
ZJsCAwEAAaNrMGkwHwYDVR0jBBgwFoAUNzuKobqNp3SbwOvWOcshDI2jVn0wHQYD
VR0OBBYEFP3Ru6m0Dy03xmdc1XvYMeSY1zK/MA4GA1UdDwEB/wQEAwIE8DAXBgNV
HSAEEDAOMAwGCmCGSAFlAwIBMAEwDQYJKoZIhvcNAQEFBQADgYEAGhBCvmaevxrJ
N0Kz2kBu8iSaQ909Y6uo5N0DyRRCZQGADpcApXIr7/C/Uu4qBIyC3WTBsx2cxZFV
5FThscR7x6s7loGSYxVh2GrCKj3t643zzznkIP7iMZxSGBdVJpEsjScMJ/7tXnkp
IaawhSXoSuDs35Gvi32ldHbXmUh9NvY=
-----END CERTIFICATE-----

subject=/C=US/O=Test Certificates/CN=Mapping 1to2 CA
issuer=/C=US/O=Test Certificates/CN=Trust Anchor
-----BEGIN CERTIFICATE-----
MIICrTCCAhagAwIBAgIBMDANBgkqhkiG9w0BAQUFADBAMQswCQYDVQQGEwJVUzEa
MBgGA1UEChMRVGVzdCBDZXJ0aWZpY2F0ZXMxFTATBgNVBAMTDFRydXN0IEFuY2hv
cjAeFw0wMTA0MTkxNDU3MjBaFw0xMTA0MTkxNDU3MjBaMEMxCzAJBgNVBAYTAlVT
MRowGAYDVQQKExFUZXN0IENlcnRpZmljYXRlczEYMBYGA1UEAxMPTWFwcGluZyAx
dG8yIENBMIGfMA0GCSqGSIb3DQEBAQUAA4GNADCBiQKBgQDXwTHRx8gVHWtSe1VX
oLPFQmGX4Y0U4v535jowfMd9254hmwW4VbZzK7rrXGOAimFxGHKwa7mkPEo80MIW
8YQC5HZs3jaXLh/xsmV1qlzwceCXooef+wu8W0pgoJ63MmY+ZJWiNK2ygRV/EVFF
x2ii8ZGDW+SKEX2WIYI7JhmcTQIDAQABo4GzMIGwMB8GA1UdIwQYMBaAFPts1C2B
nsonep4NsDzqmryH/0nqMB0GA1UdDgQWBBQ3O4qhuo2ndJvA69Y5yyEMjaNWfTAO
BgNVHQ8BAf8EBAMCAQYwFwYDVR0gBBAwDjAMBgpghkgBZQMCATABMCYGA1UdIQEB
/wQcMBowGAYKYIZIAWUDAgEwAQYKYIZIAWUDAgEwAjAPBgNVHRMBAf8EBTADAQH/
MAwGA1UdJAQFMAOAAQAwDQYJKoZIhvcNAQEFBQADgYEAphAVDZECciXjDiCta9HU
ZubezLaRjcl0IaUmTlvuhUqkfGG2x1KhB6QTq7JGCmBrlxL93qhU+8sGW1k26/3p
c3hc60bKZ5oBG96iN05oLWWF3udbqBESMO7gn1zX14s97qLtuqQAyuERy2L2uOkk
n/emInqTFTixe284WjHR3XY=
-----END CERTIFICATE-----

Certificate Revocation List (CRL):
        Version 2 (0x1)
        Signature Algorithm: sha1WithRSAEncryption
        Issuer: /C=US/O=Test Certificates/CN=Mapping 1to2 CA
        Last Update: Apr 19 14:57:20 2001 GMT
        Next Update: Apr 19 14:57:20 2011 GMT
        CRL extensions:
            X509v3 Authority Key Identifier: 
                keyid:37:3B:8A:A1:BA:8D:A7:74:9B:C0:EB:D6:39:CB:21:0C:8D:A3:56:7D

            X509v3 CRL Number: 
                1
No Revoked Certificates.
    Signature Algorithm: sha1WithRSAEncryption
        29:63:8c:57:a4:35:bb:2c:2e:a0:1e:7e:c1:e2:0e:39:2c:83:
        d6:5f:29:3a:03:70:63:aa:1f:42:e8:fd:3f:64:f6:8b:ad:86:
        27:c3:a6:5d:48:9d:ef:6d:bc:be:7a:24:a9:6d:b0:4e:4d:58:
        4f:52:c8:bf:dc:70:7c:ea:8d:5e:54:12:db:5d:62:c5:63:06:
        2e:00:b4:d2:fa:51:6c:da:3f:41:04:36:14:ce:63:b5:46:e6:
        7d:10:01:db:50:07:69:82:6a:34:45:0b:38:5e:f2:d5:8b:77:
        e4:ea:6a:7f:9a:18:fa:74:ed:b4:5a:ba:68:f2:68:c4:d2:55:
        17:9e
-----BEGIN X509 CRL-----
MIIBPDCBpgIBATANBgkqhkiG9w0BAQUFADBDMQswCQYDVQQGEwJVUzEaMBgGA1UE
ChMRVGVzdCBDZXJ0aWZpY2F0ZXMxGDAWBgNVBAMTD01hcHBpbmcgMXRvMiBDQRcN
MDEwNDE5MTQ1NzIwWhcNMTEwNDE5MTQ1NzIwWqAvMC0wHwYDVR0jBBgwFoAUNzuK
obqNp3SbwOvWOcshDI2jVn0wCgYDVR0UBAMCAQEwDQYJKoZIhvcNAQEFBQADgYEA
KWOMV6Q1uywuoB5+weIOOSyD1l8pOgNwY6ofQuj9P2T2i62GJ8OmXUid7228vnok
qW2wTk1YT1LIv9xwfOqNXlQS211ixWMGLgC00vpRbNo/QQQ2FM5jtUbmfRAB21AH
aYJqNEULOF7y1Yt35Opqf5oY+nTttFq6aPJoxNJVF54=
-----END X509 CRL-----

Certificate Revocation List (CRL):
        Version 2 (0x1)
        Signature Algorithm: sha1WithRSAEncryption
        Issuer: /C=US/O=Test Certificates/CN=Trust Anchor
        Last Update: Apr 19 14:57:20 2001 GMT
        Next Update: Apr 19 14:57:20 2011 GMT
        CRL extensions:
            X509v3 Authority Key Identifier: 
                keyid:FB:6C:D4:2D:81:9E:CA:27:7A:9E:0D:B0:3C:EA:9A:BC:87:FF:49:EA

            X509v3 CRL Number: 
                1
Revoked Certificates:
    Serial Number: 68
        Revocation Date: Apr 19 14:57:20 2001 GMT
        CRL entry extensions:
            X509v3 CRL Reason Code: 
                Key Compromise
    Signature Algorithm: sha1WithRSAEncryption
        92:12:c4:34:b4:92:ab:ba:71:6b:74:31:16:ce:ed:25:d6:4b:
        1e:fa:f8:20:1e:9d:d7:7f:30:ed:15:f7:8b:5d:64:9b:dd:31:
        40:e4:55:0f:0c:5f:82:69:63:00:76:a5:cf:9e:c4:5f:f2:53:
        9b:9b:7d:f5:69:1d:74:57:38:70:e5:fb:5b:76:58:c9:ec:31:
        dc:94:1b:02:ee:9d:33:9c:38:4b:29:1d:e1:0c:29:8b:6e:c7:
        bf:a0:e8:40:34:83:cf:ff:9f:cd:b5:f7:d9:4d:a7:9f:2e:bf:
        44:98:6b:f2:d3:fe:a8:20:31:c1:33:76:b7:1c:19:65:4d:b9:
        14:39
-----BEGIN X509 CRL-----
MIIBXTCBxwIBATANBgkqhkiG9w0BAQUFADBAMQswCQYDVQQGEwJVUzEaMBgGA1UE
ChMRVGVzdCBDZXJ0aWZpY2F0ZXMxFTATBgNVBAMTDFRydXN0IEFuY2hvchcNMDEw
NDE5MTQ1NzIwWhcNMTEwNDE5MTQ1NzIwWjAiMCACAWgXDTAxMDQxOTE0NTcyMFow
DDAKBgNVHRUEAwoBAaAvMC0wHwYDVR0jBBgwFoAU+2zULYGeyid6ng2wPOqavIf/
SeowCgYDVR0UBAMCAQEwDQYJKoZIhvcNAQEFBQADgYEAkhLENLSSq7pxa3QxFs7t
JdZLHvr4IB6d138w7RX3i11km90xQORVDwxfgmljAHalz57EX/JTm5t99WkddFc4
cOX7W3ZYyewx3JQbAu6dM5w4Sykd4Qwpi27Hv6DoQDSDz/+fzbX32U2nny6/RJhr
8tP+qCAxwTN2txwZZU25FDk=
-----END X509 CRL-----

