subject=/C=US/O=Test Certificates/CN=Bad CRL Signature CA
issuer=/C=US/O=Test Certificates/CN=Trust Anchor
-----BEGIN CERTIFICATE-----
MIICejCCAeOgAwIBAgIBCDANBgkqhkiG9w0BAQUFADBAMQswCQYDVQQGEwJVUzEa
MBgGA1UEChMRVGVzdCBDZXJ0aWZpY2F0ZXMxFTATBgNVBAMTDFRydXN0IEFuY2hv
cjAeFw0wMTA0MTkxNDU3MjBaFw0xMTA0MTkxNDU3MjBaMEgxCzAJBgNVBAYTAlVT
MRowGAYDVQQKExFUZXN0IENlcnRpZmljYXRlczEdMBsGA1UEAxMUQmFkIENSTCBT
aWduYXR1cmUgQ0EwgZ8wDQYJKoZIhvcNAQEBBQADgY0AMIGJAoGBAJdogWv9CPXo
9rQEcxwXXws6b/WT7R/AspFsq4aVO/l7puHNxGIQybx5jK5W55wqPtHa5PPGSpJA
YkcuKVXL1ZqZh8A+VenvazNg0XoldwJZalTN0AwR3FprLL3cXYIwu8FFFERp8l/S
YgHz8wHRlA37Ph4a7cU78oLWK0wziElzAgMBAAGjfDB6MB8GA1UdIwQYMBaAFPts
1C2Bnsonep4NsDzqmryH/0nqMB0GA1UdDgQWBBT7CxX9unvmOEiZWhVgVVCXqjZs
QzAOBgNVHQ8BAf8EBAMCAQYwFwYDVR0gBBAwDjAMBgpghkgBZQMCATABMA8GA1Ud
EwEB/wQFMAMBAf8wDQYJKoZIhvcNAQEFBQADgYEAmZ8+7Hn2elBnvNREi2gDIa3P
POFc8RHEq6ajCkhgeJoQRygSFdfenhTKGtfvet/3j6hBZRHEVI2e8x5yiyBN/ZKV
SAdRCjXTg99nJJtkkqDhifkO5uUaxfcgj2LFt9DI7/b/jZzlNSD8BXqcifbjAf1s
IIlWmY0HVZgwucYLmC8=
-----END CERTIFICATE-----

subject=/C=US/O=Test Certificates/CN=Invalid Bad CRL Signature EE Certificate Test4
issuer=/C=US/O=Test Certificates/CN=Bad CRL Signature CA
-----BEGIN CERTIFICATE-----
MIICizCCAfSgAwIBAgIBATANBgkqhkiG9w0BAQUFADBIMQswCQYDVQQGEwJVUzEa
MBgGA1UEChMRVGVzdCBDZXJ0aWZpY2F0ZXMxHTAbBgNVBAMTFEJhZCBDUkwgU2ln
bmF0dXJlIENBMB4XDTAxMDQxOTE0NTcyMFoXDTExMDQxOTE0NTcyMFowYjELMAkG
A1UEBhMCVVMxGjAYBgNVBAoTEVRlc3QgQ2VydGlmaWNhdGVzMTcwNQYDVQQDEy5J
bnZhbGlkIEJhZCBDUkwgU2lnbmF0dXJlIEVFIENlcnRpZmljYXRlIFRlc3Q0MIGf
MA0GCSqGSIb3DQEBAQUAA4GNADCBiQKBgQCQDbS7uYXT/RjXcp9qBIMFgzo5WJJA
3/1rXCiA/BzowTDl87A4iGOmZ+LEkwpLarYI8mFzGmQAVIlJCn3KlTO4AuTWaMth
VZPgVZ5gVxVHQbqdb2VZXHVJGYB/yn+PJrghL5uy+kv9qzocq/jUrEHcnvBTQ+iI
8mutd/z8C/Qy9QIDAQABo2swaTAfBgNVHSMEGDAWgBT7CxX9unvmOEiZWhVgVVCX
qjZsQzAdBgNVHQ4EFgQUK1L621YMk2XrXnaVZG9PC/61mSYwDgYDVR0PAQH/BAQD
AgTwMBcGA1UdIAQQMA4wDAYKYIZIAWUDAgEwATANBgkqhkiG9w0BAQUFAAOBgQA5
Kis0tSW5S+c/zwTmKqh6DTRRISk2nn+KeQSUJdi6YXcuX3YIX/P4SxWNQ46dwKDl
lNNDVR3u7fiwwYf9BxICorMqY2FhrdFOoGclO1mCpRuBMhmER7hWivrftdi7ekeE
2aEHKWWnWwzU/qs6Z/6FK9waN4GviF8X+sqt/EHo+A==
-----END CERTIFICATE-----

Certificate Revocation List (CRL):
        Version 2 (0x1)
        Signature Algorithm: sha1WithRSAEncryption
        Issuer: /C=US/O=Test Certificates/CN=Bad CRL Signature CA
        Last Update: Apr 19 14:57:20 2001 GMT
        Next Update: Apr 19 14:57:20 2011 GMT
        CRL extensions:
            X509v3 Authority Key Identifier: 
                keyid:FB:0B:15:FD:BA:7B:E6:38:48:99:5A:15:60:55:50:97:AA:36:6C:43

            X509v3 CRL Number: 
                1
No Revoked Certificates.
    Signature Algorithm: sha1WithRSAEncryption
        68:7d:ef:9b:2c:27:82:c2:3c:2f:16:6a:09:27:73:ac:90:da:
        2e:66:07:a0:f4:c2:4e:4c:3a:52:02:f7:23:dc:52:f5:3e:2e:
        94:29:22:b8:f4:f1:c7:44:85:5e:84:8a:6e:37:5c:84:16:5e:
        70:b5:f5:13:81:8e:89:09:b6:48:0e:51:9c:15:94:21:f1:21:
        e6:38:14:50:a4:c3:85:4c:84:e9:eb:f6:b7:6a:a4:cc:12:02:
        a5:0f:42:af:9a:1c:d9:c0:4c:98:c3:1c:12:2e:f7:84:d8:fa:
        24:4b:68:3c:20:c6:7c:60:78:d6:46:37:68:28:4f:81:c1:b7:
        32:30
-----BEGIN X509 CRL-----
MIIBQTCBqwIBATANBgkqhkiG9w0BAQUFADBIMQswCQYDVQQGEwJVUzEaMBgGA1UE
ChMRVGVzdCBDZXJ0aWZpY2F0ZXMxHTAbBgNVBAMTFEJhZCBDUkwgU2lnbmF0dXJl
IENBFw0wMTA0MTkxNDU3MjBaFw0xMTA0MTkxNDU3MjBaoC8wLTAfBgNVHSMEGDAW
gBT7CxX9unvmOEiZWhVgVVCXqjZsQzAKBgNVHRQEAwIBATANBgkqhkiG9w0BAQUF
AAOBgQBofe+bLCeCwjwvFmoJJ3OskNouZgeg9MJOTDpSAvcj3FL1Pi6UKSK49PHH
RIVehIpuN1yEFl5wtfUTgY6JCbZIDlGcFZQh8SHmOBRQpMOFTITp6/a3aqTMEgKl
D0KvmhzZwEyYwxwSLveE2PokS2g8IMZ8YHjWRjdoKE+BwbcyMA==
-----END X509 CRL-----

Certificate Revocation List (CRL):
        Version 2 (0x1)
        Signature Algorithm: sha1WithRSAEncryption
        Issuer: /C=US/O=Test Certificates/CN=Trust Anchor
        Last Update: Apr 19 14:57:20 2001 GMT
        Next Update: Apr 19 14:57:20 2011 GMT
        CRL extensions:
            X509v3 Authority Key Identifier: 
                keyid:FB:6C:D4:2D:81:9E:CA:27:7A:9E:0D:B0:3C:EA:9A:BC:87:FF:49:EA

            X509v3 CRL Number: 
                1
Revoked Certificates:
    Serial Number: 68
        Revocation Date: Apr 19 14:57:20 2001 GMT
        CRL entry extensions:
            X509v3 CRL Reason Code: 
                Key Compromise
    Signature Algorithm: sha1WithRSAEncryption
        92:12:c4:34:b4:92:ab:ba:71:6b:74:31:16:ce:ed:25:d6:4b:
        1e:fa:f8:20:1e:9d:d7:7f:30:ed:15:f7:8b:5d:64:9b:dd:31:
        40:e4:55:0f:0c:5f:82:69:63:00:76:a5:cf:9e:c4:5f:f2:53:
        9b:9b:7d:f5:69:1d:74:57:38:70:e5:fb:5b:76:58:c9:ec:31:
        dc:94:1b:02:ee:9d:33:9c:38:4b:29:1d:e1:0c:29:8b:6e:c7:
        bf:a0:e8:40:34:83:cf:ff:9f:cd:b5:f7:d9:4d:a7:9f:2e:bf:
        44:98:6b:f2:d3:fe:a8:20:31:c1:33:76:b7:1c:19:65:4d:b9:
        14:39
-----BEGIN X509 CRL-----
MIIBXTCBxwIBATANBgkqhkiG9w0BAQUFADBAMQswCQYDVQQGEwJVUzEaMBgGA1UE
ChMRVGVzdCBDZXJ0aWZpY2F0ZXMxFTATBgNVBAMTDFRydXN0IEFuY2hvchcNMDEw
NDE5MTQ1NzIwWhcNMTEwNDE5MTQ1NzIwWjAiMCACAWgXDTAxMDQxOTE0NTcyMFow
DDAKBgNVHRUEAwoBAaAvMC0wHwYDVR0jBBgwFoAU+2zULYGeyid6ng2wPOqavIf/
SeowCgYDVR0UBAMCAQEwDQYJKoZIhvcNAQEFBQADgYEAkhLENLSSq7pxa3QxFs7t
JdZLHvr4IB6d138w7RX3i11km90xQORVDwxfgmljAHalz57EX/JTm5t99WkddFc4
cOX7W3ZYyewx3JQbAu6dM5w4Sykd4Qwpi27Hv6DoQDSDz/+fzbX32U2nny6/RJhr
8tP+qCAxwTN2txwZZU25FDk=
-----END X509 CRL-----

