subject=/C=US/O=Test Certificates/CN=pathLenConstraint6 CA
issuer=/C=US/O=Test Certificates/CN=Trust Anchor
-----BEGIN CERTIFICATE-----
MIICfjCCAeegAwIBAgIBGzANBgkqhkiG9w0BAQUFADBAMQswCQYDVQQGEwJVUzEa
MBgGA1UEChMRVGVzdCBDZXJ0aWZpY2F0ZXMxFTATBgNVBAMTDFRydXN0IEFuY2hv
cjAeFw0wMTA0MTkxNDU3MjBaFw0xMTA0MTkxNDU3MjBaMEkxCzAJBgNVBAYTAlVT
MRowGAYDVQQKExFUZXN0IENlcnRpZmljYXRlczEeMBwGA1UEAxMVcGF0aExlbkNv
bnN0cmFpbnQ2IENBMIGfMA0GCSqGSIb3DQEBAQUAA4GNADCBiQKBgQDbfycd4Ehd
RlHiRJp0MMk0H94GHYCYxpVEzfiC5V9w2M0NWJotHuHxdTvH02XZquFdQptZI0qZ
AGeBgE3+FBJAGOK0ZxYJgSyscFWBTLGzFZu2Y09siuEwlr5W4z6iByJpFYsEK0JS
icx7LPYOYyHmFpmDSdcUXwV59VWlaQn5HQIDAQABo38wfTAfBgNVHSMEGDAWgBT7
bNQtgZ7KJ3qeDbA86pq8h/9J6jAdBgNVHQ4EFgQUnY+0pLeirrl2tR7LH2QWpXoO
hUowDgYDVR0PAQH/BAQDAgEGMBcGA1UdIAQQMA4wDAYKYIZIAWUDAgEwATASBgNV
HRMBAf8ECDAGAQH/AgEGMA0GCSqGSIb3DQEBBQUAA4GBAKJlZqSQSA4tpA42dNOs
k5r0RU2BrRu2bPXhSEZHD0o46NJlNTNTfCAus4HtZ6GE1AvTIy3smHPGb1O4jth2
9hYXVqNHIEIlejhxgSE0trBBT5L5vodq5Pu5qoTWPZ2Uu8pdqRvdmypKr7gI5inp
Cu6s2eBv0+DeibQTg73sQuTj
-----END CERTIFICATE-----

subject=/C=US/O=Test Certificates/CN=pathLenConstraint6 subCA0
issuer=/C=US/O=Test Certificates/CN=pathLenConstraint6 CA
-----BEGIN CERTIFICATE-----
MIICizCCAfSgAwIBAgIBATANBgkqhkiG9w0BAQUFADBJMQswCQYDVQQGEwJVUzEa
MBgGA1UEChMRVGVzdCBDZXJ0aWZpY2F0ZXMxHjAcBgNVBAMTFXBhdGhMZW5Db25z
dHJhaW50NiBDQTAeFw0wMTA0MTkxNDU3MjBaFw0xMTA0MTkxNDU3MjBaME0xCzAJ
BgNVBAYTAlVTMRowGAYDVQQKExFUZXN0IENlcnRpZmljYXRlczEiMCAGA1UEAxMZ
cGF0aExlbkNvbnN0cmFpbnQ2IHN1YkNBMDCBnzANBgkqhkiG9w0BAQEFAAOBjQAw
gYkCgYEAt36UX+gq562CFiw9L16IZ/AjJhU0BB9ji/77uw3AfvBGggmikeDq79BD
yzBFrHys/L5UeXepakX1v+XvlxFjwvc8c226jf6uKEop5KJZDI8aV4byQvc1C8Ol
MdgZ4pd6ofTl28r1VDkdDt94c7+Gl0CqBo6LawwGmNfSHUWqf6UCAwEAAaN/MH0w
HwYDVR0jBBgwFoAUnY+0pLeirrl2tR7LH2QWpXoOhUowHQYDVR0OBBYEFAJIeLnM
AVExdH85KjfCRJN+mGmAMA4GA1UdDwEB/wQEAwIBBjAXBgNVHSAEEDAOMAwGCmCG
SAFlAwIBMAEwEgYDVR0TAQH/BAgwBgEB/wIBADANBgkqhkiG9w0BAQUFAAOBgQCm
Qa7i6335O64eyxJjXl3U2Bw5wN3JaK9t7f4dJAxfOlcblWbbes+Gk12UCYtxTZDj
oZ70F4IoGU7JQt5CcdB2yQtctPK+X7A3/Vsxjknm11nCn4IhcU7LDkEiSovBGLR0
KV3NAqQQhr1WQoY1Uf3Ncpl7b+SaZscZ3r35UJo4iw==
-----END CERTIFICATE-----

subject=/C=US/O=Test Certificates/CN=pathLenConstraint6 subsubCA00
issuer=/C=US/O=Test Certificates/CN=pathLenConstraint6 subCA0
-----BEGIN CERTIFICATE-----
MIICkzCCAfygAwIBAgIBATANBgkqhkiG9w0BAQUFADBNMQswCQYDVQQGEwJVUzEa
MBgGA1UEChMRVGVzdCBDZXJ0aWZpY2F0ZXMxIjAgBgNVBAMTGXBhdGhMZW5Db25z
dHJhaW50NiBzdWJDQTAwHhcNMDEwNDE5MTQ1NzIwWhcNMTEwNDE5MTQ1NzIwWjBR
MQswCQYDVQQGEwJVUzEaMBgGA1UEChMRVGVzdCBDZXJ0aWZpY2F0ZXMxJjAkBgNV
BAMTHXBhdGhMZW5Db25zdHJhaW50NiBzdWJzdWJDQTAwMIGfMA0GCSqGSIb3DQEB
AQUAA4GNADCBiQKBgQC3rH58cOqP9U5iyQflKaVyYw+1LMhr3jDW9/Q3aedlH/TY
iLmT71FUjHaJMWOCO6sAEYMphrRdIUy82rai3iJgrNtJ21uIFOlmjgwgl9amHX8B
yT+qgiwLs8kzE6NgPYHgLgbKEIqgZ+AZplCt60tCbeGKLR/WtXrxAIgqU+ar1wID
AQABo38wfTAfBgNVHSMEGDAWgBQCSHi5zAFRMXR/OSo3wkSTfphpgDAdBgNVHQ4E
FgQUauYRxUFtrRo+gtywXa3yGfFQzgswDgYDVR0PAQH/BAQDAgEGMBcGA1UdIAQQ
MA4wDAYKYIZIAWUDAgEwATASBgNVHRMBAf8ECDAGAQH/AgEAMA0GCSqGSIb3DQEB
BQUAA4GBADnBidpEzasWbrLankXCoCaeizozu2dGAMMWpbs02cplC/vIlcr0myWK
noFSuxUuQa7sMxp72p5r2ziJp5pk1gT2KX/kgOYlQqgbJ4UmARGP7er+zIPulXib
suMShSCGO1xC+fXppdhPy+YQq8a7Mzi7XKqP5su+aTWw/B3a8ys9
-----END CERTIFICATE-----

subject=/C=US/O=Test Certificates/CN=Invalid pathLenConstraint EE Certificate Test10
issuer=/C=US/O=Test Certificates/CN=pathLenConstraint6 subsubCA00
-----BEGIN CERTIFICATE-----
MIICpjCCAg+gAwIBAgIBAjANBgkqhkiG9w0BAQUFADBRMQswCQYDVQQGEwJVUzEa
MBgGA1UEChMRVGVzdCBDZXJ0aWZpY2F0ZXMxJjAkBgNVBAMTHXBhdGhMZW5Db25z
dHJhaW50NiBzdWJzdWJDQTAwMB4XDTAxMDQxOTE0NTcyMFoXDTExMDQxOTE0NTcy
MFowYzELMAkGA1UEBhMCVVMxGjAYBgNVBAoTEVRlc3QgQ2VydGlmaWNhdGVzMTgw
NgYDVQQDEy9JbnZhbGlkIHBhdGhMZW5Db25zdHJhaW50IEVFIENlcnRpZmljYXRl
IFRlc3QxMDCBnzANBgkqhkiG9w0BAQEFAAOBjQAwgYkCgYEAr0SfgP3iREpEpoxL
34yNQOjycTI5wM/Y9YXQ6E26DxRndEt8gy0Nt+w7/WcO0aJ/EA76704ckmtzahRW
gH7YAntSVCkBwyB8EDt0eBxom9vWRhPmqJgF6PJtcuAZnkISqXfw7zurQN/p1HzT
iBta6ocTlilBTPujtQ/X4O12W5kCAwEAAaN8MHowHwYDVR0jBBgwFoAUauYRxUFt
rRo+gtywXa3yGfFQzgswHQYDVR0OBBYEFLsMSzv8dfhgJ3MxRW07FltMDKkGMA4G
A1UdDwEB/wQEAwIB9jAXBgNVHSAEEDAOMAwGCmCGSAFlAwIBMAEwDwYDVR0TAQH/
BAUwAwEB/zANBgkqhkiG9w0BAQUFAAOBgQAfOH+DXogRwi00dAkv43qzCo23eOg7
uaaD7fgNVn7RrEYkyc0RZWf1P56IXe9aTM41eVmi1PyblkZ0aXH9e7ShaOW11Jk4
OpIpx+vR7HqBjW0yqIXES3pbA6Vm26gj1WDuq0oSps0+BxKTL5cHxVlCT9+YES4B
T1SmCaLl/UdsEA==
-----END CERTIFICATE-----

Certificate Revocation List (CRL):
        Version 2 (0x1)
        Signature Algorithm: sha1WithRSAEncryption
        Issuer: /C=US/O=Test Certificates/CN=pathLenConstraint6 CA
        Last Update: Apr 19 14:57:20 2001 GMT
        Next Update: Apr 19 14:57:20 2011 GMT
        CRL extensions:
            X509v3 Authority Key Identifier: 
                keyid:9D:8F:B4:A4:B7:A2:AE:B9:76:B5:1E:CB:1F:64:16:A5:7A:0E:85:4A

            X509v3 CRL Number: 
                1
No Revoked Certificates.
    Signature Algorithm: sha1WithRSAEncryption
        0d:f1:3d:54:c8:22:83:d4:1c:69:d2:12:e3:82:09:7e:b6:c0:
        af:f4:41:9b:51:c5:04:d4:c5:ca:51:73:5c:c5:14:c5:d6:d0:
        11:6c:40:ce:49:e7:80:49:a9:35:94:84:b5:bb:52:37:62:c3:
        5e:0e:18:48:57:44:b1:cd:97:a2:44:ef:9f:75:44:16:9e:58:
        ff:db:7f:18:8e:d5:07:fc:01:64:17:c3:00:79:4d:02:af:dd:
        08:88:37:03:be:cc:80:7a:cb:fd:e7:5c:53:03:b1:f2:17:16:
        1a:14:25:f4:ea:50:8c:14:ff:58:e9:2f:fe:e4:75:d9:67:78:
        fa:7a
-----BEGIN X509 CRL-----
MIIBQjCBrAIBATANBgkqhkiG9w0BAQUFADBJMQswCQYDVQQGEwJVUzEaMBgGA1UE
ChMRVGVzdCBDZXJ0aWZpY2F0ZXMxHjAcBgNVBAMTFXBhdGhMZW5Db25zdHJhaW50
NiBDQRcNMDEwNDE5MTQ1NzIwWhcNMTEwNDE5MTQ1NzIwWqAvMC0wHwYDVR0jBBgw
FoAUnY+0pLeirrl2tR7LH2QWpXoOhUowCgYDVR0UBAMCAQEwDQYJKoZIhvcNAQEF
BQADgYEADfE9VMgig9QcadIS44IJfrbAr/RBm1HFBNTFylFzXMUUxdbQEWxAzknn
gEmpNZSEtbtSN2LDXg4YSFdEsc2XokTvn3VEFp5Y/9t/GI7VB/wBZBfDAHlNAq/d
CIg3A77MgHrL/edcUwOx8hcWGhQl9OpQjBT/WOkv/uR12Wd4+no=
-----END X509 CRL-----

Certificate Revocation List (CRL):
        Version 2 (0x1)
        Signature Algorithm: sha1WithRSAEncryption
        Issuer: /C=US/O=Test Certificates/CN=pathLenConstraint6 subCA0
        Last Update: Apr 19 14:57:20 2001 GMT
        Next Update: Apr 19 14:57:20 2011 GMT
        CRL extensions:
            X509v3 Authority Key Identifier: 
                keyid:02:48:78:B9:CC:01:51:31:74:7F:39:2A:37:C2:44:93:7E:98:69:80

            X509v3 CRL Number: 
                1
No Revoked Certificates.
    Signature Algorithm: sha1WithRSAEncryption
        44:34:f6:c5:c0:16:f7:24:42:33:a8:e4:ca:74:71:94:76:93:
        e7:4b:7c:a3:8b:ac:ae:11:ab:46:94:f6:0d:88:b6:e0:96:1f:
        ab:04:6a:92:b7:6d:4b:aa:6a:b0:13:58:58:a7:7e:06:de:c1:
        26:d4:09:e0:7b:a9:e4:dd:73:da:b0:cc:a0:61:ab:c4:c7:cb:
        c2:e1:66:f9:f2:2a:c2:c9:59:5f:05:c6:74:f8:bd:bb:92:24:
        77:12:34:23:7d:95:99:bf:35:e0:6f:cf:2a:b6:19:29:9e:59:
        d2:0b:2f:07:44:25:66:6a:e9:5a:ed:7f:99:33:b5:3e:65:69:
        57:95
-----BEGIN X509 CRL-----
MIIBRjCBsAIBATANBgkqhkiG9w0BAQUFADBNMQswCQYDVQQGEwJVUzEaMBgGA1UE
ChMRVGVzdCBDZXJ0aWZpY2F0ZXMxIjAgBgNVBAMTGXBhdGhMZW5Db25zdHJhaW50
NiBzdWJDQTAXDTAxMDQxOTE0NTcyMFoXDTExMDQxOTE0NTcyMFqgLzAtMB8GA1Ud
IwQYMBaAFAJIeLnMAVExdH85KjfCRJN+mGmAMAoGA1UdFAQDAgEBMA0GCSqGSIb3
DQEBBQUAA4GBAEQ09sXAFvckQjOo5Mp0cZR2k+dLfKOLrK4Rq0aU9g2ItuCWH6sE
apK3bUuqarATWFinfgbewSbUCeB7qeTdc9qwzKBhq8THy8LhZvnyKsLJWV8FxnT4
vbuSJHcSNCN9lZm/NeBvzyq2GSmeWdILLwdEJWZq6Vrtf5kztT5laVeV
-----END X509 CRL-----

Certificate Revocation List (CRL):
        Version 2 (0x1)
        Signature Algorithm: sha1WithRSAEncryption
        Issuer: /C=US/O=Test Certificates/CN=pathLenConstraint6 subsubCA00
        Last Update: Apr 19 14:57:20 2001 GMT
        Next Update: Apr 19 14:57:20 2011 GMT
        CRL extensions:
            X509v3 Authority Key Identifier: 
                keyid:6A:E6:11:C5:41:6D:AD:1A:3E:82:DC:B0:5D:AD:F2:19:F1:50:CE:0B

            X509v3 CRL Number: 
                1
No Revoked Certificates.
    Signature Algorithm: sha1WithRSAEncryption
        42:5b:18:71:be:d6:f0:b4:80:f6:33:3c:cd:99:0d:26:f3:90:
        70:42:44:f8:f9:61:72:1c:b3:91:02:0a:14:55:67:d0:1b:23:
        06:f0:90:76:49:c6:82:23:70:da:3a:15:95:90:80:aa:8f:0e:
        fb:4e:5b:9b:66:38:21:14:15:c1:65:71:1d:e5:b6:90:ae:b2:
        7a:73:84:9a:1d:3c:f2:2f:65:0a:b4:7f:52:90:a1:1d:37:a6:
        24:a8:7f:5e:72:e5:1a:8b:89:31:ac:dc:0a:3a:d2:15:7f:f5:
        97:f3:1a:82:d6:fd:74:b5:92:0f:d5:d3:a5:74:1d:a3:7f:62:
        1b:c4
-----BEGIN X509 CRL-----
MIIBSjCBtAIBATANBgkqhkiG9w0BAQUFADBRMQswCQYDVQQGEwJVUzEaMBgGA1UE
ChMRVGVzdCBDZXJ0aWZpY2F0ZXMxJjAkBgNVBAMTHXBhdGhMZW5Db25zdHJhaW50
NiBzdWJzdWJDQTAwFw0wMTA0MTkxNDU3MjBaFw0xMTA0MTkxNDU3MjBaoC8wLTAf
BgNVHSMEGDAWgBRq5hHFQW2tGj6C3LBdrfIZ8VDOCzAKBgNVHRQEAwIBATANBgkq
hkiG9w0BAQUFAAOBgQBCWxhxvtbwtID2MzzNmQ0m85BwQkT4+WFyHLORAgoUVWfQ
GyMG8JB2ScaCI3DaOhWVkICqjw77TlubZjghFBXBZXEd5baQrrJ6c4SaHTzyL2UK
tH9SkKEdN6YkqH9ecuUai4kxrNwKOtIVf/WX8xqC1v10tZIP1dOldB2jf2IbxA==
-----END X509 CRL-----

Certificate Revocation List (CRL):
        Version 2 (0x1)
        Signature Algorithm: sha1WithRSAEncryption
        Issuer: /C=US/O=Test Certificates/CN=Trust Anchor
        Last Update: Apr 19 14:57:20 2001 GMT
        Next Update: Apr 19 14:57:20 2011 GMT
        CRL extensions:
            X509v3 Authority Key Identifier: 
                keyid:FB:6C:D4:2D:81:9E:CA:27:7A:9E:0D:B0:3C:EA:9A:BC:87:FF:49:EA

            X509v3 CRL Number: 
                1
Revoked Certificates:
    Serial Number: 68
        Revocation Date: Apr 19 14:57:20 2001 GMT
        CRL entry extensions:
            X509v3 CRL Reason Code: 
                Key Compromise
    Signature Algorithm: sha1WithRSAEncryption
        92:12:c4:34:b4:92:ab:ba:71:6b:74:31:16:ce:ed:25:d6:4b:
        1e:fa:f8:20:1e:9d:d7:7f:30:ed:15:f7:8b:5d:64:9b:dd:31:
        40:e4:55:0f:0c:5f:82:69:63:00:76:a5:cf:9e:c4:5f:f2:53:
        9b:9b:7d:f5:69:1d:74:57:38:70:e5:fb:5b:76:58:c9:ec:31:
        dc:94:1b:02:ee:9d:33:9c:38:4b:29:1d:e1:0c:29:8b:6e:c7:
        bf:a0:e8:40:34:83:cf:ff:9f:cd:b5:f7:d9:4d:a7:9f:2e:bf:
        44:98:6b:f2:d3:fe:a8:20:31:c1:33:76:b7:1c:19:65:4d:b9:
        14:39
-----BEGIN X509 CRL-----
MIIBXTCBxwIBATANBgkqhkiG9w0BAQUFADBAMQswCQYDVQQGEwJVUzEaMBgGA1UE
ChMRVGVzdCBDZXJ0aWZpY2F0ZXMxFTATBgNVBAMTDFRydXN0IEFuY2hvchcNMDEw
NDE5MTQ1NzIwWhcNMTEwNDE5MTQ1NzIwWjAiMCACAWgXDTAxMDQxOTE0NTcyMFow
DDAKBgNVHRUEAwoBAaAvMC0wHwYDVR0jBBgwFoAU+2zULYGeyid6ng2wPOqavIf/
SeowCgYDVR0UBAMCAQEwDQYJKoZIhvcNAQEFBQADgYEAkhLENLSSq7pxa3QxFs7t
JdZLHvr4IB6d138w7RX3i11km90xQORVDwxfgmljAHalz57EX/JTm5t99WkddFc4
cOX7W3ZYyewx3JQbAu6dM5w4Sykd4Qwpi27Hv6DoQDSDz/+fzbX32U2nny6/RJhr
8tP+qCAxwTN2txwZZU25FDk=
-----END X509 CRL-----

