subject=/C=US/O=Test Certificates/CN=deltaCRL CA1
issuer=/C=US/O=Test Certificates/CN=Trust Anchor
-----BEGIN CERTIFICATE-----
MIICcjCCAdugAwIBAgIBWzANBgkqhkiG9w0BAQUFADBAMQswCQYDVQQGEwJVUzEa
MBgGA1UEChMRVGVzdCBDZXJ0aWZpY2F0ZXMxFTATBgNVBAMTDFRydXN0IEFuY2hv
cjAeFw0wMTA0MTkxNDU3MjBaFw0xMTA0MTkxNDU3MjBaMEAxCzAJBgNVBAYTAlVT
MRowGAYDVQQKExFUZXN0IENlcnRpZmljYXRlczEVMBMGA1UEAxMMZGVsdGFDUkwg
Q0ExMIGfMA0GCSqGSIb3DQEBAQUAA4GNADCBiQKBgQCWAdMOZhkDHEp9KBGE+XuF
msopQ2J+rJDtUrJ4pDANd3KgvUwmAZnDOopO+3hIw/w6tsB48EJwMCiofofFALAT
zbGJidQOgpLF2if/SwmyWzUKqB8XirB9z5z0NLfE/0nnUhVQnAJ54W1jOz/+wMfg
7oWdQC0ZAd1ndBLf+mtqHwIDAQABo3wwejAfBgNVHSMEGDAWgBT7bNQtgZ7KJ3qe
DbA86pq8h/9J6jAdBgNVHQ4EFgQUk49NvPIc1wyuIEisujIaDdfoDc0wDgYDVR0P
AQH/BAQDAgEGMBcGA1UdIAQQMA4wDAYKYIZIAWUDAgEwATAPBgNVHRMBAf8EBTAD
AQH/MA0GCSqGSIb3DQEBBQUAA4GBAJhiiwAX8BQouosN8thaL0+ZHNhiuQ2gr8Mi
xgaJCB4DVxE5teLk0eeWz+KVJBQwDdrlK4l0BO595r8cldkYkKJkJl+ZGPbNSDys
XuVwXGbgfcUNPCeD1UIErQASVfomr3io69Nc62HwaBpTgARQO0wvfnIOFNAQSZH9
247eEnnm
-----END CERTIFICATE-----

subject=/C=US/O=Test Certificates/CN=Invalid deltaCRL EE Certificate Test4
issuer=/C=US/O=Test Certificates/CN=deltaCRL CA1
-----BEGIN CERTIFICATE-----
MIIDKDCCApGgAwIBAgIBAzANBgkqhkiG9w0BAQUFADBAMQswCQYDVQQGEwJVUzEa
MBgGA1UEChMRVGVzdCBDZXJ0aWZpY2F0ZXMxFTATBgNVBAMTDGRlbHRhQ1JMIENB
MTAeFw0wMTA0MTkxNDU3MjBaFw0xMTA0MTkxNDU3MjBaMFkxCzAJBgNVBAYTAlVT
MRowGAYDVQQKExFUZXN0IENlcnRpZmljYXRlczEuMCwGA1UEAxMlSW52YWxpZCBk
ZWx0YUNSTCBFRSBDZXJ0aWZpY2F0ZSBUZXN0NDCBnzANBgkqhkiG9w0BAQEFAAOB
jQAwgYkCgYEApl35weU2/WxOlBNEikRZQw51mRQgwiHdME99VsoaDgFPYglJARYk
IQDYMoImgMANlcfHOiVaOAyXU4lXuGmpw8z64BNhazbSkSEl5lHedJaTrG3pwst8
RIaAAvQbxOYAqrZyDz+9InoAj7ci9+TPhthUrmjkHxs7x/Bmkbmj9pcCAwEAAaOC
ARcwggETMB8GA1UdIwQYMBaAFJOPTbzyHNcMriBIrLoyGg3X6A3NMB0GA1UdDgQW
BBSZxHSKiyXXvxkmVXDhDuryYei0YTAOBgNVHQ8BAf8EBAMCBPAwFwYDVR0gBBAw
DjAMBgpghkgBZQMCATABMFMGA1UdHwRMMEowSKBGoESkQjBAMQswCQYDVQQGEwJV
UzEaMBgGA1UEChMRVGVzdCBDZXJ0aWZpY2F0ZXMxFTATBgNVBAMTDGRlbHRhQ1JM
IENBMTBTBgNVHS4ETDBKMEigRqBEpEIwQDELMAkGA1UEBhMCVVMxGjAYBgNVBAoT
EVRlc3QgQ2VydGlmaWNhdGVzMRUwEwYDVQQDEwxkZWx0YUNSTCBDQTEwDQYJKoZI
hvcNAQEFBQADgYEAVQbnMvz/UBEqrjWC/M/CNgiN/9NfiIj2+eYySOYG+HoJrVWC
qCDdYeXfKIHh8CtoS6s+S+xaYpEschIVX3kOjn/VMGOmvAtWlR3iy0nvVoRUoGDa
4eBv1NPq2MlQn5L7WsYHJFnJrLx+z9lWgfFYNKPiDY60dVmNPSfFzQpevu8=
-----END CERTIFICATE-----

Certificate Revocation List (CRL):
        Version 2 (0x1)
        Signature Algorithm: sha1WithRSAEncryption
        Issuer: /C=US/O=Test Certificates/CN=Trust Anchor
        Last Update: Apr 19 14:57:20 2001 GMT
        Next Update: Apr 19 14:57:20 2011 GMT
        CRL extensions:
            X509v3 Authority Key Identifier: 
                keyid:FB:6C:D4:2D:81:9E:CA:27:7A:9E:0D:B0:3C:EA:9A:BC:87:FF:49:EA

            X509v3 CRL Number: 
                1
Revoked Certificates:
    Serial Number: 68
        Revocation Date: Apr 19 14:57:20 2001 GMT
        CRL entry extensions:
            X509v3 CRL Reason Code: 
                Key Compromise
    Signature Algorithm: sha1WithRSAEncryption
        92:12:c4:34:b4:92:ab:ba:71:6b:74:31:16:ce:ed:25:d6:4b:
        1e:fa:f8:20:1e:9d:d7:7f:30:ed:15:f7:8b:5d:64:9b:dd:31:
        40:e4:55:0f:0c:5f:82:69:63:00:76:a5:cf:9e:c4:5f:f2:53:
        9b:9b:7d:f5:69:1d:74:57:38:70:e5:fb:5b:76:58:c9:ec:31:
        dc:94:1b:02:ee:9d:33:9c:38:4b:29:1d:e1:0c:29:8b:6e:c7:
        bf:a0:e8:40:34:83:cf:ff:9f:cd:b5:f7:d9:4d:a7:9f:2e:bf:
        44:98:6b:f2:d3:fe:a8:20:31:c1:33:76:b7:1c:19:65:4d:b9:
        14:39
-----BEGIN X509 CRL-----
MIIBXTCBxwIBATANBgkqhkiG9w0BAQUFADBAMQswCQYDVQQGEwJVUzEaMBgGA1UE
ChMRVGVzdCBDZXJ0aWZpY2F0ZXMxFTATBgNVBAMTDFRydXN0IEFuY2hvchcNMDEw
NDE5MTQ1NzIwWhcNMTEwNDE5MTQ1NzIwWjAiMCACAWgXDTAxMDQxOTE0NTcyMFow
DDAKBgNVHRUEAwoBAaAvMC0wHwYDVR0jBBgwFoAU+2zULYGeyid6ng2wPOqavIf/
SeowCgYDVR0UBAMCAQEwDQYJKoZIhvcNAQEFBQADgYEAkhLENLSSq7pxa3QxFs7t
JdZLHvr4IB6d138w7RX3i11km90xQORVDwxfgmljAHalz57EX/JTm5t99WkddFc4
cOX7W3ZYyewx3JQbAu6dM5w4Sykd4Qwpi27Hv6DoQDSDz/+fzbX32U2nny6/RJhr
8tP+qCAxwTN2txwZZU25FDk=
-----END X509 CRL-----

Certificate Revocation List (CRL):
        Version 2 (0x1)
        Signature Algorithm: sha1WithRSAEncryption
        Issuer: /C=US/O=Test Certificates/CN=deltaCRL CA1
        Last Update: Jan  1 12:00:00 2003 GMT
        Next Update: Apr 19 14:57:20 2011 GMT
        CRL extensions:
            X509v3 Authority Key Identifier: 
                keyid:93:8F:4D:BC:F2:1C:D7:0C:AE:20:48:AC:BA:32:1A:0D:D7:E8:0D:CD

            X509v3 CRL Number: 
                2
            X509v3 Delta CRL Indicator: critical
                1
Revoked Certificates:
    Serial Number: 03
        Revocation Date: Apr 19 14:57:20 2001 GMT
        CRL entry extensions:
            X509v3 CRL Reason Code: 
                Key Compromise
    Serial Number: 04
        Revocation Date: Apr 19 14:57:20 2001 GMT
        CRL entry extensions:
            X509v3 CRL Reason Code: 
                Remove From CRL
    Serial Number: 05
        Revocation Date: Apr 19 14:57:20 2001 GMT
        CRL entry extensions:
            X509v3 CRL Reason Code: 
                Key Compromise
    Serial Number: 06
        Revocation Date: Apr 19 14:57:20 2001 GMT
        CRL entry extensions:
            X509v3 CRL Reason Code: 
                Remove From CRL
    Signature Algorithm: sha1WithRSAEncryption
        63:e6:6b:e9:cf:44:29:c8:8b:e5:8c:ba:ab:26:57:a5:4f:a8:
        b6:e3:81:35:ff:73:8b:40:e0:79:7a:d7:69:8a:c5:a3:d9:85:
        29:ff:ef:e4:7a:4b:f5:36:51:34:79:9a:85:01:cb:ac:03:48:
        9e:2d:b7:b6:9e:82:57:b1:0a:b7:49:06:a8:cb:c3:71:2c:71:
        58:7d:e1:68:22:6a:11:3d:e6:ac:2a:58:d8:1d:97:3b:46:98:
        d0:f5:f2:85:85:7f:b5:c7:57:a4:0e:e4:fc:c8:cd:7e:b0:2c:
        1d:2d:86:30:1b:06:70:36:33:e0:69:47:60:98:5b:f5:93:35:
        90:7a
-----BEGIN X509 CRL-----
MIIB1DCCAT0CAQEwDQYJKoZIhvcNAQEFBQAwQDELMAkGA1UEBhMCVVMxGjAYBgNV
BAoTEVRlc3QgQ2VydGlmaWNhdGVzMRUwEwYDVQQDEwxkZWx0YUNSTCBDQTEXDTAz
MDEwMTEyMDAwMFoXDTExMDQxOTE0NTcyMFowgYgwIAIBAxcNMDEwNDE5MTQ1NzIw
WjAMMAoGA1UdFQQDCgEBMCACAQQXDTAxMDQxOTE0NTcyMFowDDAKBgNVHRUEAwoB
CDAgAgEFFw0wMTA0MTkxNDU3MjBaMAwwCgYDVR0VBAMKAQEwIAIBBhcNMDEwNDE5
MTQ1NzIwWjAMMAoGA1UdFQQDCgEIoD4wPDAfBgNVHSMEGDAWgBSTj0288hzXDK4g
SKy6MhoN1+gNzTAKBgNVHRQEAwIBAjANBgNVHRsBAf8EAwIBATANBgkqhkiG9w0B
AQUFAAOBgQBj5mvpz0QpyIvljLqrJlelT6i244E1/3OLQOB5etdpisWj2YUp/+/k
ekv1NlE0eZqFAcusA0ieLbe2noJXsQq3SQaoy8NxLHFYfeFoImoRPeasKljYHZc7
RpjQ9fKFhX+1x1ekDuT8yM1+sCwdLYYwGwZwNjPgaUdgmFv1kzWQeg==
-----END X509 CRL-----

Certificate Revocation List (CRL):
        Version 2 (0x1)
        Signature Algorithm: sha1WithRSAEncryption
        Issuer: /C=US/O=Test Certificates/CN=deltaCRL CA1
        Last Update: Apr 19 14:57:20 2001 GMT
        Next Update: Apr 19 14:57:20 2011 GMT
        CRL extensions:
            X509v3 Authority Key Identifier: 
                keyid:93:8F:4D:BC:F2:1C:D7:0C:AE:20:48:AC:BA:32:1A:0D:D7:E8:0D:CD

            X509v3 CRL Number: 
                1
            2.5.29.46: 
                0J0H.F.D.B0@1.0...U....US1.0...U.
..Test Certificates1.0...U....deltaCRL CA1
Revoked Certificates:
    Serial Number: 02
        Revocation Date: Apr 19 14:57:20 2001 GMT
        CRL entry extensions:
            X509v3 CRL Reason Code: 
                Key Compromise
    Serial Number: 04
        Revocation Date: Apr 19 14:57:20 2001 GMT
        CRL entry extensions:
            X509v3 CRL Reason Code: 
                Certificate Hold
    Serial Number: 05
        Revocation Date: Apr 19 14:57:20 2001 GMT
        CRL entry extensions:
            X509v3 CRL Reason Code: 
                Certificate Hold
    Signature Algorithm: sha1WithRSAEncryption
        48:32:1b:da:3a:c2:71:37:ea:24:5a:90:2f:19:b8:9e:00:96:
        b3:e1:2a:6d:ed:b5:7b:eb:90:30:ac:87:c0:8a:6d:ca:24:f4:
        73:dd:bd:b7:f8:cc:55:31:f3:d9:e2:a2:5c:7c:51:60:6d:a0:
        db:43:12:52:9c:94:fa:10:86:32:e6:a6:7e:ce:e6:c1:00:2e:
        fe:33:22:b3:5f:66:e9:d3:03:de:05:c4:94:bd:09:2b:1d:2e:
        06:86:e8:26:f5:f4:38:39:62:7e:e8:0e:bb:cd:c8:bb:82:92:
        71:96:8a:01:73:d7:ef:fa:a5:c2:94:53:e9:2c:34:a7:50:7d:
        eb:4e
-----BEGIN X509 CRL-----
MIIB+TCCAWICAQEwDQYJKoZIhvcNAQEFBQAwQDELMAkGA1UEBhMCVVMxGjAYBgNV
BAoTEVRlc3QgQ2VydGlmaWNhdGVzMRUwEwYDVQQDEwxkZWx0YUNSTCBDQTEXDTAx
MDQxOTE0NTcyMFoXDTExMDQxOTE0NTcyMFowZjAgAgECFw0wMTA0MTkxNDU3MjBa
MAwwCgYDVR0VBAMKAQEwIAIBBBcNMDEwNDE5MTQ1NzIwWjAMMAoGA1UdFQQDCgEG
MCACAQUXDTAxMDQxOTE0NTcyMFowDDAKBgNVHRUEAwoBBqCBhTCBgjAfBgNVHSME
GDAWgBSTj0288hzXDK4gSKy6MhoN1+gNzTAKBgNVHRQEAwIBATBTBgNVHS4ETDBK
MEigRqBEpEIwQDELMAkGA1UEBhMCVVMxGjAYBgNVBAoTEVRlc3QgQ2VydGlmaWNh
dGVzMRUwEwYDVQQDEwxkZWx0YUNSTCBDQTEwDQYJKoZIhvcNAQEFBQADgYEASDIb
2jrCcTfqJFqQLxm4ngCWs+Eqbe21e+uQMKyHwIptyiT0c929t/jMVTHz2eKiXHxR
YG2g20MSUpyU+hCGMuamfs7mwQAu/jMis19m6dMD3gXElL0JKx0uBoboJvX0ODli
fugOu83Iu4KScZaKAXPX7/qlwpRT6Sw0p1B9604=
-----END X509 CRL-----

