subject=/C=US/O=Test Certificates/CN=deltaCRL CA3
issuer=/C=US/O=Test Certificates/CN=Trust Anchor
-----BEGIN CERTIFICATE-----
MIICcjCCAdugAwIBAgIBXTANBgkqhkiG9w0BAQUFADBAMQswCQYDVQQGEwJVUzEa
MBgGA1UEChMRVGVzdCBDZXJ0aWZpY2F0ZXMxFTATBgNVBAMTDFRydXN0IEFuY2hv
cjAeFw0wMTA0MTkxNDU3MjBaFw0xMTA0MTkxNDU3MjBaMEAxCzAJBgNVBAYTAlVT
MRowGAYDVQQKExFUZXN0IENlcnRpZmljYXRlczEVMBMGA1UEAxMMZGVsdGFDUkwg
Q0EzMIGfMA0GCSqGSIb3DQEBAQUAA4GNADCBiQKBgQCyjb9j3IekGOkHy1SMKbO2
cxwOgq+Yl8JiAoQJk+wbolHouwKi3RFA75+gpgOiN0SeLz08puksttu+6NNeBmlI
VBHm6vN402CMD2mE5JN9ze88PmgzLW/NusnlGNUoYksZn6JLwIyAMqCq9ftTWh/d
Dy0s9MipYeAfErZCKqRoewIDAQABo3wwejAfBgNVHSMEGDAWgBT7bNQtgZ7KJ3qe
DbA86pq8h/9J6jAdBgNVHQ4EFgQU4hgGT7/eQNb/M10iVoncEPfOcL0wDgYDVR0P
AQH/BAQDAgEGMBcGA1UdIAQQMA4wDAYKYIZIAWUDAgEwATAPBgNVHRMBAf8EBTAD
AQH/MA0GCSqGSIb3DQEBBQUAA4GBAJ3F2hdP5d9HdGajPqfdokQc5GBFeZOqwu0M
3NB8RwFrC1PmrnRvCZETjCk9bMAlDIYde7XTym3nNwdl2xrMWn6xBBnBtVBU1uAo
96PxqkGgbm/uFUgMLUlww+CwMtAWfpZylChZNNxZSK40iS4jOlN5JajF1iLB+CTG
rC1IKMyc
-----END CERTIFICATE-----

subject=/C=US/O=Test Certificates/CN=Invalid deltaCRL EE Certificate Test10
issuer=/C=US/O=Test Certificates/CN=deltaCRL CA3
-----BEGIN CERTIFICATE-----
MIIDKTCCApKgAwIBAgIBATANBgkqhkiG9w0BAQUFADBAMQswCQYDVQQGEwJVUzEa
MBgGA1UEChMRVGVzdCBDZXJ0aWZpY2F0ZXMxFTATBgNVBAMTDGRlbHRhQ1JMIENB
MzAeFw0wMTA0MTkxNDU3MjBaFw0xMTA0MTkxNDU3MjBaMFoxCzAJBgNVBAYTAlVT
MRowGAYDVQQKExFUZXN0IENlcnRpZmljYXRlczEvMC0GA1UEAxMmSW52YWxpZCBk
ZWx0YUNSTCBFRSBDZXJ0aWZpY2F0ZSBUZXN0MTAwgZ8wDQYJKoZIhvcNAQEBBQAD
gY0AMIGJAoGBAPg+ULgLYvxSkvSwcxwt2gPwS+Snwayze8EhWojhINAcpYlb8sPh
4OaEgcnDvdOrOUGPIB2D/KOYrKEAqlRmM5zx12ZvpLevcV81RvNfe4FTRCqAqwhK
Vs+5ktfrGpJxjBVWC0Lds9VitDFQpVoA8ksVekcaTe2bHsI0Ovr0DJiXAgMBAAGj
ggEXMIIBEzAfBgNVHSMEGDAWgBTiGAZPv95A1v8zXSJWidwQ985wvTAdBgNVHQ4E
FgQU10CyKhocLN3j/y/kw/ue6MjvEF8wDgYDVR0PAQH/BAQDAgTwMBcGA1UdIAQQ
MA4wDAYKYIZIAWUDAgEwATBTBgNVHR8ETDBKMEigRqBEpEIwQDELMAkGA1UEBhMC
VVMxGjAYBgNVBAoTEVRlc3QgQ2VydGlmaWNhdGVzMRUwEwYDVQQDEwxkZWx0YUNS
TCBDQTMwUwYDVR0uBEwwSjBIoEagRKRCMEAxCzAJBgNVBAYTAlVTMRowGAYDVQQK
ExFUZXN0IENlcnRpZmljYXRlczEVMBMGA1UEAxMMZGVsdGFDUkwgQ0EzMA0GCSqG
SIb3DQEBBQUAA4GBAAUoNQS5AyzkN32ziPcC+VbKBJACILROlR93/RKUabl710wa
BNk1iOD+MQ9iUwOLXI/bAo5bqQP43gvVFETGio6KpzbsDfofpXMbliYNRyX6NYqy
38eEMeX/Tu2GvtAwIWPlW2rdCrAl0KS57hwRtpXvyikNxUHoYGmtREmOdFN+
-----END CERTIFICATE-----

Certificate Revocation List (CRL):
        Version 2 (0x1)
        Signature Algorithm: sha1WithRSAEncryption
        Issuer: /C=US/O=Test Certificates/CN=deltaCRL CA3
        Last Update: Jan  1 12:00:00 2003 GMT
        Next Update: Apr 19 14:57:20 2011 GMT
        CRL extensions:
            X509v3 Authority Key Identifier: 
                keyid:E2:18:06:4F:BF:DE:40:D6:FF:33:5D:22:56:89:DC:10:F7:CE:70:BD

            X509v3 CRL Number: 
                3
            X509v3 Delta CRL Indicator: critical
                2
No Revoked Certificates.
    Signature Algorithm: sha1WithRSAEncryption
        14:8e:0d:04:69:d0:fb:fc:c1:e0:51:af:b2:9c:b1:0e:d6:8d:
        da:4a:f1:94:a2:23:3e:6f:c9:9c:4d:d6:b0:03:6e:ae:c7:23:
        fc:6c:69:3e:66:ee:12:fa:2d:b4:12:08:76:16:e7:45:7c:6b:
        7c:b5:ca:dd:f3:67:81:c7:78:d0:0a:54:52:05:0e:a9:8e:36:
        5c:3e:9b:b7:b5:f1:18:a9:04:61:5a:95:4c:3f:a9:d2:76:c3:
        71:dd:2a:9a:78:27:4d:3e:e8:02:93:40:21:42:14:02:a8:0d:
        86:f4:27:53:8c:3c:07:ab:d4:70:29:2e:42:6b:db:5a:2d:06:
        54:e9
-----BEGIN X509 CRL-----
MIIBSDCBsgIBATANBgkqhkiG9w0BAQUFADBAMQswCQYDVQQGEwJVUzEaMBgGA1UE
ChMRVGVzdCBDZXJ0aWZpY2F0ZXMxFTATBgNVBAMTDGRlbHRhQ1JMIENBMxcNMDMw
MTAxMTIwMDAwWhcNMTEwNDE5MTQ1NzIwWqA+MDwwHwYDVR0jBBgwFoAU4hgGT7/e
QNb/M10iVoncEPfOcL0wCgYDVR0UBAMCAQMwDQYDVR0bAQH/BAMCAQIwDQYJKoZI
hvcNAQEFBQADgYEAFI4NBGnQ+/zB4FGvspyxDtaN2krxlKIjPm/JnE3WsANurscj
/GxpPmbuEvottBIIdhbnRXxrfLXK3fNngcd40ApUUgUOqY42XD6bt7XxGKkEYVqV
TD+p0nbDcd0qmngnTT7oApNAIUIUAqgNhvQnU4w8B6vUcCkuQmvbWi0GVOk=
-----END X509 CRL-----

Certificate Revocation List (CRL):
        Version 2 (0x1)
        Signature Algorithm: sha1WithRSAEncryption
        Issuer: /C=US/O=Test Certificates/CN=Trust Anchor
        Last Update: Apr 19 14:57:20 2001 GMT
        Next Update: Apr 19 14:57:20 2011 GMT
        CRL extensions:
            X509v3 Authority Key Identifier: 
                keyid:FB:6C:D4:2D:81:9E:CA:27:7A:9E:0D:B0:3C:EA:9A:BC:87:FF:49:EA

            X509v3 CRL Number: 
                1
Revoked Certificates:
    Serial Number: 68
        Revocation Date: Apr 19 14:57:20 2001 GMT
        CRL entry extensions:
            X509v3 CRL Reason Code: 
                Key Compromise
    Signature Algorithm: sha1WithRSAEncryption
        92:12:c4:34:b4:92:ab:ba:71:6b:74:31:16:ce:ed:25:d6:4b:
        1e:fa:f8:20:1e:9d:d7:7f:30:ed:15:f7:8b:5d:64:9b:dd:31:
        40:e4:55:0f:0c:5f:82:69:63:00:76:a5:cf:9e:c4:5f:f2:53:
        9b:9b:7d:f5:69:1d:74:57:38:70:e5:fb:5b:76:58:c9:ec:31:
        dc:94:1b:02:ee:9d:33:9c:38:4b:29:1d:e1:0c:29:8b:6e:c7:
        bf:a0:e8:40:34:83:cf:ff:9f:cd:b5:f7:d9:4d:a7:9f:2e:bf:
        44:98:6b:f2:d3:fe:a8:20:31:c1:33:76:b7:1c:19:65:4d:b9:
        14:39
-----BEGIN X509 CRL-----
MIIBXTCBxwIBATANBgkqhkiG9w0BAQUFADBAMQswCQYDVQQGEwJVUzEaMBgGA1UE
ChMRVGVzdCBDZXJ0aWZpY2F0ZXMxFTATBgNVBAMTDFRydXN0IEFuY2hvchcNMDEw
NDE5MTQ1NzIwWhcNMTEwNDE5MTQ1NzIwWjAiMCACAWgXDTAxMDQxOTE0NTcyMFow
DDAKBgNVHRUEAwoBAaAvMC0wHwYDVR0jBBgwFoAU+2zULYGeyid6ng2wPOqavIf/
SeowCgYDVR0UBAMCAQEwDQYJKoZIhvcNAQEFBQADgYEAkhLENLSSq7pxa3QxFs7t
JdZLHvr4IB6d138w7RX3i11km90xQORVDwxfgmljAHalz57EX/JTm5t99WkddFc4
cOX7W3ZYyewx3JQbAu6dM5w4Sykd4Qwpi27Hv6DoQDSDz/+fzbX32U2nny6/RJhr
8tP+qCAxwTN2txwZZU25FDk=
-----END X509 CRL-----

Certificate Revocation List (CRL):
        Version 2 (0x1)
        Signature Algorithm: sha1WithRSAEncryption
        Issuer: /C=US/O=Test Certificates/CN=deltaCRL CA3
        Last Update: Apr 19 14:57:20 2001 GMT
        Next Update: Jan  1 12:00:00 2003 GMT
        CRL extensions:
            X509v3 Authority Key Identifier: 
                keyid:E2:18:06:4F:BF:DE:40:D6:FF:33:5D:22:56:89:DC:10:F7:CE:70:BD

            X509v3 CRL Number: 
                1
            2.5.29.46: 
                0J0H.F.D.B0@1.0...U....US1.0...U.
..Test Certificates1.0...U....deltaCRL CA3
No Revoked Certificates.
    Signature Algorithm: sha1WithRSAEncryption
        87:f9:64:9d:19:1d:03:e9:68:e0:a8:3b:2a:8a:f2:74:a3:26:
        8a:2b:00:7e:6c:b3:4f:ae:70:d1:e3:ad:39:b5:ba:70:25:34:
        31:9b:12:06:6e:b2:59:f0:a8:56:24:67:c9:fc:76:54:74:4f:
        28:14:6c:7d:51:20:d7:8f:52:69:12:e1:67:2b:3a:d1:70:03:
        d6:8a:e5:c5:92:1e:61:29:9d:e5:55:c6:54:bb:8a:a9:b4:b7:
        f6:3b:ee:b1:63:90:a3:39:2c:29:b0:f3:2e:00:1c:f4:dd:76:
        46:40:31:0c:7e:29:ab:fb:35:ae:a8:73:8e:ca:a1:23:1c:12:
        8e:50
-----BEGIN X509 CRL-----
MIIBkDCB+gIBATANBgkqhkiG9w0BAQUFADBAMQswCQYDVQQGEwJVUzEaMBgGA1UE
ChMRVGVzdCBDZXJ0aWZpY2F0ZXMxFTATBgNVBAMTDGRlbHRhQ1JMIENBMxcNMDEw
NDE5MTQ1NzIwWhcNMDMwMTAxMTIwMDAwWqCBhTCBgjAfBgNVHSMEGDAWgBTiGAZP
v95A1v8zXSJWidwQ985wvTAKBgNVHRQEAwIBATBTBgNVHS4ETDBKMEigRqBEpEIw
QDELMAkGA1UEBhMCVVMxGjAYBgNVBAoTEVRlc3QgQ2VydGlmaWNhdGVzMRUwEwYD
VQQDEwxkZWx0YUNSTCBDQTMwDQYJKoZIhvcNAQEFBQADgYEAh/lknRkdA+lo4Kg7
KorydKMmiisAfmyzT65w0eOtObW6cCU0MZsSBm6yWfCoViRnyfx2VHRPKBRsfVEg
149SaRLhZys60XAD1orlxZIeYSmd5VXGVLuKqbS39jvusWOQozksKbDzLgAc9N12
RkAxDH4pq/s1rqhzjsqhIxwSjlA=
-----END X509 CRL-----

