subject=/C=US/O=Test Certificates/CN=Invalid inhibitPolicyMapping EE Certificate Test6
issuer=/C=US/O=Test Certificates/CN=inhibitPolicyMapping1 P12 subsubCAIPM5
-----BEGIN CERTIFICATE-----
MIICoDCCAgmgAwIBAgIBATANBgkqhkiG9w0BAQUFADBaMQswCQYDVQQGEwJVUzEa
MBgGA1UEChMRVGVzdCBDZXJ0aWZpY2F0ZXMxLzAtBgNVBAMTJmluaGliaXRQb2xp
Y3lNYXBwaW5nMSBQMTIgc3Vic3ViQ0FJUE01MB4XDTAxMDQxOTE0NTcyMFoXDTEx
MDQxOTE0NTcyMFowZTELMAkGA1UEBhMCVVMxGjAYBgNVBAoTEVRlc3QgQ2VydGlm
aWNhdGVzMTowOAYDVQQDEzFJbnZhbGlkIGluaGliaXRQb2xpY3lNYXBwaW5nIEVF
IENlcnRpZmljYXRlIFRlc3Q2MIGfMA0GCSqGSIb3DQEBAQUAA4GNADCBiQKBgQDA
pIyvpHy1AEaR244X+WehPi6kJ4zfm/clYT73uCvd/wtRc1ecFT83WALtOg6iWRxn
DxQ/Av2+6Sb5BGvOIyHVT/2cJIf325EZ/zxW6u9qb6+u2oWp8PX5ddUbH7yKAmXm
l3p3cVsZB1GkL4KdBrCQGdF8Khnb5cF5YBSuYEPZXQIDAQABo2swaTAfBgNVHSME
GDAWgBQkqwNVlYuV1wNEx93/fv32kbGgFjAdBgNVHQ4EFgQUYSBfuS0yhqXL/Jfv
5l9yYaw12g8wDgYDVR0PAQH/BAQDAgTwMBcGA1UdIAQQMA4wDAYKYIZIAWUDAgEw
AzANBgkqhkiG9w0BAQUFAAOBgQBa/IMv8cgYRBzo8cjsbIb+tzD4986MKnaHn5lL
SEdCOU8nZTscVwdXEg0N1Bza86ara3HXHtgpLauXgmcA0L7BUkGJty9vIMzqc6LN
VfDTX5iZoftoIKzFx8AsQio3Y9BlGRGU1NxKWyvrZj+PvT9lXym/Moe+b5pxez8b
WLtRZw==
-----END CERTIFICATE-----

subject=/C=US/O=Test Certificates/CN=inhibitPolicyMapping1 P12 CA
issuer=/C=US/O=Test Certificates/CN=Trust Anchor
-----BEGIN CERTIFICATE-----
MIICpjCCAg+gAwIBAgIBODANBgkqhkiG9w0BAQUFADBAMQswCQYDVQQGEwJVUzEa
MBgGA1UEChMRVGVzdCBDZXJ0aWZpY2F0ZXMxFTATBgNVBAMTDFRydXN0IEFuY2hv
cjAeFw0wMTA0MTkxNDU3MjBaFw0xMTA0MTkxNDU3MjBaMFAxCzAJBgNVBAYTAlVT
MRowGAYDVQQKExFUZXN0IENlcnRpZmljYXRlczElMCMGA1UEAxMcaW5oaWJpdFBv
bGljeU1hcHBpbmcxIFAxMiBDQTCBnzANBgkqhkiG9w0BAQEFAAOBjQAwgYkCgYEA
s4T6CQeTrbqUSlSczfx8iMSRK4ip9F4liS7giqCrZeZYEuP+/XoRZKzqmT3G+io6
zcenL7cegP9DJnTNuZ1nHEoeJTlhQZq00PD1n33OMK0zhMIirByYBpabztuw1dJ0
MKKcRzJ1AswgccI8seh2W1FXdFo/vGkDOkcD21Se0XUCAwEAAaOBnzCBnDAfBgNV
HSMEGDAWgBT7bNQtgZ7KJ3qeDbA86pq8h/9J6jAdBgNVHQ4EFgQUj3Ywg1+jhUuQ
FB4GBHs3AQUgJmYwDgYDVR0PAQH/BAQDAgEGMCUGA1UdIAQeMBwwDAYKYIZIAWUD
AgEwATAMBgpghkgBZQMCATACMA8GA1UdEwEB/wQFMAMBAf8wEgYDVR0kAQH/BAgw
BoABAIEBATANBgkqhkiG9w0BAQUFAAOBgQCXSeQ5mEkpmqCHstAZJbAGVSNrj3ka
eA0k2v+n7vDeZ+9F8bByDiBBz3RMTqmdZxQ6zroOPsw66HLxv5D7oJImbhyvFrnN
uxPGh8hvvP67N7UT9cM0RAoIQHmoI+3+o9cqOnTIJWXXPyq5q08yTrUt1lzFyrcK
wGB7PyQXRRDWjA==
-----END CERTIFICATE-----

subject=/C=US/O=Test Certificates/CN=inhibitPolicyMapping1 P12 subCAIPM5
issuer=/C=US/O=Test Certificates/CN=inhibitPolicyMapping1 P12 CA
-----BEGIN CERTIFICATE-----
MIICujCCAiOgAwIBAgIBAjANBgkqhkiG9w0BAQUFADBQMQswCQYDVQQGEwJVUzEa
MBgGA1UEChMRVGVzdCBDZXJ0aWZpY2F0ZXMxJTAjBgNVBAMTHGluaGliaXRQb2xp
Y3lNYXBwaW5nMSBQMTIgQ0EwHhcNMDEwNDE5MTQ1NzIwWhcNMTEwNDE5MTQ1NzIw
WjBXMQswCQYDVQQGEwJVUzEaMBgGA1UEChMRVGVzdCBDZXJ0aWZpY2F0ZXMxLDAq
BgNVBAMTI2luaGliaXRQb2xpY3lNYXBwaW5nMSBQMTIgc3ViQ0FJUE01MIGfMA0G
CSqGSIb3DQEBAQUAA4GNADCBiQKBgQCg4hWz7PbBhsTO+fpr6qznJLoay+MQhSxm
gq7gcER+qcx6hOwpIxvX2HUQ/q5RqJ6X539C1HyngpS383VGDqxzWTILMJ9p79He
5GhleTga2r/BSvq51G4uSJz4iJUJDEhzhQncRKUY65v1L8dz+lh/IHLRBGues3zP
dWc1cRQ1mQIDAQABo4GcMIGZMB8GA1UdIwQYMBaAFI92MINfo4VLkBQeBgR7NwEF
ICZmMB0GA1UdDgQWBBTm3o5WsPOWysSqTpK6CZqUqZRwPjAOBgNVHQ8BAf8EBAMC
AQYwJQYDVR0gBB4wHDAMBgpghkgBZQMCATABMAwGCmCGSAFlAwIBMAIwDwYDVR0T
AQH/BAUwAwEB/zAPBgNVHSQBAf8EBTADgQEFMA0GCSqGSIb3DQEBBQUAA4GBAEge
Ag2ZoOuHLLqscTmz4NbRwXvWWtesM8lVBhQtShOlAgBpxm6c7kd4e1LMeAPN7yPD
63DL3mDZnK+qtyvqXaK3uVSMg9CMGsGCqXGDRbmml0nbxbkLNGKYEtkJVzmIR9nZ
vf0ZHnAqC4006H8s1uFPNIJwjb6hfK6oecY1nqms
-----END CERTIFICATE-----

subject=/C=US/O=Test Certificates/CN=inhibitPolicyMapping1 P12 subsubCAIPM5
issuer=/C=US/O=Test Certificates/CN=inhibitPolicyMapping1 P12 subCAIPM5
-----BEGIN CERTIFICATE-----
MIIC2zCCAkSgAwIBAgIBATANBgkqhkiG9w0BAQUFADBXMQswCQYDVQQGEwJVUzEa
MBgGA1UEChMRVGVzdCBDZXJ0aWZpY2F0ZXMxLDAqBgNVBAMTI2luaGliaXRQb2xp
Y3lNYXBwaW5nMSBQMTIgc3ViQ0FJUE01MB4XDTAxMDQxOTE0NTcyMFoXDTExMDQx
OTE0NTcyMFowWjELMAkGA1UEBhMCVVMxGjAYBgNVBAoTEVRlc3QgQ2VydGlmaWNh
dGVzMS8wLQYDVQQDEyZpbmhpYml0UG9saWN5TWFwcGluZzEgUDEyIHN1YnN1YkNB
SVBNNTCBnzANBgkqhkiG9w0BAQEFAAOBjQAwgYkCgYEAoWsXQ0sXtSdVHZZ6NBai
/YaSnuULPstaxcOXjt23ujwGnhffZLbzqoz6crjhOj3j7u5CAl76NNcQPuYi9/EW
vxys93HyGAbgpl+YZ/zKL61BPTj5sBK4l5NEQoKUoPZsoeTDTXyD3HDWMDlJifXK
gDYpaao45yFD8N0WCfd8pccCAwEAAaOBszCBsDAfBgNVHSMEGDAWgBTm3o5WsPOW
ysSqTpK6CZqUqZRwPjAdBgNVHQ4EFgQUJKsDVZWLldcDRMfd/3799pGxoBYwDgYD
VR0PAQH/BAQDAgEGMCUGA1UdIAQeMBwwDAYKYIZIAWUDAgEwATAMBgpghkgBZQMC
ATACMCYGA1UdIQEB/wQcMBowGAYKYIZIAWUDAgEwAQYKYIZIAWUDAgEwAzAPBgNV
HRMBAf8EBTADAQH/MA0GCSqGSIb3DQEBBQUAA4GBAImakMw5q9O9ghGN6g4TQ/IG
gI7NgrjqoAKQiqZuD+kmbzSf1sGONmiLK44kykgJ0zZY4xbkoXVOQiNrnqDclNdf
Za0+Fmvfx9vVTlSoLQGwSHE3oWDKcamton847GkEmnP0RacqUkRkgpZam83tnDEX
c6eHTCxBYDmTTPuFe4fi
-----END CERTIFICATE-----

Certificate Revocation List (CRL):
        Version 2 (0x1)
        Signature Algorithm: sha1WithRSAEncryption
        Issuer: /C=US/O=Test Certificates/CN=inhibitPolicyMapping1 P12 CA
        Last Update: Apr 19 14:57:20 2001 GMT
        Next Update: Apr 19 14:57:20 2011 GMT
        CRL extensions:
            X509v3 Authority Key Identifier: 
                keyid:8F:76:30:83:5F:A3:85:4B:90:14:1E:06:04:7B:37:01:05:20:26:66

            X509v3 CRL Number: 
                1
No Revoked Certificates.
    Signature Algorithm: sha1WithRSAEncryption
        1f:20:b6:9f:f6:68:a0:22:5f:24:73:c0:ac:bc:8b:05:86:58:
        7b:97:ad:38:8e:70:61:7c:17:9d:38:21:06:0a:72:b5:41:3c:
        b6:9a:93:77:6f:e3:15:e6:06:74:67:90:b1:95:56:f2:be:52:
        21:6a:de:f7:bf:d9:2c:12:11:9d:dc:f9:ba:46:f9:92:24:75:
        ef:83:af:a2:8b:3a:79:da:ca:c5:72:a4:7b:19:e1:a2:f7:02:
        18:92:eb:a6:1b:74:bc:ba:62:51:d6:9f:69:af:20:34:3d:43:
        08:e7:15:da:75:79:b7:81:6e:ae:95:08:cb:7d:e0:3a:50:7e:
        c1:7e
-----BEGIN X509 CRL-----
MIIBSTCBswIBATANBgkqhkiG9w0BAQUFADBQMQswCQYDVQQGEwJVUzEaMBgGA1UE
ChMRVGVzdCBDZXJ0aWZpY2F0ZXMxJTAjBgNVBAMTHGluaGliaXRQb2xpY3lNYXBw
aW5nMSBQMTIgQ0EXDTAxMDQxOTE0NTcyMFoXDTExMDQxOTE0NTcyMFqgLzAtMB8G
A1UdIwQYMBaAFI92MINfo4VLkBQeBgR7NwEFICZmMAoGA1UdFAQDAgEBMA0GCSqG
SIb3DQEBBQUAA4GBAB8gtp/2aKAiXyRzwKy8iwWGWHuXrTiOcGF8F504IQYKcrVB
PLaak3dv4xXmBnRnkLGVVvK+UiFq3ve/2SwSEZ3c+bpG+ZIkde+Dr6KLOnnaysVy
pHsZ4aL3AhiS66YbdLy6YlHWn2mvIDQ9QwjnFdp1ebeBbq6VCMt94DpQfsF+
-----END X509 CRL-----

Certificate Revocation List (CRL):
        Version 2 (0x1)
        Signature Algorithm: sha1WithRSAEncryption
        Issuer: /C=US/O=Test Certificates/CN=inhibitPolicyMapping1 P12 subCAIPM5
        Last Update: Apr 19 14:57:20 2001 GMT
        Next Update: Apr 19 14:57:20 2011 GMT
        CRL extensions:
            X509v3 Authority Key Identifier: 
                keyid:E6:DE:8E:56:B0:F3:96:CA:C4:AA:4E:92:BA:09:9A:94:A9:94:70:3E

            X509v3 CRL Number: 
                1
No Revoked Certificates.
    Signature Algorithm: sha1WithRSAEncryption
        14:9f:a7:ad:6e:15:65:a1:9b:cc:49:11:63:ae:0e:76:54:26:
        5f:8b:a3:f4:12:98:db:47:80:4f:38:bf:c0:0a:f6:d8:df:b4:
        07:7e:06:6a:ae:f2:9c:6a:c2:9c:6a:75:99:df:19:36:ee:d3:
        de:59:91:32:7f:08:93:c3:31:6c:b1:cd:42:cb:72:74:04:27:
        1c:49:66:33:e0:10:8a:99:32:7b:66:6b:8b:8d:48:21:23:6d:
        1f:c4:b4:40:d6:8f:76:00:00:9c:6e:a1:bf:90:95:5e:b8:8d:
        e9:c7:a1:18:f1:bc:5c:28:05:7c:73:72:85:da:f1:a6:00:53:
        5c:0e
-----BEGIN X509 CRL-----
MIIBUDCBugIBATANBgkqhkiG9w0BAQUFADBXMQswCQYDVQQGEwJVUzEaMBgGA1UE
ChMRVGVzdCBDZXJ0aWZpY2F0ZXMxLDAqBgNVBAMTI2luaGliaXRQb2xpY3lNYXBw
aW5nMSBQMTIgc3ViQ0FJUE01Fw0wMTA0MTkxNDU3MjBaFw0xMTA0MTkxNDU3MjBa
oC8wLTAfBgNVHSMEGDAWgBTm3o5WsPOWysSqTpK6CZqUqZRwPjAKBgNVHRQEAwIB
ATANBgkqhkiG9w0BAQUFAAOBgQAUn6etbhVloZvMSRFjrg52VCZfi6P0EpjbR4BP
OL/ACvbY37QHfgZqrvKcasKcanWZ3xk27tPeWZEyfwiTwzFssc1Cy3J0BCccSWYz
4BCKmTJ7ZmuLjUghI20fxLRA1o92AACcbqG/kJVeuI3px6EY8bxcKAV8c3KF2vGm
AFNcDg==
-----END X509 CRL-----

Certificate Revocation List (CRL):
        Version 2 (0x1)
        Signature Algorithm: sha1WithRSAEncryption
        Issuer: /C=US/O=Test Certificates/CN=inhibitPolicyMapping1 P12 subsubCAIPM5
        Last Update: Apr 19 14:57:20 2001 GMT
        Next Update: Apr 19 14:57:20 2011 GMT
        CRL extensions:
            X509v3 Authority Key Identifier: 
                keyid:24:AB:03:55:95:8B:95:D7:03:44:C7:DD:FF:7E:FD:F6:91:B1:A0:16

            X509v3 CRL Number: 
                1
No Revoked Certificates.
    Signature Algorithm: sha1WithRSAEncryption
        03:dc:20:33:f7:b1:e9:f8:9d:47:00:86:08:2e:56:bc:02:0a:
        e4:46:90:48:a0:cd:37:63:71:fb:69:34:e1:0a:d0:aa:e4:f7:
        61:67:46:a7:b8:ba:11:67:30:eb:1b:85:e1:1d:0c:9b:e6:fd:
        fb:50:ea:c9:f3:e4:19:73:05:85:6b:cc:c3:f0:4a:2b:bc:75:
        7e:0f:b4:d1:64:39:b6:38:39:dc:30:77:33:91:b8:77:52:b6:
        70:ed:24:b3:34:7a:b8:ef:46:93:78:f7:7e:6d:6a:ae:2e:c8:
        a0:d7:76:ac:46:47:ff:1e:9d:fa:51:9b:47:cb:06:c3:c6:85:
        4c:9e
-----BEGIN X509 CRL-----
MIIBUzCBvQIBATANBgkqhkiG9w0BAQUFADBaMQswCQYDVQQGEwJVUzEaMBgGA1UE
ChMRVGVzdCBDZXJ0aWZpY2F0ZXMxLzAtBgNVBAMTJmluaGliaXRQb2xpY3lNYXBw
aW5nMSBQMTIgc3Vic3ViQ0FJUE01Fw0wMTA0MTkxNDU3MjBaFw0xMTA0MTkxNDU3
MjBaoC8wLTAfBgNVHSMEGDAWgBQkqwNVlYuV1wNEx93/fv32kbGgFjAKBgNVHRQE
AwIBATANBgkqhkiG9w0BAQUFAAOBgQAD3CAz97Hp+J1HAIYILla8AgrkRpBIoM03
Y3H7aTThCtCq5PdhZ0anuLoRZzDrG4XhHQyb5v37UOrJ8+QZcwWFa8zD8EorvHV+
D7TRZDm2ODncMHczkbh3UrZw7SSzNHq470aTePd+bWquLsig13asRkf/Hp36UZtH
ywbDxoVMng==
-----END X509 CRL-----

Certificate Revocation List (CRL):
        Version 2 (0x1)
        Signature Algorithm: sha1WithRSAEncryption
        Issuer: /C=US/O=Test Certificates/CN=Trust Anchor
        Last Update: Apr 19 14:57:20 2001 GMT
        Next Update: Apr 19 14:57:20 2011 GMT
        CRL extensions:
            X509v3 Authority Key Identifier: 
                keyid:FB:6C:D4:2D:81:9E:CA:27:7A:9E:0D:B0:3C:EA:9A:BC:87:FF:49:EA

            X509v3 CRL Number: 
                1
Revoked Certificates:
    Serial Number: 68
        Revocation Date: Apr 19 14:57:20 2001 GMT
        CRL entry extensions:
            X509v3 CRL Reason Code: 
                Key Compromise
    Signature Algorithm: sha1WithRSAEncryption
        92:12:c4:34:b4:92:ab:ba:71:6b:74:31:16:ce:ed:25:d6:4b:
        1e:fa:f8:20:1e:9d:d7:7f:30:ed:15:f7:8b:5d:64:9b:dd:31:
        40:e4:55:0f:0c:5f:82:69:63:00:76:a5:cf:9e:c4:5f:f2:53:
        9b:9b:7d:f5:69:1d:74:57:38:70:e5:fb:5b:76:58:c9:ec:31:
        dc:94:1b:02:ee:9d:33:9c:38:4b:29:1d:e1:0c:29:8b:6e:c7:
        bf:a0:e8:40:34:83:cf:ff:9f:cd:b5:f7:d9:4d:a7:9f:2e:bf:
        44:98:6b:f2:d3:fe:a8:20:31:c1:33:76:b7:1c:19:65:4d:b9:
        14:39
-----BEGIN X509 CRL-----
MIIBXTCBxwIBATANBgkqhkiG9w0BAQUFADBAMQswCQYDVQQGEwJVUzEaMBgGA1UE
ChMRVGVzdCBDZXJ0aWZpY2F0ZXMxFTATBgNVBAMTDFRydXN0IEFuY2hvchcNMDEw
NDE5MTQ1NzIwWhcNMTEwNDE5MTQ1NzIwWjAiMCACAWgXDTAxMDQxOTE0NTcyMFow
DDAKBgNVHRUEAwoBAaAvMC0wHwYDVR0jBBgwFoAU+2zULYGeyid6ng2wPOqavIf/
SeowCgYDVR0UBAMCAQEwDQYJKoZIhvcNAQEFBQADgYEAkhLENLSSq7pxa3QxFs7t
JdZLHvr4IB6d138w7RX3i11km90xQORVDwxfgmljAHalz57EX/JTm5t99WkddFc4
cOX7W3ZYyewx3JQbAu6dM5w4Sykd4Qwpi27Hv6DoQDSDz/+fzbX32U2nny6/RJhr
8tP+qCAxwTN2txwZZU25FDk=
-----END X509 CRL-----

