subject=/C=US/O=Test Certificates/CN=Long Serial Number CA
issuer=/C=US/O=Test Certificates/CN=Trust Anchor
-----BEGIN CERTIFICATE-----
MIICezCCAeSgAwIBAgIBEjANBgkqhkiG9w0BAQUFADBAMQswCQYDVQQGEwJVUzEa
MBgGA1UEChMRVGVzdCBDZXJ0aWZpY2F0ZXMxFTATBgNVBAMTDFRydXN0IEFuY2hv
cjAeFw0wMTA0MTkxNDU3MjBaFw0xMTA0MTkxNDU3MjBaMEkxCzAJBgNVBAYTAlVT
MRowGAYDVQQKExFUZXN0IENlcnRpZmljYXRlczEeMBwGA1UEAxMVTG9uZyBTZXJp
YWwgTnVtYmVyIENBMIGfMA0GCSqGSIb3DQEBAQUAA4GNADCBiQKBgQC1mCudsqPk
irIFe3XQBPzhyyRQyreJH26B3Yg6kYq1Obd6I1j7Ber4BDVyCCAvnS6rNkzsbaJf
+sWVf27Vug0uhasZx/3XGc0DbhZNr5iYknU1LEh8Ccq1Oymq0LPolAHqaJNOaYpb
K5Fq0P0RDcBK/ENgmtdY0CJrR7MWUTttqQIDAQABo3wwejAfBgNVHSMEGDAWgBT7
bNQtgZ7KJ3qeDbA86pq8h/9J6jAdBgNVHQ4EFgQU3z1I++My57kmUova7PgJT7PH
36YwDgYDVR0PAQH/BAQDAgEGMBcGA1UdIAQQMA4wDAYKYIZIAWUDAgEwATAPBgNV
HRMBAf8EBTADAQH/MA0GCSqGSIb3DQEBBQUAA4GBAHJqd5P8eBN05uB3+fPCfVjO
qX7csbAx6X1LNibOoWDlB9Y6fElHQS+i8HDPmIIdC7N/9xoCW/fhzZqb6VKDQXNM
9pwf6jOJKnNQOaQISdoIvj2Jn1FoE4Bo1SGGQo6ZgCWfXPA1TE93BXTua9Oa+FZ5
fhG3y3gMYLC6ciKePSDf
-----END CERTIFICATE-----

subject=/C=US/O=Test Certificates/CN=Invalid Long Serial Number EE Certificate Test18
issuer=/C=US/O=Test Certificates/CN=Long Serial Number CA
-----BEGIN CERTIFICATE-----
MIICoTCCAgqgAwIBAgIUfwECAwQFBgcICQoLDA0ODxAREhMwDQYJKoZIhvcNAQEF
BQAwSTELMAkGA1UEBhMCVVMxGjAYBgNVBAoTEVRlc3QgQ2VydGlmaWNhdGVzMR4w
HAYDVQQDExVMb25nIFNlcmlhbCBOdW1iZXIgQ0EwHhcNMDEwNDE5MTQ1NzIwWhcN
MTEwNDE5MTQ1NzIwWjBkMQswCQYDVQQGEwJVUzEaMBgGA1UEChMRVGVzdCBDZXJ0
aWZpY2F0ZXMxOTA3BgNVBAMTMEludmFsaWQgTG9uZyBTZXJpYWwgTnVtYmVyIEVF
IENlcnRpZmljYXRlIFRlc3QxODCBnzANBgkqhkiG9w0BAQEFAAOBjQAwgYkCgYEA
2sI1yl0rje3fSYBkT9yPudlTELF0ndMo5oaWr8vE9UjhpBrgSFFtYu6GZAbqeZEB
i0faI9SWBl06pWZj47auSdPeU0Akrzn6If3Vc2eVJKCtAHQuxnd9dToJDqjIiA0z
YVT7YTE7zLs9d0HHhDhM/VYqBKqtqrOTEhss0ryQRSsCAwEAAaNrMGkwHwYDVR0j
BBgwFoAU3z1I++My57kmUova7PgJT7PH36YwHQYDVR0OBBYEFLVbztWeCD3WQICU
BucmQT4POFoDMA4GA1UdDwEB/wQEAwIE8DAXBgNVHSAEEDAOMAwGCmCGSAFlAwIB
MAEwDQYJKoZIhvcNAQEFBQADgYEAZjyhu29ssno3io8WqDGabhCgGRL6lS3tgEsq
k5sxDXO5xgZf//iGlwXTy8w2H+MZ/SX+2acfmFnALYXcGkK5ZHjKQjMOpJZwF/kB
mzJP4HDEVY5lsvPyVKYqks4lRkbJOMXVBh3Ub5/ag1eOcTeljYhwU66DUMByVzQP
1RwAcK8=
-----END CERTIFICATE-----

Certificate Revocation List (CRL):
        Version 2 (0x1)
        Signature Algorithm: sha1WithRSAEncryption
        Issuer: /C=US/O=Test Certificates/CN=Trust Anchor
        Last Update: Apr 19 14:57:20 2001 GMT
        Next Update: Apr 19 14:57:20 2011 GMT
        CRL extensions:
            X509v3 Authority Key Identifier: 
                keyid:FB:6C:D4:2D:81:9E:CA:27:7A:9E:0D:B0:3C:EA:9A:BC:87:FF:49:EA

            X509v3 CRL Number: 
                1
Revoked Certificates:
    Serial Number: 68
        Revocation Date: Apr 19 14:57:20 2001 GMT
        CRL entry extensions:
            X509v3 CRL Reason Code: 
                Key Compromise
    Signature Algorithm: sha1WithRSAEncryption
        92:12:c4:34:b4:92:ab:ba:71:6b:74:31:16:ce:ed:25:d6:4b:
        1e:fa:f8:20:1e:9d:d7:7f:30:ed:15:f7:8b:5d:64:9b:dd:31:
        40:e4:55:0f:0c:5f:82:69:63:00:76:a5:cf:9e:c4:5f:f2:53:
        9b:9b:7d:f5:69:1d:74:57:38:70:e5:fb:5b:76:58:c9:ec:31:
        dc:94:1b:02:ee:9d:33:9c:38:4b:29:1d:e1:0c:29:8b:6e:c7:
        bf:a0:e8:40:34:83:cf:ff:9f:cd:b5:f7:d9:4d:a7:9f:2e:bf:
        44:98:6b:f2:d3:fe:a8:20:31:c1:33:76:b7:1c:19:65:4d:b9:
        14:39
-----BEGIN X509 CRL-----
MIIBXTCBxwIBATANBgkqhkiG9w0BAQUFADBAMQswCQYDVQQGEwJVUzEaMBgGA1UE
ChMRVGVzdCBDZXJ0aWZpY2F0ZXMxFTATBgNVBAMTDFRydXN0IEFuY2hvchcNMDEw
NDE5MTQ1NzIwWhcNMTEwNDE5MTQ1NzIwWjAiMCACAWgXDTAxMDQxOTE0NTcyMFow
DDAKBgNVHRUEAwoBAaAvMC0wHwYDVR0jBBgwFoAU+2zULYGeyid6ng2wPOqavIf/
SeowCgYDVR0UBAMCAQEwDQYJKoZIhvcNAQEFBQADgYEAkhLENLSSq7pxa3QxFs7t
JdZLHvr4IB6d138w7RX3i11km90xQORVDwxfgmljAHalz57EX/JTm5t99WkddFc4
cOX7W3ZYyewx3JQbAu6dM5w4Sykd4Qwpi27Hv6DoQDSDz/+fzbX32U2nny6/RJhr
8tP+qCAxwTN2txwZZU25FDk=
-----END X509 CRL-----

Certificate Revocation List (CRL):
        Version 2 (0x1)
        Signature Algorithm: sha1WithRSAEncryption
        Issuer: /C=US/O=Test Certificates/CN=Long Serial Number CA
        Last Update: Apr 19 14:57:20 2001 GMT
        Next Update: Apr 19 14:57:20 2011 GMT
        CRL extensions:
            X509v3 Authority Key Identifier: 
                keyid:DF:3D:48:FB:E3:32:E7:B9:26:52:8B:DA:EC:F8:09:4F:B3:C7:DF:A6

            X509v3 CRL Number: 
                1
Revoked Certificates:
    Serial Number: 7F0102030405060708090A0B0C0D0E0F10111213
        Revocation Date: Apr 19 14:57:20 2001 GMT
        CRL entry extensions:
            X509v3 CRL Reason Code: 
                Key Compromise
    Signature Algorithm: sha1WithRSAEncryption
        7a:20:63:9e:55:8d:d1:c3:ab:3f:37:97:45:61:6c:a3:21:9f:
        83:bd:ce:63:48:7c:a8:ca:36:15:02:3b:1b:51:66:e0:23:df:
        de:ea:86:72:e6:92:9a:63:c7:0e:31:30:ee:62:83:1c:3e:23:
        20:29:23:ec:aa:2e:f6:18:ba:94:45:e7:af:5e:44:0d:3c:2b:
        13:6b:8c:7c:7a:6d:a2:f7:b5:9e:ea:d6:f9:9d:4d:31:91:8f:
        ea:4d:b7:ef:5f:5a:2e:63:fc:37:02:5a:db:a6:3e:de:6b:a7:
        84:83:d2:a7:5b:e2:07:85:9f:0a:03:f0:33:53:eb:a3:d1:d4:
        16:02
-----BEGIN X509 CRL-----
MIIBeTCB4wIBATANBgkqhkiG9w0BAQUFADBJMQswCQYDVQQGEwJVUzEaMBgGA1UE
ChMRVGVzdCBDZXJ0aWZpY2F0ZXMxHjAcBgNVBAMTFUxvbmcgU2VyaWFsIE51bWJl
ciBDQRcNMDEwNDE5MTQ1NzIwWhcNMTEwNDE5MTQ1NzIwWjA1MDMCFH8BAgMEBQYH
CAkKCwwNDg8QERITFw0wMTA0MTkxNDU3MjBaMAwwCgYDVR0VBAMKAQGgLzAtMB8G
A1UdIwQYMBaAFN89SPvjMue5JlKL2uz4CU+zx9+mMAoGA1UdFAQDAgEBMA0GCSqG
SIb3DQEBBQUAA4GBAHogY55VjdHDqz83l0VhbKMhn4O9zmNIfKjKNhUCOxtRZuAj
397qhnLmkppjxw4xMO5igxw+IyApI+yqLvYYupRF569eRA08KxNrjHx6baL3tZ7q
1vmdTTGRj+pNt+9fWi5j/DcCWtumPt5rp4SD0qdb4geFnwoD8DNT66PR1BYC
-----END X509 CRL-----

