subject=/C=US/O=Test Certificates/CN=Separate Certificate and CRL Keys CA2
issuer=/C=US/O=Test Certificates/CN=Trust Anchor
-----BEGIN CERTIFICATE-----
MIICejCCAeOgAwIBAgIBaDANBgkqhkiG9w0BAQUFADBAMQswCQYDVQQGEwJVUzEa
MBgGA1UEChMRVGVzdCBDZXJ0aWZpY2F0ZXMxFTATBgNVBAMTDFRydXN0IEFuY2hv
cjAeFw0wMTA0MTkxNDU3MjBaFw0xMTA0MTkxNDU3MjBaMFkxCzAJBgNVBAYTAlVT
MRowGAYDVQQKExFUZXN0IENlcnRpZmljYXRlczEuMCwGA1UEAxMlU2VwYXJhdGUg
Q2VydGlmaWNhdGUgYW5kIENSTCBLZXlzIENBMjCBnzANBgkqhkiG9w0BAQEFAAOB
jQAwgYkCgYEAkE8ewG6H/K9jn0Mr7uh5z08m2Q6L7j8F5TVV2RmRs5Pg7bhbYp84
NplFussZhcF8atUil4VjtO7lRP7tJU1+whPYfXiGfJD4zPT/Xm6lmDdSFc8R2y0q
tzJgoGWHlJgV//Pqd+n+UOLGZ5zGu6RW032gStSaTqwSKJZb4teHKEECAwEAAaNr
MGkwHwYDVR0jBBgwFoAU+2zULYGeyid6ng2wPOqavIf/SeowHQYDVR0OBBYEFFX8
0tqrZMOyYTeQKZ7TKM9hKhqnMA4GA1UdDwEB/wQEAwIBAjAXBgNVHSAEEDAOMAwG
CmCGSAFlAwIBMAEwDQYJKoZIhvcNAQEFBQADgYEAQED5V5G6uHHjObLE3i2wzZcA
u6p/+2z2HqalTsdJp8Nrbi6HIYSknqTJISfZtamnd7a5yoevYv6NCt2pE35uXibI
4RppXx1RfRHygFa/owUulclmTIfUnF2OqAvKJ2kIHyaEaS4xOZsH2czU9tHC63Nf
ps1BS8MMZbABdGW8398=
-----END CERTIFICATE-----

subject=/C=US/O=Test Certificates/CN=Separate Certificate and CRL Keys CA2
issuer=/C=US/O=Test Certificates/CN=Trust Anchor
-----BEGIN CERTIFICATE-----
MIICizCCAfSgAwIBAgIBZzANBgkqhkiG9w0BAQUFADBAMQswCQYDVQQGEwJVUzEa
MBgGA1UEChMRVGVzdCBDZXJ0aWZpY2F0ZXMxFTATBgNVBAMTDFRydXN0IEFuY2hv
cjAeFw0wMTA0MTkxNDU3MjBaFw0xMTA0MTkxNDU3MjBaMFkxCzAJBgNVBAYTAlVT
MRowGAYDVQQKExFUZXN0IENlcnRpZmljYXRlczEuMCwGA1UEAxMlU2VwYXJhdGUg
Q2VydGlmaWNhdGUgYW5kIENSTCBLZXlzIENBMjCBnzANBgkqhkiG9w0BAQEFAAOB
jQAwgYkCgYEA3KYLjNA57lhgkT+vLnGuU5pyEDLnM+ziS9ieLUKICACgJVoWIffi
mlCwAibbpcCvUUXOXuJafNB0BrgRf40KooyTOQJUckIm4UsMNuth0c0rkM0uT8sO
dzfZ2OmD4or6Og4QQlHHFnSJJ/Z8sELlzOot8jb1LmpNW+j9DamSUq8CAwEAAaN8
MHowHwYDVR0jBBgwFoAU+2zULYGeyid6ng2wPOqavIf/SeowHQYDVR0OBBYEFLgZ
mHzJeDS0JL5/mP3lo87ejVq+MA4GA1UdDwEB/wQEAwICBDAXBgNVHSAEEDAOMAwG
CmCGSAFlAwIBMAEwDwYDVR0TAQH/BAUwAwEB/zANBgkqhkiG9w0BAQUFAAOBgQCt
w82gQMooCa5xgbsT0eM6FUdx767nks7Ty/HLHe0EJ6NwKxIV1JQ7QO1A9+B/i3oX
I4bStXzp7xb6I0F+9vkpjDf/rOLN384olQ5WMvck2yiud7606uYPGPKNY5pK2KbP
Au452W+m5r1g5hzg7Cp/VolIepWLazfVISLk/D3EuA==
-----END CERTIFICATE-----

subject=/C=US/O=Test Certificates/CN=Invalid Separate Certificate and CRL Keys EE Certificate Test21
issuer=/C=US/O=Test Certificates/CN=Separate Certificate and CRL Keys CA2
-----BEGIN CERTIFICATE-----
MIICrTCCAhagAwIBAgIBATANBgkqhkiG9w0BAQUFADBZMQswCQYDVQQGEwJVUzEa
MBgGA1UEChMRVGVzdCBDZXJ0aWZpY2F0ZXMxLjAsBgNVBAMTJVNlcGFyYXRlIENl
cnRpZmljYXRlIGFuZCBDUkwgS2V5cyBDQTIwHhcNMDEwNDE5MTQ1NzIwWhcNMTEw
NDE5MTQ1NzIwWjBzMQswCQYDVQQGEwJVUzEaMBgGA1UEChMRVGVzdCBDZXJ0aWZp
Y2F0ZXMxSDBGBgNVBAMTP0ludmFsaWQgU2VwYXJhdGUgQ2VydGlmaWNhdGUgYW5k
IENSTCBLZXlzIEVFIENlcnRpZmljYXRlIFRlc3QyMTCBnzANBgkqhkiG9w0BAQEF
AAOBjQAwgYkCgYEAz5LVC14LIVOAWSDaOhj3dMdR3uhZoXO8IIu2MptactPNTm0y
vKDMchcc9c33HActpSJH6vGOrl1DWTMfFv7g+lAfhxAyD7/Pe+MY82bUCee/2y3M
5hlk9MlVlFKCuZ3w3GST1bOxnwIunLQ3OuZw90o88OWQ56udtd1pDlFSs3sCAwEA
AaNrMGkwHwYDVR0jBBgwFoAUuBmYfMl4NLQkvn+Y/eWjzt6NWr4wHQYDVR0OBBYE
FIRTaV2lGD+eaFK3LoplVXGjlEG0MA4GA1UdDwEB/wQEAwIE8DAXBgNVHSAEEDAO
MAwGCmCGSAFlAwIBMAEwDQYJKoZIhvcNAQEFBQADgYEAX8GUnKuy9YrVyKYhWiNY
XXNHf78GfFyK+477KeBSUdNQlX3swh3jQZAMgEY0hy/SrunP4TcO/G9Wba1y+O3T
dO7bBLaMNHNcbnfJZL7py11wtl0BryXFbQWeWQulRw/8AohgtrAzhz4C6KCNZBKl
x5j9BiH1ClsZAQMLLFjZYEk=
-----END CERTIFICATE-----

Certificate Revocation List (CRL):
        Version 2 (0x1)
        Signature Algorithm: sha1WithRSAEncryption
        Issuer: /C=US/O=Test Certificates/CN=Separate Certificate and CRL Keys CA2
        Last Update: Apr 19 14:57:20 2001 GMT
        Next Update: Apr 19 14:57:20 2011 GMT
        CRL extensions:
            X509v3 Authority Key Identifier: 
                keyid:55:FC:D2:DA:AB:64:C3:B2:61:37:90:29:9E:D3:28:CF:61:2A:1A:A7

            X509v3 CRL Number: 
                1
No Revoked Certificates.
    Signature Algorithm: sha1WithRSAEncryption
        73:25:e2:82:ca:46:5a:88:06:0d:a4:bb:97:86:32:d8:a0:c7:
        8e:04:6d:f3:43:05:d5:a5:e3:87:f6:6f:19:5a:56:49:87:15:
        c1:f8:26:67:e2:ec:28:c3:e1:3f:ab:aa:ed:3f:40:9a:0d:e0:
        16:22:47:ba:3a:c2:b4:ff:ea:5d:80:82:df:68:0d:ad:b0:11:
        bd:15:3c:1d:1c:56:87:81:2e:d4:e8:cf:53:ac:c0:41:fa:5d:
        22:53:3c:f5:6e:25:e4:8f:43:59:c8:17:22:4f:13:da:38:55:
        dd:92:d3:b0:23:27:8e:c5:85:35:1e:28:e2:a7:6b:79:f9:25:
        43:ee
-----BEGIN X509 CRL-----
MIIBUjCBvAIBATANBgkqhkiG9w0BAQUFADBZMQswCQYDVQQGEwJVUzEaMBgGA1UE
ChMRVGVzdCBDZXJ0aWZpY2F0ZXMxLjAsBgNVBAMTJVNlcGFyYXRlIENlcnRpZmlj
YXRlIGFuZCBDUkwgS2V5cyBDQTIXDTAxMDQxOTE0NTcyMFoXDTExMDQxOTE0NTcy
MFqgLzAtMB8GA1UdIwQYMBaAFFX80tqrZMOyYTeQKZ7TKM9hKhqnMAoGA1UdFAQD
AgEBMA0GCSqGSIb3DQEBBQUAA4GBAHMl4oLKRlqIBg2ku5eGMtigx44EbfNDBdWl
44f2bxlaVkmHFcH4Jmfi7CjD4T+rqu0/QJoN4BYiR7o6wrT/6l2Agt9oDa2wEb0V
PB0cVoeBLtToz1OswEH6XSJTPPVuJeSPQ1nIFyJPE9o4Vd2S07AjJ47FhTUeKOKn
a3n5JUPu
-----END X509 CRL-----

Certificate Revocation List (CRL):
        Version 2 (0x1)
        Signature Algorithm: sha1WithRSAEncryption
        Issuer: /C=US/O=Test Certificates/CN=Trust Anchor
        Last Update: Apr 19 14:57:20 2001 GMT
        Next Update: Apr 19 14:57:20 2011 GMT
        CRL extensions:
            X509v3 Authority Key Identifier: 
                keyid:FB:6C:D4:2D:81:9E:CA:27:7A:9E:0D:B0:3C:EA:9A:BC:87:FF:49:EA

            X509v3 CRL Number: 
                1
Revoked Certificates:
    Serial Number: 68
        Revocation Date: Apr 19 14:57:20 2001 GMT
        CRL entry extensions:
            X509v3 CRL Reason Code: 
                Key Compromise
    Signature Algorithm: sha1WithRSAEncryption
        92:12:c4:34:b4:92:ab:ba:71:6b:74:31:16:ce:ed:25:d6:4b:
        1e:fa:f8:20:1e:9d:d7:7f:30:ed:15:f7:8b:5d:64:9b:dd:31:
        40:e4:55:0f:0c:5f:82:69:63:00:76:a5:cf:9e:c4:5f:f2:53:
        9b:9b:7d:f5:69:1d:74:57:38:70:e5:fb:5b:76:58:c9:ec:31:
        dc:94:1b:02:ee:9d:33:9c:38:4b:29:1d:e1:0c:29:8b:6e:c7:
        bf:a0:e8:40:34:83:cf:ff:9f:cd:b5:f7:d9:4d:a7:9f:2e:bf:
        44:98:6b:f2:d3:fe:a8:20:31:c1:33:76:b7:1c:19:65:4d:b9:
        14:39
-----BEGIN X509 CRL-----
MIIBXTCBxwIBATANBgkqhkiG9w0BAQUFADBAMQswCQYDVQQGEwJVUzEaMBgGA1UE
ChMRVGVzdCBDZXJ0aWZpY2F0ZXMxFTATBgNVBAMTDFRydXN0IEFuY2hvchcNMDEw
NDE5MTQ1NzIwWhcNMTEwNDE5MTQ1NzIwWjAiMCACAWgXDTAxMDQxOTE0NTcyMFow
DDAKBgNVHRUEAwoBAaAvMC0wHwYDVR0jBBgwFoAU+2zULYGeyid6ng2wPOqavIf/
SeowCgYDVR0UBAMCAQEwDQYJKoZIhvcNAQEFBQADgYEAkhLENLSSq7pxa3QxFs7t
JdZLHvr4IB6d138w7RX3i11km90xQORVDwxfgmljAHalz57EX/JTm5t99WkddFc4
cOX7W3ZYyewx3JQbAu6dM5w4Sykd4Qwpi27Hv6DoQDSDz/+fzbX32U2nny6/RJhr
8tP+qCAxwTN2txwZZU25FDk=
-----END X509 CRL-----

