subject=/C=US/O=Test Certificates/CN=Good CA
issuer=/C=US/O=Test Certificates/CN=Trust Anchor
-----BEGIN CERTIFICATE-----
MIICbTCCAdagAwIBAgIBAjANBgkqhkiG9w0BAQUFADBAMQswCQYDVQQGEwJVUzEa
MBgGA1UEChMRVGVzdCBDZXJ0aWZpY2F0ZXMxFTATBgNVBAMTDFRydXN0IEFuY2hv
cjAeFw0wMTA0MTkxNDU3MjBaFw0xMTA0MTkxNDU3MjBaMDsxCzAJBgNVBAYTAlVT
MRowGAYDVQQKExFUZXN0IENlcnRpZmljYXRlczEQMA4GA1UEAxMHR29vZCBDQTCB
nzANBgkqhkiG9w0BAQEFAAOBjQAwgYkCgYEArsI1lQuXKwOxSkOVRaPwlhMQtgp0
p7HT4rKLGqojfY0twvMDc4rC9uj97wlh98kkraMx3r0wlllYSQ+Cp9mCCNu/C/Y2
IbZCyG+io4A3Um3q/QGvbHlclmrJb0j0MQi3o88GhE8Q6Vy6SGwFXGpKDJMpLSFp
Pxz8lh7M6J56Ex8CAwEAAaN8MHowHwYDVR0jBBgwFoAU+2zULYGeyid6ng2wPOqa
vIf/SeowHQYDVR0OBBYEFLcupoLLwsi8qHsnRNc1M9+aFZTHMA4GA1UdDwEB/wQE
AwIBBjAXBgNVHSAEEDAOMAwGCmCGSAFlAwIBMAEwDwYDVR0TAQH/BAUwAwEB/zAN
BgkqhkiG9w0BAQUFAAOBgQCOls9+0kEUS71w+KoQhfkVLdAKANXUmGCVZHL1zsya
cPP/Q8IsCNvwjefZpgc0cuhtnHt2uDd0/zYLRmgcvJwfx5vwOfmDN13mMB8Za+cg
3sZ/NI8MqQseKvS3fWqXaK6FJoKLzxId0iUGntbF4c5+rPFArzqM6IE7f9cMD5Fq
rA==
-----END CERTIFICATE-----

subject=/C=US/O=Test Certificates/CN=indirectCRL CA2
issuer=/C=US/O=Test Certificates/CN=Trust Anchor
-----BEGIN CERTIFICATE-----
MIICdTCCAd6gAwIBAgIBVTANBgkqhkiG9w0BAQUFADBAMQswCQYDVQQGEwJVUzEa
MBgGA1UEChMRVGVzdCBDZXJ0aWZpY2F0ZXMxFTATBgNVBAMTDFRydXN0IEFuY2hv
cjAeFw0wMTA0MTkxNDU3MjBaFw0xMTA0MTkxNDU3MjBaMEMxCzAJBgNVBAYTAlVT
MRowGAYDVQQKExFUZXN0IENlcnRpZmljYXRlczEYMBYGA1UEAxMPaW5kaXJlY3RD
UkwgQ0EyMIGfMA0GCSqGSIb3DQEBAQUAA4GNADCBiQKBgQDblDsGRxVahA98R7vE
/DS4nbSbyoerDINPIyc8wkOtWcS+y+f9O5IIdDJOZm2I5px1PA840SXYHh15o3ZW
Vn4gFU3AgKF/CWMJ1g79LAYAMnQN/T7kSfuz/0rqhLH9tjz3Qtjt+/zy45YIny80
7JOBLH3eLX0H2aOmsJUenp5ExQIDAQABo3wwejAfBgNVHSMEGDAWgBT7bNQtgZ7K
J3qeDbA86pq8h/9J6jAdBgNVHQ4EFgQUwa+CD9XTTxDwMWI8WIm5inS7nAEwDgYD
VR0PAQH/BAQDAgIEMBcGA1UdIAQQMA4wDAYKYIZIAWUDAgEwATAPBgNVHRMBAf8E
BTADAQH/MA0GCSqGSIb3DQEBBQUAA4GBAEvc066az+E8sftMAgkECVeJVw0Mcr2y
YlJ0SAbZUNaU7KbzXxm3j8Q5v8K8GDy7EB4H0Gyh0vgsbChTAdLip7xQf7V7SetA
nE66H4ikF/UAhXlSz+E48Qe2+L3w2weGbU3zwmNMeYkI6dmGFMfEut7hL9ak0Ulc
0meAGzOu5kHt
-----END CERTIFICATE-----

subject=/C=US/O=Test Certificates/CN=Invalid cRLIssuer EE Certificate Test27
issuer=/C=US/O=Test Certificates/CN=indirectCRL CA2
-----BEGIN CERTIFICATE-----
MIICzzCCAjigAwIBAgIBBDANBgkqhkiG9w0BAQUFADBDMQswCQYDVQQGEwJVUzEa
MBgGA1UEChMRVGVzdCBDZXJ0aWZpY2F0ZXMxGDAWBgNVBAMTD2luZGlyZWN0Q1JM
IENBMjAeFw0wMTA0MTkxNDU3MjBaFw0xMTA0MTkxNDU3MjBaMFsxCzAJBgNVBAYT
AlVTMRowGAYDVQQKExFUZXN0IENlcnRpZmljYXRlczEwMC4GA1UEAxMnSW52YWxp
ZCBjUkxJc3N1ZXIgRUUgQ2VydGlmaWNhdGUgVGVzdDI3MIGfMA0GCSqGSIb3DQEB
AQUAA4GNADCBiQKBgQDBePXreW7TEQz9U98u5IjkoUpf/CRELuDW4EWLSx0ib7kJ
njp5do8pREmTX9nvLo1/CiJnv0RRNY4hKwqjR3V+j/2+BT7JDu5T8YuM3MmgWlJt
G46pHVekb8uXAofDTqMlvAtGTQauE9F3JU7oJ1FJebMo9SRHwIBQvvwnLIn2qQID
AQABo4G6MIG3MB8GA1UdIwQYMBaAFMGvgg/V008Q8DFiPFiJuYp0u5wBMB0GA1Ud
DgQWBBRA5ST4jwbcfGOGKDw9sAjuw+hKSzAOBgNVHQ8BAf8EBAMCBPAwFwYDVR0g
BBAwDjAMBgpghkgBZQMCATABMEwGA1UdHwRFMEMwQaI/pD0wOzELMAkGA1UEBhMC
VVMxGjAYBgNVBAoTEVRlc3QgQ2VydGlmaWNhdGVzMRAwDgYDVQQDEwdHb29kIENB
MA0GCSqGSIb3DQEBBQUAA4GBADHmdwVGWHDLCpX0n65DVgDpC2wWpGgu929rlB5w
nhGi79lgn3z2a5+3UCaXHQY+vMhJgMFVYoOfmUCNd4cnTgHMtr5Ai9tOS934lj0Z
xL/XOfx1v6ownw2VOZ5LWxMi2YnYTqC8323wPhcHjTecnE9JprakdJa6q54gsbZR
j1fs
-----END CERTIFICATE-----

Certificate Revocation List (CRL):
        Version 2 (0x1)
        Signature Algorithm: sha1WithRSAEncryption
        Issuer: /C=US/O=Test Certificates/CN=Trust Anchor
        Last Update: Apr 19 14:57:20 2001 GMT
        Next Update: Apr 19 14:57:20 2011 GMT
        CRL extensions:
            X509v3 Authority Key Identifier: 
                keyid:FB:6C:D4:2D:81:9E:CA:27:7A:9E:0D:B0:3C:EA:9A:BC:87:FF:49:EA

            X509v3 CRL Number: 
                1
Revoked Certificates:
    Serial Number: 68
        Revocation Date: Apr 19 14:57:20 2001 GMT
        CRL entry extensions:
            X509v3 CRL Reason Code: 
                Key Compromise
    Signature Algorithm: sha1WithRSAEncryption
        92:12:c4:34:b4:92:ab:ba:71:6b:74:31:16:ce:ed:25:d6:4b:
        1e:fa:f8:20:1e:9d:d7:7f:30:ed:15:f7:8b:5d:64:9b:dd:31:
        40:e4:55:0f:0c:5f:82:69:63:00:76:a5:cf:9e:c4:5f:f2:53:
        9b:9b:7d:f5:69:1d:74:57:38:70:e5:fb:5b:76:58:c9:ec:31:
        dc:94:1b:02:ee:9d:33:9c:38:4b:29:1d:e1:0c:29:8b:6e:c7:
        bf:a0:e8:40:34:83:cf:ff:9f:cd:b5:f7:d9:4d:a7:9f:2e:bf:
        44:98:6b:f2:d3:fe:a8:20:31:c1:33:76:b7:1c:19:65:4d:b9:
        14:39
-----BEGIN X509 CRL-----
MIIBXTCBxwIBATANBgkqhkiG9w0BAQUFADBAMQswCQYDVQQGEwJVUzEaMBgGA1UE
ChMRVGVzdCBDZXJ0aWZpY2F0ZXMxFTATBgNVBAMTDFRydXN0IEFuY2hvchcNMDEw
NDE5MTQ1NzIwWhcNMTEwNDE5MTQ1NzIwWjAiMCACAWgXDTAxMDQxOTE0NTcyMFow
DDAKBgNVHRUEAwoBAaAvMC0wHwYDVR0jBBgwFoAU+2zULYGeyid6ng2wPOqavIf/
SeowCgYDVR0UBAMCAQEwDQYJKoZIhvcNAQEFBQADgYEAkhLENLSSq7pxa3QxFs7t
JdZLHvr4IB6d138w7RX3i11km90xQORVDwxfgmljAHalz57EX/JTm5t99WkddFc4
cOX7W3ZYyewx3JQbAu6dM5w4Sykd4Qwpi27Hv6DoQDSDz/+fzbX32U2nny6/RJhr
8tP+qCAxwTN2txwZZU25FDk=
-----END X509 CRL-----

Certificate Revocation List (CRL):
        Version 2 (0x1)
        Signature Algorithm: sha1WithRSAEncryption
        Issuer: /C=US/O=Test Certificates/CN=Good CA
        Last Update: Apr 19 14:57:20 2001 GMT
        Next Update: Apr 19 14:57:20 2011 GMT
        CRL extensions:
            X509v3 Authority Key Identifier: 
                keyid:B7:2E:A6:82:CB:C2:C8:BC:A8:7B:27:44:D7:35:33:DF:9A:15:94:C7

            X509v3 CRL Number: 
                1
Revoked Certificates:
    Serial Number: 0E
        Revocation Date: Apr 19 14:57:20 2001 GMT
        CRL entry extensions:
            X509v3 CRL Reason Code: 
                Key Compromise
    Serial Number: 0F
        Revocation Date: Apr 19 14:57:20 2001 GMT
        CRL entry extensions:
            X509v3 CRL Reason Code: 
                Key Compromise
    Signature Algorithm: sha1WithRSAEncryption
        93:c2:ec:0b:71:07:2d:9d:d7:a2:b3:f0:ed:08:4d:6e:06:90:
        66:72:06:a9:c2:30:73:f1:18:72:bf:a7:51:13:95:c4:31:3f:
        1d:79:41:ed:ed:ab:d0:96:11:1e:32:47:4c:c4:f7:e2:08:65:
        6f:73:55:c1:59:09:56:f2:60:79:27:18:2e:94:40:dd:7e:b1:
        92:bf:b8:57:e5:4c:c5:38:97:75:2a:a1:17:a2:25:0d:ec:0e:
        b7:95:40:8d:2c:df:b9:fa:10:ff:be:9e:4a:f2:37:4f:25:cb:
        1b:c8:6d:ef:e4:09:b9:03:36:1b:c1:d9:f9:4f:00:5e:80:85:
        92:cd
-----BEGIN X509 CRL-----
MIIBejCB5AIBATANBgkqhkiG9w0BAQUFADA7MQswCQYDVQQGEwJVUzEaMBgGA1UE
ChMRVGVzdCBDZXJ0aWZpY2F0ZXMxEDAOBgNVBAMTB0dvb2QgQ0EXDTAxMDQxOTE0
NTcyMFoXDTExMDQxOTE0NTcyMFowRDAgAgEOFw0wMTA0MTkxNDU3MjBaMAwwCgYD
VR0VBAMKAQEwIAIBDxcNMDEwNDE5MTQ1NzIwWjAMMAoGA1UdFQQDCgEBoC8wLTAf
BgNVHSMEGDAWgBS3LqaCy8LIvKh7J0TXNTPfmhWUxzAKBgNVHRQEAwIBATANBgkq
hkiG9w0BAQUFAAOBgQCTwuwLcQctndeis/DtCE1uBpBmcgapwjBz8Rhyv6dRE5XE
MT8deUHt7avQlhEeMkdMxPfiCGVvc1XBWQlW8mB5JxgulEDdfrGSv7hX5UzFOJd1
KqEXoiUN7A63lUCNLN+5+hD/vp5K8jdPJcsbyG3v5Am5AzYbwdn5TwBegIWSzQ==
-----END X509 CRL-----

