subject=/C=US/O=Test Certificates/CN=Basic Self-Issued New Key CA
issuer=/C=US/O=Test Certificates/CN=Trust Anchor
-----BEGIN CERTIFICATE-----
MIICgjCCAeugAwIBAgIBEzANBgkqhkiG9w0BAQUFADBAMQswCQYDVQQGEwJVUzEa
MBgGA1UEChMRVGVzdCBDZXJ0aWZpY2F0ZXMxFTATBgNVBAMTDFRydXN0IEFuY2hv
cjAeFw0wMTA0MTkxNDU3MjBaFw0xMTA0MTkxNDU3MjBaMFAxCzAJBgNVBAYTAlVT
MRowGAYDVQQKExFUZXN0IENlcnRpZmljYXRlczElMCMGA1UEAxMcQmFzaWMgU2Vs
Zi1Jc3N1ZWQgTmV3IEtleSBDQTCBnzANBgkqhkiG9w0BAQEFAAOBjQAwgYkCgYEA
tCkygqcMEOy3i8p6ZV3685us1lOugSU4pUMRJNRH/lV2ykesk+JRcQy1s7WS12j9
GCnSJ919/TgeKLmV3ps1fC1B8HziC0mzBAr+7f5LkJqSf0kS0kfpyLOoO8VSJCip
/8uENkSkpvX+Lak96OKzhtyvi4KpUdQKfwpg6xUqakECAwEAAaN8MHowHwYDVR0j
BBgwFoAU+2zULYGeyid6ng2wPOqavIf/SeowHQYDVR0OBBYEFK+5+R3CRRjMuCHi
p0e8Sb0ZtXgoMA4GA1UdDwEB/wQEAwIBBjAXBgNVHSAEEDAOMAwGCmCGSAFlAwIB
MAEwDwYDVR0TAQH/BAUwAwEB/zANBgkqhkiG9w0BAQUFAAOBgQCuRBfDy2gSPp2k
ZR7OAvt+xDx4toJ9ImImUvJ94AOLd6Uxsi2dvQT5HLrIBrTYsSfQj1pA50XY2F7k
3eM/+JhYCcyZD9XtAslpOkjwACPJnODFAY8PWC00CcOxGb6q+S/VkrCwvlBeMjev
IH4bHvAymWsZndBZhcG8gBmDrZMwhQ==
-----END CERTIFICATE-----

subject=/C=US/O=Test Certificates/CN=Basic Self-Issued New Key CA
issuer=/C=US/O=Test Certificates/CN=Basic Self-Issued New Key CA
-----BEGIN CERTIFICATE-----
MIICkjCCAfugAwIBAgIBATANBgkqhkiG9w0BAQUFADBQMQswCQYDVQQGEwJVUzEa
MBgGA1UEChMRVGVzdCBDZXJ0aWZpY2F0ZXMxJTAjBgNVBAMTHEJhc2ljIFNlbGYt
SXNzdWVkIE5ldyBLZXkgQ0EwHhcNMDEwNDE5MTQ1NzIwWhcNMTEwNDE5MTQ1NzIw
WjBQMQswCQYDVQQGEwJVUzEaMBgGA1UEChMRVGVzdCBDZXJ0aWZpY2F0ZXMxJTAj
BgNVBAMTHEJhc2ljIFNlbGYtSXNzdWVkIE5ldyBLZXkgQ0EwgZ8wDQYJKoZIhvcN
AQEBBQADgY0AMIGJAoGBANa7RRhusOV0Ub10qBKMsUMG7QViaonYz0IcJLX0FKEI
EpTq0SV6NeVjjzmcrSrzjHQfJpkywOHRiMw7XvYunmzlwGSoD6TW1ZUYVDaQbKUT
oWooVoCzVstf6AsZiJiHQtBt4x4OHap7QRcJdlh7aPhp6TR+zq8gB1HsG8yUlG0x
AgMBAAGjfDB6MB8GA1UdIwQYMBaAFK+5+R3CRRjMuCHip0e8Sb0ZtXgoMB0GA1Ud
DgQWBBTJW9PRvwbxAcF5XLtzDY1MRsst2TAOBgNVHQ8BAf8EBAMCAQYwFwYDVR0g
BBAwDjAMBgpghkgBZQMCATABMA8GA1UdEwEB/wQFMAMBAf8wDQYJKoZIhvcNAQEF
BQADgYEAhIZ09WrNK3jX+b8HugQygNCBEVVfX7TOCCFkmRaxp4R/QBHWvcts0YQT
6M5ZC6b877id6zRYegHadKekVVqwFbLKEO0MnpD2yGhGgDpbil2HlEaQ9yKQXpGF
CBx05/e7jkNhk/zGDsBqmNzkozrJOYBohkwUOjVFkAuLyovPhTY=
-----END CERTIFICATE-----

subject=/C=US/O=Test Certificates/CN=Invalid Basic Self-Issued Old With New EE Certificate Test2
issuer=/C=US/O=Test Certificates/CN=Basic Self-Issued New Key CA
-----BEGIN CERTIFICATE-----
MIICoDCCAgmgAwIBAgIBAzANBgkqhkiG9w0BAQUFADBQMQswCQYDVQQGEwJVUzEa
MBgGA1UEChMRVGVzdCBDZXJ0aWZpY2F0ZXMxJTAjBgNVBAMTHEJhc2ljIFNlbGYt
SXNzdWVkIE5ldyBLZXkgQ0EwHhcNMDEwNDE5MTQ1NzIwWhcNMTEwNDE5MTQ1NzIw
WjBvMQswCQYDVQQGEwJVUzEaMBgGA1UEChMRVGVzdCBDZXJ0aWZpY2F0ZXMxRDBC
BgNVBAMTO0ludmFsaWQgQmFzaWMgU2VsZi1Jc3N1ZWQgT2xkIFdpdGggTmV3IEVF
IENlcnRpZmljYXRlIFRlc3QyMIGfMA0GCSqGSIb3DQEBAQUAA4GNADCBiQKBgQCv
b2Xj8btEB2QsPM7mVVrsnON6Aw/LdDQc2nszxDNBn133XQWeVkHORkod3p9DEg4i
TEdCG+rweF78vMSAhWAucXcFC59NAjUgxMiaIneUK2lKDW3afmmLHzV3nHjlNkj2
DN/BvUmo3Pp2lhrmdTY1WFfvQdueeiZKbCB5dor8+QIDAQABo2swaTAfBgNVHSME
GDAWgBTJW9PRvwbxAcF5XLtzDY1MRsst2TAdBgNVHQ4EFgQUJuUNG88pizoZguKT
iPPiMZLmggYwDgYDVR0PAQH/BAQDAgTwMBcGA1UdIAQQMA4wDAYKYIZIAWUDAgEw
ATANBgkqhkiG9w0BAQUFAAOBgQDGIVBl9ctXIMIN1Zy2QYgGnP8POYBiHPRkHZwT
IGhox7QsinsIS/Lc83H8Y4OeUaJWrGGL2HkSTR/eQgSFGwf2u297IhHOwtutllNJ
MvzlnvuG6uNAfRCuJftf8hSU3ouJoVVCi9CuCg1IhW6Eg61/oFIqZW33Jr6EvI8R
WDDSrQ==
-----END CERTIFICATE-----

Certificate Revocation List (CRL):
        Version 2 (0x1)
        Signature Algorithm: sha1WithRSAEncryption
        Issuer: /C=US/O=Test Certificates/CN=Trust Anchor
        Last Update: Apr 19 14:57:20 2001 GMT
        Next Update: Apr 19 14:57:20 2011 GMT
        CRL extensions:
            X509v3 Authority Key Identifier: 
                keyid:FB:6C:D4:2D:81:9E:CA:27:7A:9E:0D:B0:3C:EA:9A:BC:87:FF:49:EA

            X509v3 CRL Number: 
                1
Revoked Certificates:
    Serial Number: 68
        Revocation Date: Apr 19 14:57:20 2001 GMT
        CRL entry extensions:
            X509v3 CRL Reason Code: 
                Key Compromise
    Signature Algorithm: sha1WithRSAEncryption
        92:12:c4:34:b4:92:ab:ba:71:6b:74:31:16:ce:ed:25:d6:4b:
        1e:fa:f8:20:1e:9d:d7:7f:30:ed:15:f7:8b:5d:64:9b:dd:31:
        40:e4:55:0f:0c:5f:82:69:63:00:76:a5:cf:9e:c4:5f:f2:53:
        9b:9b:7d:f5:69:1d:74:57:38:70:e5:fb:5b:76:58:c9:ec:31:
        dc:94:1b:02:ee:9d:33:9c:38:4b:29:1d:e1:0c:29:8b:6e:c7:
        bf:a0:e8:40:34:83:cf:ff:9f:cd:b5:f7:d9:4d:a7:9f:2e:bf:
        44:98:6b:f2:d3:fe:a8:20:31:c1:33:76:b7:1c:19:65:4d:b9:
        14:39
-----BEGIN X509 CRL-----
MIIBXTCBxwIBATANBgkqhkiG9w0BAQUFADBAMQswCQYDVQQGEwJVUzEaMBgGA1UE
ChMRVGVzdCBDZXJ0aWZpY2F0ZXMxFTATBgNVBAMTDFRydXN0IEFuY2hvchcNMDEw
NDE5MTQ1NzIwWhcNMTEwNDE5MTQ1NzIwWjAiMCACAWgXDTAxMDQxOTE0NTcyMFow
DDAKBgNVHRUEAwoBAaAvMC0wHwYDVR0jBBgwFoAU+2zULYGeyid6ng2wPOqavIf/
SeowCgYDVR0UBAMCAQEwDQYJKoZIhvcNAQEFBQADgYEAkhLENLSSq7pxa3QxFs7t
JdZLHvr4IB6d138w7RX3i11km90xQORVDwxfgmljAHalz57EX/JTm5t99WkddFc4
cOX7W3ZYyewx3JQbAu6dM5w4Sykd4Qwpi27Hv6DoQDSDz/+fzbX32U2nny6/RJhr
8tP+qCAxwTN2txwZZU25FDk=
-----END X509 CRL-----

Certificate Revocation List (CRL):
        Version 2 (0x1)
        Signature Algorithm: sha1WithRSAEncryption
        Issuer: /C=US/O=Test Certificates/CN=Basic Self-Issued New Key CA
        Last Update: Apr 19 14:57:20 2001 GMT
        Next Update: Apr 19 14:57:20 2011 GMT
        CRL extensions:
            X509v3 Authority Key Identifier: 
                keyid:AF:B9:F9:1D:C2:45:18:CC:B8:21:E2:A7:47:BC:49:BD:19:B5:78:28

            X509v3 CRL Number: 
                1
Revoked Certificates:
    Serial Number: 03
        Revocation Date: Apr 19 14:57:20 2001 GMT
        CRL entry extensions:
            X509v3 CRL Reason Code: 
                Key Compromise
    Signature Algorithm: sha1WithRSAEncryption
        73:fe:c5:db:86:ee:6b:0e:f8:68:85:d2:0d:c1:44:01:d1:33:
        5d:9a:42:14:a7:a9:20:bd:38:30:c1:f1:3e:c1:b8:d9:4c:ba:
        fd:3d:7c:a9:66:5f:94:fa:46:e8:23:94:4e:8d:09:1c:45:6b:
        21:ce:b5:cf:3f:e6:18:33:d0:ac:a6:ea:c5:f9:32:6e:75:31:
        79:6b:1a:8e:50:05:86:89:f9:f3:e9:8f:67:e7:93:b7:d3:05:
        b0:9f:2c:97:9c:b7:7e:01:7e:c6:5e:f8:72:4d:11:6b:9d:30:
        f2:69:df:68:5d:aa:a0:84:f1:07:68:15:fd:93:f6:14:a1:f9:
        90:ce
-----BEGIN X509 CRL-----
MIIBbTCB1wIBATANBgkqhkiG9w0BAQUFADBQMQswCQYDVQQGEwJVUzEaMBgGA1UE
ChMRVGVzdCBDZXJ0aWZpY2F0ZXMxJTAjBgNVBAMTHEJhc2ljIFNlbGYtSXNzdWVk
IE5ldyBLZXkgQ0EXDTAxMDQxOTE0NTcyMFoXDTExMDQxOTE0NTcyMFowIjAgAgED
Fw0wMTA0MTkxNDU3MjBaMAwwCgYDVR0VBAMKAQGgLzAtMB8GA1UdIwQYMBaAFK+5
+R3CRRjMuCHip0e8Sb0ZtXgoMAoGA1UdFAQDAgEBMA0GCSqGSIb3DQEBBQUAA4GB
AHP+xduG7msO+GiF0g3BRAHRM12aQhSnqSC9ODDB8T7BuNlMuv09fKlmX5T6Rugj
lE6NCRxFayHOtc8/5hgz0Kym6sX5Mm51MXlrGo5QBYaJ+fPpj2fnk7fTBbCfLJec
t34BfsZe+HJNEWudMPJp32hdqqCE8QdoFf2T9hSh+ZDO
-----END X509 CRL-----

