subject=/C=US/O=Test Certificates/OU=excludedSubtree1/CN=Invalid DN nameConstraints EE Certificate Test8
issuer=/C=US/O=Test Certificates/CN=nameConstraints DN4 CA
-----BEGIN CERTIFICATE-----
MIICqTCCAhKgAwIBAgIBATANBgkqhkiG9w0BAQUFADBKMQswCQYDVQQGEwJVUzEa
MBgGA1UEChMRVGVzdCBDZXJ0aWZpY2F0ZXMxHzAdBgNVBAMTFm5hbWVDb25zdHJh
aW50cyBETjQgQ0EwHhcNMDEwNDE5MTQ1NzIwWhcNMTEwNDE5MTQ1NzIwWjB+MQsw
CQYDVQQGEwJVUzEaMBgGA1UEChMRVGVzdCBDZXJ0aWZpY2F0ZXMxGTAXBgNVBAsT
EGV4Y2x1ZGVkU3VidHJlZTExODA2BgNVBAMTL0ludmFsaWQgRE4gbmFtZUNvbnN0
cmFpbnRzIEVFIENlcnRpZmljYXRlIFRlc3Q4MIGfMA0GCSqGSIb3DQEBAQUAA4GN
ADCBiQKBgQDRLWTNLHouiD2wN3hJ0jdnrj4fTjlz2+99l/B+6xTOCtwBUJpACTye
HIN9D2KKM0Qmh9stFmyS37OoOs2WPy4d6zXJI09x3ENRMHVD4XL8zIYvdc554XCO
r6r5F4NDD9PXfx7zbY5zIa8xvuuRodLcz7HjxXCATmiy/Ylbq/tAvQIDAQABo2sw
aTAfBgNVHSMEGDAWgBQzKeiMgEymrSeDjSUCZ8XltnYEzDAdBgNVHQ4EFgQU2i3L
WI4ETNSzaANnEBgojWiA0sowDgYDVR0PAQH/BAQDAgTwMBcGA1UdIAQQMA4wDAYK
YIZIAWUDAgEwATANBgkqhkiG9w0BAQUFAAOBgQCF1bG1gRn+77BAUXRG0YGUPMgR
9DHNB3htuZ16XVRT2TqgE6hFiTROTrYgQekzo37hAKapBXUk09KjbIEZZWimwkzo
lsh96Mt3Mri/s1KHNnRsPWR7Z9noTDZW2doxIx9IdZnbpceQ/z+E9xHaEZZX2QTU
oFgdRZWQ6koAHlJt+A==
-----END CERTIFICATE-----

subject=/C=US/O=Test Certificates/CN=nameConstraints DN4 CA
issuer=/C=US/O=Test Certificates/CN=Trust Anchor
-----BEGIN CERTIFICATE-----
MIIDKDCCApGgAwIBAgIBQTANBgkqhkiG9w0BAQUFADBAMQswCQYDVQQGEwJVUzEa
MBgGA1UEChMRVGVzdCBDZXJ0aWZpY2F0ZXMxFTATBgNVBAMTDFRydXN0IEFuY2hv
cjAeFw0wMTA0MTkxNDU3MjBaFw0xMTA0MTkxNDU3MjBaMEoxCzAJBgNVBAYTAlVT
MRowGAYDVQQKExFUZXN0IENlcnRpZmljYXRlczEfMB0GA1UEAxMWbmFtZUNvbnN0
cmFpbnRzIERONCBDQTCBnzANBgkqhkiG9w0BAQEFAAOBjQAwgYkCgYEAy/f6yuk+
9T8iA8JCNC3qD0GOvAIXRNgKM4QLcAsVsDZkgrXmmyKyX3e+W5lgLeuzzgLxM9Fc
Pm1NCRAX+AleMx8MI9Vyii9xcNT3KY90roWbXvSiixffCQyKwgjcNazm4nMgcKcY
GCrTnvtjwDq4r0ov0chfZ4FYvOdxRXKJIscCAwEAAaOCASYwggEiMB8GA1UdIwQY
MBaAFPts1C2Bnsonep4NsDzqmryH/0nqMB0GA1UdDgQWBBQzKeiMgEymrSeDjSUC
Z8XltnYEzDAOBgNVHQ8BAf8EBAMCAQYwFwYDVR0gBBAwDjAMBgpghkgBZQMCATAB
MA8GA1UdEwEB/wQFMAMBAf8wgaUGA1UdHgEB/wSBmjCBl6GBlDBIpEYwRDELMAkG
A1UEBhMCVVMxGjAYBgNVBAoTEVRlc3QgQ2VydGlmaWNhdGVzMRkwFwYDVQQLExBl
eGNsdWRlZFN1YnRyZWUxMEikRjBEMQswCQYDVQQGEwJVUzEaMBgGA1UEChMRVGVz
dCBDZXJ0aWZpY2F0ZXMxGTAXBgNVBAsTEGV4Y2x1ZGVkU3VidHJlZTIwDQYJKoZI
hvcNAQEFBQADgYEABIMFw3c0vt6dsO0Lzu4cyBPZB6GobaJ9EVCLCKcuwdvmyMgo
YamK8D4AEsT88YhCFji3zELvEeg4P8QsRhtIsr0nto5r+CV02degP3F2XAPQr8gw
qBP/8ejUC0UPnOz3QlkiM4mZ3mN3A3KJPCmPmtRIVst622/8nt4HWGLYi38=
-----END CERTIFICATE-----

Certificate Revocation List (CRL):
        Version 2 (0x1)
        Signature Algorithm: sha1WithRSAEncryption
        Issuer: /C=US/O=Test Certificates/CN=nameConstraints DN4 CA
        Last Update: Apr 19 14:57:20 2001 GMT
        Next Update: Apr 19 14:57:20 2011 GMT
        CRL extensions:
            X509v3 Authority Key Identifier: 
                keyid:33:29:E8:8C:80:4C:A6:AD:27:83:8D:25:02:67:C5:E5:B6:76:04:CC

            X509v3 CRL Number: 
                1
No Revoked Certificates.
    Signature Algorithm: sha1WithRSAEncryption
        7d:57:1e:3d:c5:08:85:5b:0a:d1:cb:66:61:ba:9c:ad:1e:d1:
        7c:28:1c:08:2f:2e:52:53:18:63:ac:0f:c1:fd:30:d2:f1:90:
        bd:fa:89:97:c4:2f:73:a9:c7:36:bf:5d:e6:2a:21:f2:d9:81:
        ae:f3:47:05:14:8c:ec:fc:80:c9:c5:3d:37:cb:5a:e5:8c:56:
        d7:be:e7:ed:8f:f7:21:0f:d6:6c:e3:f8:cd:dc:c6:bd:70:90:
        b6:30:bd:d1:76:47:62:33:02:ba:bf:97:41:a1:cf:62:12:21:
        4c:1f:d0:49:a8:b7:50:f9:a3:63:40:5e:f9:0b:5b:ac:de:7e:
        f4:27
-----BEGIN X509 CRL-----
MIIBQzCBrQIBATANBgkqhkiG9w0BAQUFADBKMQswCQYDVQQGEwJVUzEaMBgGA1UE
ChMRVGVzdCBDZXJ0aWZpY2F0ZXMxHzAdBgNVBAMTFm5hbWVDb25zdHJhaW50cyBE
TjQgQ0EXDTAxMDQxOTE0NTcyMFoXDTExMDQxOTE0NTcyMFqgLzAtMB8GA1UdIwQY
MBaAFDMp6IyATKatJ4ONJQJnxeW2dgTMMAoGA1UdFAQDAgEBMA0GCSqGSIb3DQEB
BQUAA4GBAH1XHj3FCIVbCtHLZmG6nK0e0XwoHAgvLlJTGGOsD8H9MNLxkL36iZfE
L3Opxza/XeYqIfLZga7zRwUUjOz8gMnFPTfLWuWMVte+5+2P9yEP1mzj+M3cxr1w
kLYwvdF2R2IzArq/l0Ghz2ISIUwf0Emot1D5o2NAXvkLW6zefvQn
-----END X509 CRL-----

Certificate Revocation List (CRL):
        Version 2 (0x1)
        Signature Algorithm: sha1WithRSAEncryption
        Issuer: /C=US/O=Test Certificates/CN=Trust Anchor
        Last Update: Apr 19 14:57:20 2001 GMT
        Next Update: Apr 19 14:57:20 2011 GMT
        CRL extensions:
            X509v3 Authority Key Identifier: 
                keyid:FB:6C:D4:2D:81:9E:CA:27:7A:9E:0D:B0:3C:EA:9A:BC:87:FF:49:EA

            X509v3 CRL Number: 
                1
Revoked Certificates:
    Serial Number: 68
        Revocation Date: Apr 19 14:57:20 2001 GMT
        CRL entry extensions:
            X509v3 CRL Reason Code: 
                Key Compromise
    Signature Algorithm: sha1WithRSAEncryption
        92:12:c4:34:b4:92:ab:ba:71:6b:74:31:16:ce:ed:25:d6:4b:
        1e:fa:f8:20:1e:9d:d7:7f:30:ed:15:f7:8b:5d:64:9b:dd:31:
        40:e4:55:0f:0c:5f:82:69:63:00:76:a5:cf:9e:c4:5f:f2:53:
        9b:9b:7d:f5:69:1d:74:57:38:70:e5:fb:5b:76:58:c9:ec:31:
        dc:94:1b:02:ee:9d:33:9c:38:4b:29:1d:e1:0c:29:8b:6e:c7:
        bf:a0:e8:40:34:83:cf:ff:9f:cd:b5:f7:d9:4d:a7:9f:2e:bf:
        44:98:6b:f2:d3:fe:a8:20:31:c1:33:76:b7:1c:19:65:4d:b9:
        14:39
-----BEGIN X509 CRL-----
MIIBXTCBxwIBATANBgkqhkiG9w0BAQUFADBAMQswCQYDVQQGEwJVUzEaMBgGA1UE
ChMRVGVzdCBDZXJ0aWZpY2F0ZXMxFTATBgNVBAMTDFRydXN0IEFuY2hvchcNMDEw
NDE5MTQ1NzIwWhcNMTEwNDE5MTQ1NzIwWjAiMCACAWgXDTAxMDQxOTE0NTcyMFow
DDAKBgNVHRUEAwoBAaAvMC0wHwYDVR0jBBgwFoAU+2zULYGeyid6ng2wPOqavIf/
SeowCgYDVR0UBAMCAQEwDQYJKoZIhvcNAQEFBQADgYEAkhLENLSSq7pxa3QxFs7t
JdZLHvr4IB6d138w7RX3i11km90xQORVDwxfgmljAHalz57EX/JTm5t99WkddFc4
cOX7W3ZYyewx3JQbAu6dM5w4Sykd4Qwpi27Hv6DoQDSDz/+fzbX32U2nny6/RJhr
8tP+qCAxwTN2txwZZU25FDk=
-----END X509 CRL-----

