subject=/C=US/O=Test Certificates/CN=Good CA
issuer=/C=US/O=Test Certificates/CN=Trust Anchor
-----BEGIN CERTIFICATE-----
MIICbTCCAdagAwIBAgIBAjANBgkqhkiG9w0BAQUFADBAMQswCQYDVQQGEwJVUzEa
MBgGA1UEChMRVGVzdCBDZXJ0aWZpY2F0ZXMxFTATBgNVBAMTDFRydXN0IEFuY2hv
cjAeFw0wMTA0MTkxNDU3MjBaFw0xMTA0MTkxNDU3MjBaMDsxCzAJBgNVBAYTAlVT
MRowGAYDVQQKExFUZXN0IENlcnRpZmljYXRlczEQMA4GA1UEAxMHR29vZCBDQTCB
nzANBgkqhkiG9w0BAQEFAAOBjQAwgYkCgYEArsI1lQuXKwOxSkOVRaPwlhMQtgp0
p7HT4rKLGqojfY0twvMDc4rC9uj97wlh98kkraMx3r0wlllYSQ+Cp9mCCNu/C/Y2
IbZCyG+io4A3Um3q/QGvbHlclmrJb0j0MQi3o88GhE8Q6Vy6SGwFXGpKDJMpLSFp
Pxz8lh7M6J56Ex8CAwEAAaN8MHowHwYDVR0jBBgwFoAU+2zULYGeyid6ng2wPOqa
vIf/SeowHQYDVR0OBBYEFLcupoLLwsi8qHsnRNc1M9+aFZTHMA4GA1UdDwEB/wQE
AwIBBjAXBgNVHSAEEDAOMAwGCmCGSAFlAwIBMAEwDwYDVR0TAQH/BAUwAwEB/zAN
BgkqhkiG9w0BAQUFAAOBgQCOls9+0kEUS71w+KoQhfkVLdAKANXUmGCVZHL1zsya
cPP/Q8IsCNvwjefZpgc0cuhtnHt2uDd0/zYLRmgcvJwfx5vwOfmDN13mMB8Za+cg
3sZ/NI8MqQseKvS3fWqXaK6FJoKLzxId0iUGntbF4c5+rPFArzqM6IE7f9cMD5Fq
rA==
-----END CERTIFICATE-----

subject=/C=US/O=Test Certificates/CN=Revoked subCA
issuer=/C=US/O=Test Certificates/CN=Good CA
-----BEGIN CERTIFICATE-----
MIICbjCCAdegAwIBAgIBDjANBgkqhkiG9w0BAQUFADA7MQswCQYDVQQGEwJVUzEa
MBgGA1UEChMRVGVzdCBDZXJ0aWZpY2F0ZXMxEDAOBgNVBAMTB0dvb2QgQ0EwHhcN
MDEwNDE5MTQ1NzIwWhcNMTEwNDE5MTQ1NzIwWjBBMQswCQYDVQQGEwJVUzEaMBgG
A1UEChMRVGVzdCBDZXJ0aWZpY2F0ZXMxFjAUBgNVBAMTDVJldm9rZWQgc3ViQ0Ew
gZ8wDQYJKoZIhvcNAQEBBQADgY0AMIGJAoGBAOOm11GxhTUrNTzIsGL2HeKkXDSY
fuue6iKn5fTFuhHFBY9sABHgqkRwS7lT9J5OL+Li0oTfq3En9SzqPZ1pTG7nI0tc
qo/XLks9e9E5GrdjiSPJSvcdETspZ4MKgNIeEQXyX/KqhvOlFuIkvQ6CkB26h0Ys
ds/2NM1G2HIcqoGdAgMBAAGjfDB6MB8GA1UdIwQYMBaAFLcupoLLwsi8qHsnRNc1
M9+aFZTHMB0GA1UdDgQWBBR49b1LlhuzLeZAUDLruLRHVAvySDAOBgNVHQ8BAf8E
BAMCAQYwFwYDVR0gBBAwDjAMBgpghkgBZQMCATABMA8GA1UdEwEB/wQFMAMBAf8w
DQYJKoZIhvcNAQEFBQADgYEAUGhyEOC1558EMH9u+aVPXS5vZ39mJh2Y719gMZiT
OXDZsqIbxJ5npOYdL40yZD5vhio5mvpKFm0DtAmAQsp6SF5nTdj9Rn70rqQI0rdN
9m7nF1ZRRL6YBRkSymloliboDsspsoZUSitT7yMtxcIocV9V0QxcGFSFw1i6W3/H
OYw=
-----END CERTIFICATE-----

subject=/C=US/O=Test Certificates/CN=Invalid Revoked CA Certificate Test2
issuer=/C=US/O=Test Certificates/CN=Revoked subCA
-----BEGIN CERTIFICATE-----
MIICejCCAeOgAwIBAgIBATANBgkqhkiG9w0BAQUFADBBMQswCQYDVQQGEwJVUzEa
MBgGA1UEChMRVGVzdCBDZXJ0aWZpY2F0ZXMxFjAUBgNVBAMTDVJldm9rZWQgc3Vi
Q0EwHhcNMDEwNDE5MTQ1NzIwWhcNMTEwNDE5MTQ1NzIwWjBYMQswCQYDVQQGEwJV
UzEaMBgGA1UEChMRVGVzdCBDZXJ0aWZpY2F0ZXMxLTArBgNVBAMTJEludmFsaWQg
UmV2b2tlZCBDQSBDZXJ0aWZpY2F0ZSBUZXN0MjCBnzANBgkqhkiG9w0BAQEFAAOB
jQAwgYkCgYEA2aktQuUqYvrSvuQR0Y5vu/X29VQgITZB3a39NV5uIZXvWgUWyD1Q
SGYbtu0YzKSDMzLAeuSgs9c6u4r1wTxno9XgzSJvcaupysi94Eeqqt3OCaJmLg5Z
sV12741X6CqpUSZ6Tap8rsFqYspyzMExUZqJ0d1zszbDQ9uqfCan5ocCAwEAAaNr
MGkwHwYDVR0jBBgwFoAUePW9S5Ybsy3mQFAy67i0R1QL8kgwHQYDVR0OBBYEFD7V
xiNcO7bHOzxBFfhSNMhrEZnyMA4GA1UdDwEB/wQEAwIE8DAXBgNVHSAEEDAOMAwG
CmCGSAFlAwIBMAEwDQYJKoZIhvcNAQEFBQADgYEA3uoPgaDGPEy7AddpjA6a7Dm4
3Mm2CcAZuFUSURGmmoYfaTQldWpf6ySCHr9t7vOm+7Gv607TPdqF1Gw0BU6DpC7h
Et/uaN0/vE/XHxyYEi3Gfzx//aNgr9ZcDnhr6iGmVAAxjfSmVoq1SYvWo2cskAq1
UO8Ub1+lilBTCeJDLTo=
-----END CERTIFICATE-----

Certificate Revocation List (CRL):
        Version 2 (0x1)
        Signature Algorithm: sha1WithRSAEncryption
        Issuer: /C=US/O=Test Certificates/CN=Revoked subCA
        Last Update: Apr 19 14:57:20 2001 GMT
        Next Update: Apr 19 14:57:20 2011 GMT
        CRL extensions:
            X509v3 Authority Key Identifier: 
                keyid:78:F5:BD:4B:96:1B:B3:2D:E6:40:50:32:EB:B8:B4:47:54:0B:F2:48

            X509v3 CRL Number: 
                1
No Revoked Certificates.
    Signature Algorithm: sha1WithRSAEncryption
        38:13:8b:21:ea:c4:2e:36:3b:d1:23:d0:aa:e8:87:13:62:4b:
        63:07:14:68:8d:92:b1:00:5a:22:3a:99:5e:72:a7:92:01:41:
        b6:b0:85:f0:ff:48:ea:da:58:d2:77:26:c2:e1:56:52:69:45:
        ca:38:98:f5:ab:9d:1b:4c:fe:9a:30:64:58:64:e3:68:f7:a5:
        3f:86:1c:ff:3a:82:bd:56:a7:a3:a2:5b:fb:f7:21:8d:14:98:
        0d:00:3b:81:bc:09:3d:94:90:8c:df:4f:6b:14:b5:10:68:3c:
        07:cf:e7:06:69:71:4c:0d:b1:7a:53:24:5c:49:8f:fa:05:05:
        18:9a
-----BEGIN X509 CRL-----
MIIBOjCBpAIBATANBgkqhkiG9w0BAQUFADBBMQswCQYDVQQGEwJVUzEaMBgGA1UE
ChMRVGVzdCBDZXJ0aWZpY2F0ZXMxFjAUBgNVBAMTDVJldm9rZWQgc3ViQ0EXDTAx
MDQxOTE0NTcyMFoXDTExMDQxOTE0NTcyMFqgLzAtMB8GA1UdIwQYMBaAFHj1vUuW
G7Mt5kBQMuu4tEdUC/JIMAoGA1UdFAQDAgEBMA0GCSqGSIb3DQEBBQUAA4GBADgT
iyHqxC42O9Ej0KrohxNiS2MHFGiNkrEAWiI6mV5yp5IBQbawhfD/SOraWNJ3JsLh
VlJpRco4mPWrnRtM/powZFhk42j3pT+GHP86gr1Wp6OiW/v3IY0UmA0AO4G8CT2U
kIzfT2sUtRBoPAfP5wZpcUwNsXpTJFxJj/oFBRia
-----END X509 CRL-----

Certificate Revocation List (CRL):
        Version 2 (0x1)
        Signature Algorithm: sha1WithRSAEncryption
        Issuer: /C=US/O=Test Certificates/CN=Trust Anchor
        Last Update: Apr 19 14:57:20 2001 GMT
        Next Update: Apr 19 14:57:20 2011 GMT
        CRL extensions:
            X509v3 Authority Key Identifier: 
                keyid:FB:6C:D4:2D:81:9E:CA:27:7A:9E:0D:B0:3C:EA:9A:BC:87:FF:49:EA

            X509v3 CRL Number: 
                1
Revoked Certificates:
    Serial Number: 68
        Revocation Date: Apr 19 14:57:20 2001 GMT
        CRL entry extensions:
            X509v3 CRL Reason Code: 
                Key Compromise
    Signature Algorithm: sha1WithRSAEncryption
        92:12:c4:34:b4:92:ab:ba:71:6b:74:31:16:ce:ed:25:d6:4b:
        1e:fa:f8:20:1e:9d:d7:7f:30:ed:15:f7:8b:5d:64:9b:dd:31:
        40:e4:55:0f:0c:5f:82:69:63:00:76:a5:cf:9e:c4:5f:f2:53:
        9b:9b:7d:f5:69:1d:74:57:38:70:e5:fb:5b:76:58:c9:ec:31:
        dc:94:1b:02:ee:9d:33:9c:38:4b:29:1d:e1:0c:29:8b:6e:c7:
        bf:a0:e8:40:34:83:cf:ff:9f:cd:b5:f7:d9:4d:a7:9f:2e:bf:
        44:98:6b:f2:d3:fe:a8:20:31:c1:33:76:b7:1c:19:65:4d:b9:
        14:39
-----BEGIN X509 CRL-----
MIIBXTCBxwIBATANBgkqhkiG9w0BAQUFADBAMQswCQYDVQQGEwJVUzEaMBgGA1UE
ChMRVGVzdCBDZXJ0aWZpY2F0ZXMxFTATBgNVBAMTDFRydXN0IEFuY2hvchcNMDEw
NDE5MTQ1NzIwWhcNMTEwNDE5MTQ1NzIwWjAiMCACAWgXDTAxMDQxOTE0NTcyMFow
DDAKBgNVHRUEAwoBAaAvMC0wHwYDVR0jBBgwFoAU+2zULYGeyid6ng2wPOqavIf/
SeowCgYDVR0UBAMCAQEwDQYJKoZIhvcNAQEFBQADgYEAkhLENLSSq7pxa3QxFs7t
JdZLHvr4IB6d138w7RX3i11km90xQORVDwxfgmljAHalz57EX/JTm5t99WkddFc4
cOX7W3ZYyewx3JQbAu6dM5w4Sykd4Qwpi27Hv6DoQDSDz/+fzbX32U2nny6/RJhr
8tP+qCAxwTN2txwZZU25FDk=
-----END X509 CRL-----

Certificate Revocation List (CRL):
        Version 2 (0x1)
        Signature Algorithm: sha1WithRSAEncryption
        Issuer: /C=US/O=Test Certificates/CN=Good CA
        Last Update: Apr 19 14:57:20 2001 GMT
        Next Update: Apr 19 14:57:20 2011 GMT
        CRL extensions:
            X509v3 Authority Key Identifier: 
                keyid:B7:2E:A6:82:CB:C2:C8:BC:A8:7B:27:44:D7:35:33:DF:9A:15:94:C7

            X509v3 CRL Number: 
                1
Revoked Certificates:
    Serial Number: 0E
        Revocation Date: Apr 19 14:57:20 2001 GMT
        CRL entry extensions:
            X509v3 CRL Reason Code: 
                Key Compromise
    Serial Number: 0F
        Revocation Date: Apr 19 14:57:20 2001 GMT
        CRL entry extensions:
            X509v3 CRL Reason Code: 
                Key Compromise
    Signature Algorithm: sha1WithRSAEncryption
        93:c2:ec:0b:71:07:2d:9d:d7:a2:b3:f0:ed:08:4d:6e:06:90:
        66:72:06:a9:c2:30:73:f1:18:72:bf:a7:51:13:95:c4:31:3f:
        1d:79:41:ed:ed:ab:d0:96:11:1e:32:47:4c:c4:f7:e2:08:65:
        6f:73:55:c1:59:09:56:f2:60:79:27:18:2e:94:40:dd:7e:b1:
        92:bf:b8:57:e5:4c:c5:38:97:75:2a:a1:17:a2:25:0d:ec:0e:
        b7:95:40:8d:2c:df:b9:fa:10:ff:be:9e:4a:f2:37:4f:25:cb:
        1b:c8:6d:ef:e4:09:b9:03:36:1b:c1:d9:f9:4f:00:5e:80:85:
        92:cd
-----BEGIN X509 CRL-----
MIIBejCB5AIBATANBgkqhkiG9w0BAQUFADA7MQswCQYDVQQGEwJVUzEaMBgGA1UE
ChMRVGVzdCBDZXJ0aWZpY2F0ZXMxEDAOBgNVBAMTB0dvb2QgQ0EXDTAxMDQxOTE0
NTcyMFoXDTExMDQxOTE0NTcyMFowRDAgAgEOFw0wMTA0MTkxNDU3MjBaMAwwCgYD
VR0VBAMKAQEwIAIBDxcNMDEwNDE5MTQ1NzIwWjAMMAoGA1UdFQQDCgEBoC8wLTAf
BgNVHSMEGDAWgBS3LqaCy8LIvKh7J0TXNTPfmhWUxzAKBgNVHRQEAwIBATANBgkq
hkiG9w0BAQUFAAOBgQCTwuwLcQctndeis/DtCE1uBpBmcgapwjBz8Rhyv6dRE5XE
MT8deUHt7avQlhEeMkdMxPfiCGVvc1XBWQlW8mB5JxgulEDdfrGSv7hX5UzFOJd1
KqEXoiUN7A63lUCNLN+5+hD/vp5K8jdPJcsbyG3v5Am5AzYbwdn5TwBegIWSzQ==
-----END X509 CRL-----

