subject=/C=US/O=Test Certificates/CN=onlyContainsAttributeCerts CA
issuer=/C=US/O=Test Certificates/CN=Trust Anchor
-----BEGIN CERTIFICATE-----
MIICgzCCAeygAwIBAgIBTzANBgkqhkiG9w0BAQUFADBAMQswCQYDVQQGEwJVUzEa
MBgGA1UEChMRVGVzdCBDZXJ0aWZpY2F0ZXMxFTATBgNVBAMTDFRydXN0IEFuY2hv
cjAeFw0wMTA0MTkxNDU3MjBaFw0xMTA0MTkxNDU3MjBaMFExCzAJBgNVBAYTAlVT
MRowGAYDVQQKExFUZXN0IENlcnRpZmljYXRlczEmMCQGA1UEAxMdb25seUNvbnRh
aW5zQXR0cmlidXRlQ2VydHMgQ0EwgZ8wDQYJKoZIhvcNAQEBBQADgY0AMIGJAoGB
ALSCJ7MnQSSfqf3cAKyFUJRK6CV6MSLa2t9JmoGgpu6snUGfPogvAguvdYP27085
2+7ZAe2MA5+VRBKl2gtUJeS0qdMlrQyLMw8SBfIuCc0cMrbGnRHqeBPHPVdq1n3b
xx+pwvDV2egYWx53Vyq72HVv7E6QhdGjEwO41216OFXzAgMBAAGjfDB6MB8GA1Ud
IwQYMBaAFPts1C2Bnsonep4NsDzqmryH/0nqMB0GA1UdDgQWBBTFKJWbEsMCo9m4
+7Yd323jU625IjAOBgNVHQ8BAf8EBAMCAQYwFwYDVR0gBBAwDjAMBgpghkgBZQMC
ATABMA8GA1UdEwEB/wQFMAMBAf8wDQYJKoZIhvcNAQEFBQADgYEAH50jqtmZxb9s
51U/Olz2Z4OskoazeeNVJ0LXvUzF2vYzqBhXseLUd996wDmvQWsoczt8etO5zJdI
/iXtC61WyqmSDgSSSEvoIAL/xWFYQh1QAjG+FD7qHxfJ5TUiVFUzkQe/nE2wSWYL
oiZe8DkJHsi/T6sBMbZeNLcXa8CliLI=
-----END CERTIFICATE-----

subject=/C=US/O=Test Certificates/CN=Invalid onlyContainsAttirubteCerts EE Certificate Test14
issuer=/C=US/O=Test Certificates/CN=onlyContainsAttributeCerts CA
-----BEGIN CERTIFICATE-----
MIICnjCCAgegAwIBAgIBATANBgkqhkiG9w0BAQUFADBRMQswCQYDVQQGEwJVUzEa
MBgGA1UEChMRVGVzdCBDZXJ0aWZpY2F0ZXMxJjAkBgNVBAMTHW9ubHlDb250YWlu
c0F0dHJpYnV0ZUNlcnRzIENBMB4XDTAxMDQxOTE0NTcyMFoXDTExMDQxOTE0NTcy
MFowbDELMAkGA1UEBhMCVVMxGjAYBgNVBAoTEVRlc3QgQ2VydGlmaWNhdGVzMUEw
PwYDVQQDEzhJbnZhbGlkIG9ubHlDb250YWluc0F0dGlydWJ0ZUNlcnRzIEVFIENl
cnRpZmljYXRlIFRlc3QxNDCBnzANBgkqhkiG9w0BAQEFAAOBjQAwgYkCgYEAnRFu
rk1+JntR2FWOywl3/YsAK7L4yrNCEx5T7OIJOPeYo2gQ4HcNYzhCfrs8BnXBgRWm
SmYiz83DHjDXf1v1EYvmLbuorfhe6oqbZjFFmFSFVYoBBQGoweqSBuEP+Dfz5JCQ
3j/U5P9kHacuVt5EvNDFuxC2QpNlKDMKVp1kO1ECAwEAAaNrMGkwHwYDVR0jBBgw
FoAUxSiVmxLDAqPZuPu2Hd9t41OtuSIwHQYDVR0OBBYEFH75KmUzZ/T1lVkx9E97
tlW7zv91MA4GA1UdDwEB/wQEAwIE8DAXBgNVHSAEEDAOMAwGCmCGSAFlAwIBMAEw
DQYJKoZIhvcNAQEFBQADgYEAcnsbImj6Bq19wrmv1lsHuwr0rR9v5AU5A5BvxBGX
7L9250MNODFbkR2trDXDu8Aj4xDl14ksrH1CW5oqqvhSIN890dWabjEIWXzPJPXm
Ogj5ekGTXsXnOsbO8CEfvjAvg8zfRVlWuR+mxGvk8qw4t0xB0GIqutURQegGF/zY
tJ4=
-----END CERTIFICATE-----

Certificate Revocation List (CRL):
        Version 2 (0x1)
        Signature Algorithm: sha1WithRSAEncryption
        Issuer: /C=US/O=Test Certificates/CN=onlyContainsAttributeCerts CA
        Last Update: Apr 19 14:57:20 2001 GMT
        Next Update: Apr 19 14:57:20 2011 GMT
        CRL extensions:
            X509v3 Authority Key Identifier: 
                keyid:C5:28:95:9B:12:C3:02:A3:D9:B8:FB:B6:1D:DF:6D:E3:53:AD:B9:22

            X509v3 CRL Number: 
                1
            2.5.29.28: critical
                0....
No Revoked Certificates.
    Signature Algorithm: sha1WithRSAEncryption
        4d:d0:f1:a7:37:36:13:e4:57:d2:e5:1b:bb:c0:68:35:91:0c:
        84:53:55:01:9e:2f:bf:4b:d4:7e:55:4f:ea:6c:71:f4:54:a5:
        b7:38:50:ac:43:c7:85:b9:13:88:4f:36:5c:35:5c:83:56:49:
        1d:ea:d0:34:ce:bf:d6:21:40:f8:4a:62:ee:c4:88:74:f7:05:
        13:cc:15:90:46:d3:8e:04:5f:00:2e:ef:1f:43:cf:da:84:d4:
        27:b1:22:c6:b5:ad:83:cd:aa:8b:cf:0e:d7:1f:76:37:a6:29:
        8e:3a:e7:3f:58:12:8d:2b:77:58:b1:eb:7f:35:6d:96:74:f6:
        48:1d
-----BEGIN X509 CRL-----
MIIBWzCBxQIBATANBgkqhkiG9w0BAQUFADBRMQswCQYDVQQGEwJVUzEaMBgGA1UE
ChMRVGVzdCBDZXJ0aWZpY2F0ZXMxJjAkBgNVBAMTHW9ubHlDb250YWluc0F0dHJp
YnV0ZUNlcnRzIENBFw0wMTA0MTkxNDU3MjBaFw0xMTA0MTkxNDU3MjBaoEAwPjAf
BgNVHSMEGDAWgBTFKJWbEsMCo9m4+7Yd323jU625IjAKBgNVHRQEAwIBATAPBgNV
HRwBAf8EBTADhQH/MA0GCSqGSIb3DQEBBQUAA4GBAE3Q8ac3NhPkV9LlG7vAaDWR
DIRTVQGeL79L1H5VT+pscfRUpbc4UKxDx4W5E4hPNlw1XINWSR3q0DTOv9YhQPhK
Yu7EiHT3BRPMFZBG044EXwAu7x9Dz9qE1CexIsa1rYPNqovPDtcfdjemKY465z9Y
Eo0rd1ix6381bZZ09kgd
-----END X509 CRL-----

Certificate Revocation List (CRL):
        Version 2 (0x1)
        Signature Algorithm: sha1WithRSAEncryption
        Issuer: /C=US/O=Test Certificates/CN=Trust Anchor
        Last Update: Apr 19 14:57:20 2001 GMT
        Next Update: Apr 19 14:57:20 2011 GMT
        CRL extensions:
            X509v3 Authority Key Identifier: 
                keyid:FB:6C:D4:2D:81:9E:CA:27:7A:9E:0D:B0:3C:EA:9A:BC:87:FF:49:EA

            X509v3 CRL Number: 
                1
Revoked Certificates:
    Serial Number: 68
        Revocation Date: Apr 19 14:57:20 2001 GMT
        CRL entry extensions:
            X509v3 CRL Reason Code: 
                Key Compromise
    Signature Algorithm: sha1WithRSAEncryption
        92:12:c4:34:b4:92:ab:ba:71:6b:74:31:16:ce:ed:25:d6:4b:
        1e:fa:f8:20:1e:9d:d7:7f:30:ed:15:f7:8b:5d:64:9b:dd:31:
        40:e4:55:0f:0c:5f:82:69:63:00:76:a5:cf:9e:c4:5f:f2:53:
        9b:9b:7d:f5:69:1d:74:57:38:70:e5:fb:5b:76:58:c9:ec:31:
        dc:94:1b:02:ee:9d:33:9c:38:4b:29:1d:e1:0c:29:8b:6e:c7:
        bf:a0:e8:40:34:83:cf:ff:9f:cd:b5:f7:d9:4d:a7:9f:2e:bf:
        44:98:6b:f2:d3:fe:a8:20:31:c1:33:76:b7:1c:19:65:4d:b9:
        14:39
-----BEGIN X509 CRL-----
MIIBXTCBxwIBATANBgkqhkiG9w0BAQUFADBAMQswCQYDVQQGEwJVUzEaMBgGA1UE
ChMRVGVzdCBDZXJ0aWZpY2F0ZXMxFTATBgNVBAMTDFRydXN0IEFuY2hvchcNMDEw
NDE5MTQ1NzIwWhcNMTEwNDE5MTQ1NzIwWjAiMCACAWgXDTAxMDQxOTE0NTcyMFow
DDAKBgNVHRUEAwoBAaAvMC0wHwYDVR0jBBgwFoAU+2zULYGeyid6ng2wPOqavIf/
SeowCgYDVR0UBAMCAQEwDQYJKoZIhvcNAQEFBQADgYEAkhLENLSSq7pxa3QxFs7t
JdZLHvr4IB6d138w7RX3i11km90xQORVDwxfgmljAHalz57EX/JTm5t99WkddFc4
cOX7W3ZYyewx3JQbAu6dM5w4Sykd4Qwpi27Hv6DoQDSDz/+fzbX32U2nny6/RJhr
8tP+qCAxwTN2txwZZU25FDk=
-----END X509 CRL-----

