subject=/C=US/O=Test Certificates/CN=nameConstraints DNS2 CA
issuer=/C=US/O=Test Certificates/CN=Trust Anchor
-----BEGIN CERTIFICATE-----
MIICqjCCAhOgAwIBAgIBRzANBgkqhkiG9w0BAQUFADBAMQswCQYDVQQGEwJVUzEa
MBgGA1UEChMRVGVzdCBDZXJ0aWZpY2F0ZXMxFTATBgNVBAMTDFRydXN0IEFuY2hv
cjAeFw0wMTA0MTkxNDU3MjBaFw0xMTA0MTkxNDU3MjBaMEsxCzAJBgNVBAYTAlVT
MRowGAYDVQQKExFUZXN0IENlcnRpZmljYXRlczEgMB4GA1UEAxMXbmFtZUNvbnN0
cmFpbnRzIEROUzIgQ0EwgZ8wDQYJKoZIhvcNAQEBBQADgY0AMIGJAoGBANmefIFU
RUgrahNMyIfzibuPD5LXv1aF765kc/ROx4BQYuBUZehjaB0G3eHv0wGu5rSJbnoy
Lpdv0XVvBKEai/K+9iIereljhcwZzKTbHHvAdhCtgImX/Zz/KZ7OU4GZJGkdcj9r
e/szQBEqTWkWB7hT25WM4ghi5xAz1Tn3foOxAgMBAAGjgagwgaUwHwYDVR0jBBgw
FoAU+2zULYGeyid6ng2wPOqavIf/SeowHQYDVR0OBBYEFH6Q3Dvq3pzSm0JE73sa
zW6PkuC0MA4GA1UdDwEB/wQEAwIBBjAXBgNVHSAEEDAOMAwGCmCGSAFlAwIBMAEw
DwYDVR0TAQH/BAUwAwEB/zApBgNVHR4BAf8EHzAdoRswGYIXaW52YWxpZGNlcnRp
ZmljYXRlcy5nb3YwDQYJKoZIhvcNAQEFBQADgYEAekwpteebcTHJ3RTTqNmNlRsw
aSa2MtBlaOVNyWi/Qsgy/LO5We9Ahkq56VlKB4WTWCFBdrbbnZ4k1Dpgj+NA8YBD
Ysuq9KofKqycs+alN4JOOMtKHzbm05wPqkhY1qbBFAUbrEm5felp5drbJys97mCX
bm7XHTxTuImtWM4ESC4=
-----END CERTIFICATE-----

subject=/C=US/O=Test Certificates/CN=Invalid DNS nameConstraints EE Certificate Test33
issuer=/C=US/O=Test Certificates/CN=nameConstraints DNS2 CA
-----BEGIN CERTIFICATE-----
MIICtzCCAiCgAwIBAgIBAjANBgkqhkiG9w0BAQUFADBLMQswCQYDVQQGEwJVUzEa
MBgGA1UEChMRVGVzdCBDZXJ0aWZpY2F0ZXMxIDAeBgNVBAMTF25hbWVDb25zdHJh
aW50cyBETlMyIENBMB4XDTAxMDQxOTE0NTcyMFoXDTExMDQxOTE0NTcyMFowZTEL
MAkGA1UEBhMCVVMxGjAYBgNVBAoTEVRlc3QgQ2VydGlmaWNhdGVzMTowOAYDVQQD
EzFJbnZhbGlkIEROUyBuYW1lQ29uc3RyYWludHMgRUUgQ2VydGlmaWNhdGUgVGVz
dDMzMIGfMA0GCSqGSIb3DQEBAQUAA4GNADCBiQKBgQCxL/NbfBumGy235WIg06BG
/D3/nRm8g5DewpBeSbgEPD/1yljXiblJ9TItVB7HrbJsewZWk28/396FVXb69SeD
rmYXPflrEmgQlCp6IT0axE+gS6zTeS6qCAeHVWGLLvKOx6/9j/xqw2zUUDb1kZTy
IedQLQlkNsdE966MUxr7fwIDAQABo4GQMIGNMB8GA1UdIwQYMBaAFH6Q3Dvq3pzS
m0JE73sazW6PkuC0MB0GA1UdDgQWBBTg13snqN9OjzwRLPdrP94IHHcERDAOBgNV
HQ8BAf8EBAMCBPAwFwYDVR0gBBAwDjAMBgpghkgBZQMCATABMCIGA1UdEQQbMBmC
F2ludmFsaWRjZXJ0aWZpY2F0ZXMuZ292MA0GCSqGSIb3DQEBBQUAA4GBALVLczfP
n/oPIoeyzrVNW7swi6hL0k/Hp4Ki4rB1HA+cXcuGMJTM1mnk7gLd9Mjjyp0Iz7DP
82k+Kv+9+EpOWHhwkvAJVJisKGVO4NrUbuxGhoYggP+ig5gsuHAfCAlzLfzQgW+V
BtejP9VrkYTGxKno9uiIjXfO/VQ9w8pB1Kci
-----END CERTIFICATE-----

Certificate Revocation List (CRL):
        Version 2 (0x1)
        Signature Algorithm: sha1WithRSAEncryption
        Issuer: /C=US/O=Test Certificates/CN=nameConstraints DNS2 CA
        Last Update: Apr 19 14:57:20 2001 GMT
        Next Update: Apr 19 14:57:20 2011 GMT
        CRL extensions:
            X509v3 Authority Key Identifier: 
                keyid:7E:90:DC:3B:EA:DE:9C:D2:9B:42:44:EF:7B:1A:CD:6E:8F:92:E0:B4

            X509v3 CRL Number: 
                1
No Revoked Certificates.
    Signature Algorithm: sha1WithRSAEncryption
        02:f1:3c:9c:25:d8:e5:f3:99:97:72:47:d1:94:a1:f0:11:0a:
        8d:ef:9f:4c:c6:3e:93:23:1c:76:92:f7:68:f7:8f:9d:d0:ab:
        7d:73:20:ba:f8:ea:1c:90:10:59:01:07:c3:11:36:15:70:b3:
        e1:80:3f:38:65:42:77:78:95:79:6d:a9:88:c7:54:59:b2:52:
        9d:da:5a:58:a1:73:1e:07:78:00:01:67:02:41:9e:82:b4:ab:
        f3:d1:74:00:8f:ce:fa:78:8b:c5:ff:ca:40:ca:88:90:ac:74:
        78:41:4b:60:85:3f:43:31:7e:1c:60:bb:3d:91:09:df:9d:f3:
        6a:40
-----BEGIN X509 CRL-----
MIIBRDCBrgIBATANBgkqhkiG9w0BAQUFADBLMQswCQYDVQQGEwJVUzEaMBgGA1UE
ChMRVGVzdCBDZXJ0aWZpY2F0ZXMxIDAeBgNVBAMTF25hbWVDb25zdHJhaW50cyBE
TlMyIENBFw0wMTA0MTkxNDU3MjBaFw0xMTA0MTkxNDU3MjBaoC8wLTAfBgNVHSME
GDAWgBR+kNw76t6c0ptCRO97Gs1uj5LgtDAKBgNVHRQEAwIBATANBgkqhkiG9w0B
AQUFAAOBgQAC8TycJdjl85mXckfRlKHwEQqN759Mxj6TIxx2kvdo94+d0Kt9cyC6
+OockBBZAQfDETYVcLPhgD84ZUJ3eJV5bamIx1RZslKd2lpYoXMeB3gAAWcCQZ6C
tKvz0XQAj876eIvF/8pAyoiQrHR4QUtghT9DMX4cYLs9kQnfnfNqQA==
-----END X509 CRL-----

Certificate Revocation List (CRL):
        Version 2 (0x1)
        Signature Algorithm: sha1WithRSAEncryption
        Issuer: /C=US/O=Test Certificates/CN=Trust Anchor
        Last Update: Apr 19 14:57:20 2001 GMT
        Next Update: Apr 19 14:57:20 2011 GMT
        CRL extensions:
            X509v3 Authority Key Identifier: 
                keyid:FB:6C:D4:2D:81:9E:CA:27:7A:9E:0D:B0:3C:EA:9A:BC:87:FF:49:EA

            X509v3 CRL Number: 
                1
Revoked Certificates:
    Serial Number: 68
        Revocation Date: Apr 19 14:57:20 2001 GMT
        CRL entry extensions:
            X509v3 CRL Reason Code: 
                Key Compromise
    Signature Algorithm: sha1WithRSAEncryption
        92:12:c4:34:b4:92:ab:ba:71:6b:74:31:16:ce:ed:25:d6:4b:
        1e:fa:f8:20:1e:9d:d7:7f:30:ed:15:f7:8b:5d:64:9b:dd:31:
        40:e4:55:0f:0c:5f:82:69:63:00:76:a5:cf:9e:c4:5f:f2:53:
        9b:9b:7d:f5:69:1d:74:57:38:70:e5:fb:5b:76:58:c9:ec:31:
        dc:94:1b:02:ee:9d:33:9c:38:4b:29:1d:e1:0c:29:8b:6e:c7:
        bf:a0:e8:40:34:83:cf:ff:9f:cd:b5:f7:d9:4d:a7:9f:2e:bf:
        44:98:6b:f2:d3:fe:a8:20:31:c1:33:76:b7:1c:19:65:4d:b9:
        14:39
-----BEGIN X509 CRL-----
MIIBXTCBxwIBATANBgkqhkiG9w0BAQUFADBAMQswCQYDVQQGEwJVUzEaMBgGA1UE
ChMRVGVzdCBDZXJ0aWZpY2F0ZXMxFTATBgNVBAMTDFRydXN0IEFuY2hvchcNMDEw
NDE5MTQ1NzIwWhcNMTEwNDE5MTQ1NzIwWjAiMCACAWgXDTAxMDQxOTE0NTcyMFow
DDAKBgNVHRUEAwoBAaAvMC0wHwYDVR0jBBgwFoAU+2zULYGeyid6ng2wPOqavIf/
SeowCgYDVR0UBAMCAQEwDQYJKoZIhvcNAQEFBQADgYEAkhLENLSSq7pxa3QxFs7t
JdZLHvr4IB6d138w7RX3i11km90xQORVDwxfgmljAHalz57EX/JTm5t99WkddFc4
cOX7W3ZYyewx3JQbAu6dM5w4Sykd4Qwpi27Hv6DoQDSDz/+fzbX32U2nny6/RJhr
8tP+qCAxwTN2txwZZU25FDk=
-----END X509 CRL-----

