subject=/C=US/O=Test Certificates/CN=pathLenConstraint0 CA
issuer=/C=US/O=Test Certificates/CN=Trust Anchor
-----BEGIN CERTIFICATE-----
MIICfjCCAeegAwIBAgIBGjANBgkqhkiG9w0BAQUFADBAMQswCQYDVQQGEwJVUzEa
MBgGA1UEChMRVGVzdCBDZXJ0aWZpY2F0ZXMxFTATBgNVBAMTDFRydXN0IEFuY2hv
cjAeFw0wMTA0MTkxNDU3MjBaFw0xMTA0MTkxNDU3MjBaMEkxCzAJBgNVBAYTAlVT
MRowGAYDVQQKExFUZXN0IENlcnRpZmljYXRlczEeMBwGA1UEAxMVcGF0aExlbkNv
bnN0cmFpbnQwIENBMIGfMA0GCSqGSIb3DQEBAQUAA4GNADCBiQKBgQDCXXXPbNnk
MU3wxjjwCdA/Pj+lwkDk8WSxKGdOrcPMnFnrCdUnSqEES3K6/T7JRQyv6Y13Rt6w
LAhrQI94UBcsAAQND4SOPyJUE3PonzcolJQ+EzkSB9qq6cxJokxTvxVTx2VN7bN1
RJ7FrWovHu/vmKnwsOy3zv41U6KBfuf04QIDAQABo38wfTAfBgNVHSMEGDAWgBT7
bNQtgZ7KJ3qeDbA86pq8h/9J6jAdBgNVHQ4EFgQUIQy1AXZ207MqrCb8qqZP8tah
b0swDgYDVR0PAQH/BAQDAgEGMBcGA1UdIAQQMA4wDAYKYIZIAWUDAgEwATASBgNV
HRMBAf8ECDAGAQH/AgEAMA0GCSqGSIb3DQEBBQUAA4GBAJUd83zrSjxfaGwFdTCt
BSI1mTeztSKFxIzrWeTxD3C0JHAxt1oM1AN8DQ/Ej8ja3rxhzsFQaWzdi3ixvnGr
NbjLZH7EPWBPSSC2rTAcvLzVs2AuPsBkv7IKxg7HTJZtLbXDOIatWT+24OuKwTzE
6cbcSe7zaz5qdojy0B72dLHC
-----END CERTIFICATE-----

subject=/C=US/O=Test Certificates/CN=pathLenConstraint0 CA
issuer=/C=US/O=Test Certificates/CN=pathLenConstraint0 CA
-----BEGIN CERTIFICATE-----
MIIChDCCAe2gAwIBAgIBBDANBgkqhkiG9w0BAQUFADBJMQswCQYDVQQGEwJVUzEa
MBgGA1UEChMRVGVzdCBDZXJ0aWZpY2F0ZXMxHjAcBgNVBAMTFXBhdGhMZW5Db25z
dHJhaW50MCBDQTAeFw0wMTA0MTkxNDU3MjBaFw0xMTA0MTkxNDU3MjBaMEkxCzAJ
BgNVBAYTAlVTMRowGAYDVQQKExFUZXN0IENlcnRpZmljYXRlczEeMBwGA1UEAxMV
cGF0aExlbkNvbnN0cmFpbnQwIENBMIGfMA0GCSqGSIb3DQEBAQUAA4GNADCBiQKB
gQDDqMCqoLUxLw5wCcxhD3+5J80k2C5ESu+Co4n3V3Nu2SyzcfKET0wx5QvxYm5V
bzsntf6IudJpfXgzxHIwJ4i5v+Ycc8NYiqmCNhsW5sFRzhjQDyTWu0fEYm+tmyBv
FavwXAcp8ptUMElDMAv/bKSD+7MDC9uHZQOmVsY0ndcNUQIDAQABo3wwejAfBgNV
HSMEGDAWgBQhDLUBdnbTsyqsJvyqpk/y1qFvSzAdBgNVHQ4EFgQUOK0lyEJa1w3p
SvQY5iylU6RQ9EwwDgYDVR0PAQH/BAQDAgEGMBcGA1UdIAQQMA4wDAYKYIZIAWUD
AgEwATAPBgNVHRMBAf8EBTADAQH/MA0GCSqGSIb3DQEBBQUAA4GBAA9NjcDXXcF4
FXkwZWIDYtowLXCpbshsU80nGx0/7QVNApSTnUq9pe0t8qAClcYZuaXgB/uYINl5
qozAW6KR4wFaNUv6mnm+0ppWeiTnIn5O37IycPbAKVZRhauf3p/cTkZ6RZ3MJ5Q+
fMTJscvSXtMhU+Q3Pp5PGRXlXhs1zFNp
-----END CERTIFICATE-----

subject=/C=US/O=Test Certificates/CN=pathLenConstraint0 subCA2
issuer=/C=US/O=Test Certificates/CN=pathLenConstraint0 CA
-----BEGIN CERTIFICATE-----
MIICiDCCAfGgAwIBAgIBBjANBgkqhkiG9w0BAQUFADBJMQswCQYDVQQGEwJVUzEa
MBgGA1UEChMRVGVzdCBDZXJ0aWZpY2F0ZXMxHjAcBgNVBAMTFXBhdGhMZW5Db25z
dHJhaW50MCBDQTAeFw0wMTA0MTkxNDU3MjBaFw0xMTA0MTkxNDU3MjBaME0xCzAJ
BgNVBAYTAlVTMRowGAYDVQQKExFUZXN0IENlcnRpZmljYXRlczEiMCAGA1UEAxMZ
cGF0aExlbkNvbnN0cmFpbnQwIHN1YkNBMjCBnzANBgkqhkiG9w0BAQEFAAOBjQAw
gYkCgYEAsFRY6folIcigIrpQ/iMlyqdk9EBMIL6NqCJEqkvun/36zcYeHsPv8t29
hFHDBrhQT/Fi+9MNOXx0uiJT0cetYETo/HiiAqub27NG0Z82sxwsEiLASEWZ4ctu
8AIom0mQl11rsK/4z4OemcI4Mxh5j6fCiI1ouogv1Vx4us4ew/UCAwEAAaN8MHow
HwYDVR0jBBgwFoAUOK0lyEJa1w3pSvQY5iylU6RQ9EwwHQYDVR0OBBYEFAJSemtC
TrDjzYKlY89uAwAjlIk1MA4GA1UdDwEB/wQEAwIBBjAXBgNVHSAEEDAOMAwGCmCG
SAFlAwIBMAEwDwYDVR0TAQH/BAUwAwEB/zANBgkqhkiG9w0BAQUFAAOBgQCFLUIH
3Nuh+TAs+Kpg/tZTFK3cl2DGM1+W+wnsgn3pQhJnqIYCI/iAuPRs2bJGH1lQ0CTr
HAQU9y0kmWpsNCzI6k9ZyuLd2w7MdXezVhjpE3iwAQCnVG1vw0MTFGzyR7wMeWp0
Ejrp6mVdwu8LV6lngeqmNv0QNjYSutrFAsDHUg==
-----END CERTIFICATE-----

subject=/C=US/O=Test Certificates/CN=Invalid Self-Issued pathLenConstraint EE Certificate Test16
issuer=/C=US/O=Test Certificates/CN=pathLenConstraint0 subCA2
-----BEGIN CERTIFICATE-----
MIICnTCCAgagAwIBAgIBATANBgkqhkiG9w0BAQUFADBNMQswCQYDVQQGEwJVUzEa
MBgGA1UEChMRVGVzdCBDZXJ0aWZpY2F0ZXMxIjAgBgNVBAMTGXBhdGhMZW5Db25z
dHJhaW50MCBzdWJDQTIwHhcNMDEwNDE5MTQ1NzIwWhcNMTEwNDE5MTQ1NzIwWjBv
MQswCQYDVQQGEwJVUzEaMBgGA1UEChMRVGVzdCBDZXJ0aWZpY2F0ZXMxRDBCBgNV
BAMTO0ludmFsaWQgU2VsZi1Jc3N1ZWQgcGF0aExlbkNvbnN0cmFpbnQgRUUgQ2Vy
dGlmaWNhdGUgVGVzdDE2MIGfMA0GCSqGSIb3DQEBAQUAA4GNADCBiQKBgQDfnEYg
5tV8iksMhoNkR/PLNDStGXw9l6sTCiF+m+EF+/pDeN0Y/509SepxvXOZbQ8D7CkB
PfgmSL8hs0dxdE3Fvf/AjvTFyyjI1q5wkFXd/qWMewquuMMm2j+FWn0fmSoFnyM6
EEYvKLhqj1QuWiJJN/250ngjuufsh51HnlR/6QIDAQABo2swaTAfBgNVHSMEGDAW
gBQCUnprQk6w482CpWPPbgMAI5SJNTAdBgNVHQ4EFgQURA7pZi8vxURs7KKf3U9B
ItsxSAMwDgYDVR0PAQH/BAQDAgTwMBcGA1UdIAQQMA4wDAYKYIZIAWUDAgEwATAN
BgkqhkiG9w0BAQUFAAOBgQAweIEFGj6V0Kr9Dz4wEyhUVK5bf5Frg+J8ap0YnoNT
EmoLFqQtKPB3MVfcUkXrZAY149XFJJLI0v5VCK2mBN535do/Grxve2MMW8BbmmU4
FQOKJruMJARneqYEHxbZUEmBvEoIoi4C/2SLxO7hOnhpiK+6UsetU35F19FPfGVp
UQ==
-----END CERTIFICATE-----

Certificate Revocation List (CRL):
        Version 2 (0x1)
        Signature Algorithm: sha1WithRSAEncryption
        Issuer: /C=US/O=Test Certificates/CN=pathLenConstraint0 CA
        Last Update: Apr 19 14:57:20 2001 GMT
        Next Update: Apr 19 14:57:20 2011 GMT
        CRL extensions:
            X509v3 Authority Key Identifier: 
                keyid:21:0C:B5:01:76:76:D3:B3:2A:AC:26:FC:AA:A6:4F:F2:D6:A1:6F:4B

            X509v3 CRL Number: 
                1
No Revoked Certificates.
    Signature Algorithm: sha1WithRSAEncryption
        56:7b:a5:e5:64:8b:31:64:fa:9f:8f:a3:25:ab:8b:c9:c2:ba:
        cb:b9:e3:5f:3d:e9:b9:f4:f4:f4:d8:00:4c:cc:9e:5a:36:b3:
        d3:53:12:aa:d5:ba:ad:94:a5:21:16:c4:9c:ac:3d:3c:e3:2f:
        53:69:97:6c:2e:e5:82:98:31:e8:47:f9:8d:dc:ab:e2:8d:ec:
        b9:3f:b2:61:20:ad:22:24:f6:ff:90:4a:14:92:38:0e:9b:80:
        3f:1e:11:f2:d8:7b:fd:d4:0c:90:06:82:2c:48:f8:9e:7e:91:
        55:0c:21:e8:dd:95:ac:90:c7:d7:02:af:84:f4:23:08:bb:da:
        cd:a2
-----BEGIN X509 CRL-----
MIIBQjCBrAIBATANBgkqhkiG9w0BAQUFADBJMQswCQYDVQQGEwJVUzEaMBgGA1UE
ChMRVGVzdCBDZXJ0aWZpY2F0ZXMxHjAcBgNVBAMTFXBhdGhMZW5Db25zdHJhaW50
MCBDQRcNMDEwNDE5MTQ1NzIwWhcNMTEwNDE5MTQ1NzIwWqAvMC0wHwYDVR0jBBgw
FoAUIQy1AXZ207MqrCb8qqZP8tahb0swCgYDVR0UBAMCAQEwDQYJKoZIhvcNAQEF
BQADgYEAVnul5WSLMWT6n4+jJauLycK6y7njXz3pufT09NgATMyeWjaz01MSqtW6
rZSlIRbEnKw9POMvU2mXbC7lgpgx6Ef5jdyr4o3suT+yYSCtIiT2/5BKFJI4DpuA
Px4R8th7/dQMkAaCLEj4nn6RVQwh6N2VrJDH1wKvhPQjCLvazaI=
-----END X509 CRL-----

Certificate Revocation List (CRL):
        Version 2 (0x1)
        Signature Algorithm: sha1WithRSAEncryption
        Issuer: /C=US/O=Test Certificates/CN=pathLenConstraint0 subCA2
        Last Update: Apr 19 14:57:20 2001 GMT
        Next Update: Apr 19 14:57:20 2011 GMT
        CRL extensions:
            X509v3 Authority Key Identifier: 
                keyid:02:52:7A:6B:42:4E:B0:E3:CD:82:A5:63:CF:6E:03:00:23:94:89:35

            X509v3 CRL Number: 
                1
No Revoked Certificates.
    Signature Algorithm: sha1WithRSAEncryption
        23:10:0e:ae:60:60:7f:db:a0:d8:fe:8e:bb:0e:99:db:df:36:
        32:a0:54:7c:1c:ea:79:12:34:f1:a5:cb:75:f7:4b:d6:5d:6e:
        df:56:9d:c1:d9:a2:a1:ab:7e:53:ac:ab:4f:fb:61:c6:86:bb:
        60:ec:f2:44:14:49:22:54:6e:5e:72:96:23:b0:bb:d7:8f:e8:
        4b:c1:5e:f1:16:d7:1b:2a:68:ef:ca:25:1c:63:15:21:7b:a3:
        80:c3:50:97:f6:41:81:b1:ec:5c:5b:77:b2:df:1c:cc:48:97:
        61:56:01:b2:9e:6e:8e:c0:89:05:82:7c:42:1f:61:34:e8:12:
        c6:72
-----BEGIN X509 CRL-----
MIIBRjCBsAIBATANBgkqhkiG9w0BAQUFADBNMQswCQYDVQQGEwJVUzEaMBgGA1UE
ChMRVGVzdCBDZXJ0aWZpY2F0ZXMxIjAgBgNVBAMTGXBhdGhMZW5Db25zdHJhaW50
MCBzdWJDQTIXDTAxMDQxOTE0NTcyMFoXDTExMDQxOTE0NTcyMFqgLzAtMB8GA1Ud
IwQYMBaAFAJSemtCTrDjzYKlY89uAwAjlIk1MAoGA1UdFAQDAgEBMA0GCSqGSIb3
DQEBBQUAA4GBACMQDq5gYH/boNj+jrsOmdvfNjKgVHwc6nkSNPGly3X3S9Zdbt9W
ncHZoqGrflOsq0/7YcaGu2Ds8kQUSSJUbl5yliOwu9eP6EvBXvEW1xsqaO/KJRxj
FSF7o4DDUJf2QYGx7Fxbd7LfHMxIl2FWAbKebo7AiQWCfEIfYTToEsZy
-----END X509 CRL-----

Certificate Revocation List (CRL):
        Version 2 (0x1)
        Signature Algorithm: sha1WithRSAEncryption
        Issuer: /C=US/O=Test Certificates/CN=Trust Anchor
        Last Update: Apr 19 14:57:20 2001 GMT
        Next Update: Apr 19 14:57:20 2011 GMT
        CRL extensions:
            X509v3 Authority Key Identifier: 
                keyid:FB:6C:D4:2D:81:9E:CA:27:7A:9E:0D:B0:3C:EA:9A:BC:87:FF:49:EA

            X509v3 CRL Number: 
                1
Revoked Certificates:
    Serial Number: 68
        Revocation Date: Apr 19 14:57:20 2001 GMT
        CRL entry extensions:
            X509v3 CRL Reason Code: 
                Key Compromise
    Signature Algorithm: sha1WithRSAEncryption
        92:12:c4:34:b4:92:ab:ba:71:6b:74:31:16:ce:ed:25:d6:4b:
        1e:fa:f8:20:1e:9d:d7:7f:30:ed:15:f7:8b:5d:64:9b:dd:31:
        40:e4:55:0f:0c:5f:82:69:63:00:76:a5:cf:9e:c4:5f:f2:53:
        9b:9b:7d:f5:69:1d:74:57:38:70:e5:fb:5b:76:58:c9:ec:31:
        dc:94:1b:02:ee:9d:33:9c:38:4b:29:1d:e1:0c:29:8b:6e:c7:
        bf:a0:e8:40:34:83:cf:ff:9f:cd:b5:f7:d9:4d:a7:9f:2e:bf:
        44:98:6b:f2:d3:fe:a8:20:31:c1:33:76:b7:1c:19:65:4d:b9:
        14:39
-----BEGIN X509 CRL-----
MIIBXTCBxwIBATANBgkqhkiG9w0BAQUFADBAMQswCQYDVQQGEwJVUzEaMBgGA1UE
ChMRVGVzdCBDZXJ0aWZpY2F0ZXMxFTATBgNVBAMTDFRydXN0IEFuY2hvchcNMDEw
NDE5MTQ1NzIwWhcNMTEwNDE5MTQ1NzIwWjAiMCACAWgXDTAxMDQxOTE0NTcyMFow
DDAKBgNVHRUEAwoBAaAvMC0wHwYDVR0jBBgwFoAU+2zULYGeyid6ng2wPOqavIf/
SeowCgYDVR0UBAMCAQEwDQYJKoZIhvcNAQEFBQADgYEAkhLENLSSq7pxa3QxFs7t
JdZLHvr4IB6d138w7RX3i11km90xQORVDwxfgmljAHalz57EX/JTm5t99WkddFc4
cOX7W3ZYyewx3JQbAu6dM5w4Sykd4Qwpi27Hv6DoQDSDz/+fzbX32U2nny6/RJhr
8tP+qCAxwTN2txwZZU25FDk=
-----END X509 CRL-----

