subject=/C=US/O=Test Certificates/CN=Invalid CA Signature Test2
issuer=/C=US/O=Test Certificates/CN=Bad Signed CA
-----BEGIN CERTIFICATE-----
MIICcDCCAdmgAwIBAgIBATANBgkqhkiG9w0BAQUFADBBMQswCQYDVQQGEwJVUzEa
MBgGA1UEChMRVGVzdCBDZXJ0aWZpY2F0ZXMxFjAUBgNVBAMTDUJhZCBTaWduZWQg
Q0EwHhcNMDEwNDE5MTQ1NzIwWhcNMTEwNDE5MTQ1NzIwWjBOMQswCQYDVQQGEwJV
UzEaMBgGA1UEChMRVGVzdCBDZXJ0aWZpY2F0ZXMxIzAhBgNVBAMTGkludmFsaWQg
Q0EgU2lnbmF0dXJlIFRlc3QyMIGfMA0GCSqGSIb3DQEBAQUAA4GNADCBiQKBgQCw
QAB1tOhQDQfPXGHNyIA/wyXWG+GAx10kyG++1vTg81Le2VcCJjiZqVFLmLfBA9n1
cD4b9zSs2MrdUpnwVRWbHmeVYLW558PktB5UwAoEPQuV73PuRiN3GQQULGgh2AlF
k8PciufvFGkmYEco5d8AEM9Gv3QIgOKEraQME0I/NQIDAQABo2swaTAfBgNVHSME
GDAWgBRCG2+XCyN5H8EIV546pgqckIgf2DAdBgNVHQ4EFgQUfIdcwY2/jxziMCvk
H33rpDMUuV4wDgYDVR0PAQH/BAQDAgTwMBcGA1UdIAQQMA4wDAYKYIZIAWUDAgEw
ATANBgkqhkiG9w0BAQUFAAOBgQBgBJI+iPa3EWEHQqZr88JOAiU+tMO54vqLZ56J
visDO48tZuOHCSkrqHvBzsabiTuHjDvcHtivavtV43IyHAnyrajntNrs4lPBJlr3
XvTn5qVlsmuNGJqUrbxiyeNH/y1OB1Embx/RaoSOy0ffruRpL5PXyFvhn9z30I8f
2zkCOA==
-----END CERTIFICATE-----

subject=/C=US/O=Test Certificates/CN=Bad Signed CA
issuer=/C=US/O=Test Certificates/CN=Trust Anchor
-----BEGIN CERTIFICATE-----
MIICczCCAdygAwIBAgIBAzANBgkqhkiG9w0BAQUFADBAMQswCQYDVQQGEwJVUzEa
MBgGA1UEChMRVGVzdCBDZXJ0aWZpY2F0ZXMxFTATBgNVBAMTDFRydXN0IEFuY2hv
cjAeFw0wMTA0MTkxNDU3MjBaFw0xMTA0MTkxNDU3MjBaMEExCzAJBgNVBAYTAlVT
MRowGAYDVQQKExFUZXN0IENlcnRpZmljYXRlczEWMBQGA1UEAxMNQmFkIFNpZ25l
ZCBDQTCBnzANBgkqhkiG9w0BAQEFAAOBjQAwgYkCgYEA16COIB4MAs+kpSoCuSHv
grtYTFABazGQDi3rvkQzAbL4QlKE64PAaeN4S3E9A1wg7uWYiru7ZM2D4k6grNKR
3QGx9APutE7yZHZt8Wd2upDOP62BTYHPrP7hWBSDWBmOKi367A3eviObljIH6BeF
EY6XcgDZg3o5AisPFzKK/pECAwEAAaN8MHowHwYDVR0jBBgwFoAU+2zULYGeyid6
ng2wPOqavIf/SeowHQYDVR0OBBYEFEIbb5cLI3kfwQhXnjqmCpyQiB/YMA4GA1Ud
DwEB/wQEAwIBBjAXBgNVHSAEEDAOMAwGCmCGSAFlAwIBMAEwDwYDVR0TAQH/BAUw
AwEB/zANBgkqhkiG9w0BAQUFAAOBgQASa6C+NTUfhhObLuxx8/8DFxAuEv5l+BQV
S7NV/MAZBPHBSw89ffEPEfbxBTcBYRI+UP59a/zHrzscTSqri7WoTEy/8tKIegHd
QDjTSXNL6oYGiQXDJY/r2kQB2mArrcL+KzKkC++gNgrdoJlpk6+4lfaBLiETQNtD
RBJVYzR5MA==
-----END CERTIFICATE-----

Certificate Revocation List (CRL):
        Version 2 (0x1)
        Signature Algorithm: sha1WithRSAEncryption
        Issuer: /C=US/O=Test Certificates/CN=Bad Signed CA
        Last Update: Apr 19 14:57:20 2001 GMT
        Next Update: Apr 19 14:57:20 2011 GMT
        CRL extensions:
            X509v3 Authority Key Identifier: 
                keyid:42:1B:6F:97:0B:23:79:1F:C1:08:57:9E:3A:A6:0A:9C:90:88:1F:D8

            X509v3 CRL Number: 
                1
No Revoked Certificates.
    Signature Algorithm: sha1WithRSAEncryption
        11:91:7d:19:a5:03:4e:a7:f1:1f:18:62:94:fa:97:a0:46:41:
        96:31:95:19:49:79:a9:e5:f1:84:aa:c8:dc:c8:7f:92:07:e4:
        fc:66:96:9b:2e:8e:73:aa:ad:70:11:19:fd:8e:be:f2:74:3f:
        79:02:5a:e6:2a:67:b4:46:d7:1d:8a:de:c8:d0:b7:cc:f6:85:
        db:90:a6:46:9c:ad:23:09:47:aa:f0:44:45:63:f5:40:dd:fc:
        75:bf:4b:85:2f:fa:74:09:f8:19:8f:29:97:92:ae:34:5c:6e:
        6b:6b:40:74:51:58:26:df:95:b7:72:13:3d:b1:76:9a:0a:43:
        37:31
-----BEGIN X509 CRL-----
MIIBOjCBpAIBATANBgkqhkiG9w0BAQUFADBBMQswCQYDVQQGEwJVUzEaMBgGA1UE
ChMRVGVzdCBDZXJ0aWZpY2F0ZXMxFjAUBgNVBAMTDUJhZCBTaWduZWQgQ0EXDTAx
MDQxOTE0NTcyMFoXDTExMDQxOTE0NTcyMFqgLzAtMB8GA1UdIwQYMBaAFEIbb5cL
I3kfwQhXnjqmCpyQiB/YMAoGA1UdFAQDAgEBMA0GCSqGSIb3DQEBBQUAA4GBABGR
fRmlA06n8R8YYpT6l6BGQZYxlRlJeanl8YSqyNzIf5IH5PxmlpsujnOqrXARGf2O
vvJ0P3kCWuYqZ7RG1x2K3sjQt8z2hduQpkacrSMJR6rwREVj9UDd/HW/S4Uv+nQJ
+BmPKZeSrjRcbmtrQHRRWCbflbdyEz2xdpoKQzcx
-----END X509 CRL-----

Certificate Revocation List (CRL):
        Version 2 (0x1)
        Signature Algorithm: sha1WithRSAEncryption
        Issuer: /C=US/O=Test Certificates/CN=Trust Anchor
        Last Update: Apr 19 14:57:20 2001 GMT
        Next Update: Apr 19 14:57:20 2011 GMT
        CRL extensions:
            X509v3 Authority Key Identifier: 
                keyid:FB:6C:D4:2D:81:9E:CA:27:7A:9E:0D:B0:3C:EA:9A:BC:87:FF:49:EA

            X509v3 CRL Number: 
                1
Revoked Certificates:
    Serial Number: 68
        Revocation Date: Apr 19 14:57:20 2001 GMT
        CRL entry extensions:
            X509v3 CRL Reason Code: 
                Key Compromise
    Signature Algorithm: sha1WithRSAEncryption
        92:12:c4:34:b4:92:ab:ba:71:6b:74:31:16:ce:ed:25:d6:4b:
        1e:fa:f8:20:1e:9d:d7:7f:30:ed:15:f7:8b:5d:64:9b:dd:31:
        40:e4:55:0f:0c:5f:82:69:63:00:76:a5:cf:9e:c4:5f:f2:53:
        9b:9b:7d:f5:69:1d:74:57:38:70:e5:fb:5b:76:58:c9:ec:31:
        dc:94:1b:02:ee:9d:33:9c:38:4b:29:1d:e1:0c:29:8b:6e:c7:
        bf:a0:e8:40:34:83:cf:ff:9f:cd:b5:f7:d9:4d:a7:9f:2e:bf:
        44:98:6b:f2:d3:fe:a8:20:31:c1:33:76:b7:1c:19:65:4d:b9:
        14:39
-----BEGIN X509 CRL-----
MIIBXTCBxwIBATANBgkqhkiG9w0BAQUFADBAMQswCQYDVQQGEwJVUzEaMBgGA1UE
ChMRVGVzdCBDZXJ0aWZpY2F0ZXMxFTATBgNVBAMTDFRydXN0IEFuY2hvchcNMDEw
NDE5MTQ1NzIwWhcNMTEwNDE5MTQ1NzIwWjAiMCACAWgXDTAxMDQxOTE0NTcyMFow
DDAKBgNVHRUEAwoBAaAvMC0wHwYDVR0jBBgwFoAU+2zULYGeyid6ng2wPOqavIf/
SeowCgYDVR0UBAMCAQEwDQYJKoZIhvcNAQEFBQADgYEAkhLENLSSq7pxa3QxFs7t
JdZLHvr4IB6d138w7RX3i11km90xQORVDwxfgmljAHalz57EX/JTm5t99WkddFc4
cOX7W3ZYyewx3JQbAu6dM5w4Sykd4Qwpi27Hv6DoQDSDz/+fzbX32U2nny6/RJhr
8tP+qCAxwTN2txwZZU25FDk=
-----END X509 CRL-----

