subject=/C=US/O=Test Certificates/CN=nameConstraints DN1 CA
issuer=/C=US/O=Test Certificates/CN=Trust Anchor
-----BEGIN CERTIFICATE-----
MIIC2TCCAkKgAwIBAgIBPjANBgkqhkiG9w0BAQUFADBAMQswCQYDVQQGEwJVUzEa
MBgGA1UEChMRVGVzdCBDZXJ0aWZpY2F0ZXMxFTATBgNVBAMTDFRydXN0IEFuY2hv
cjAeFw0wMTA0MTkxNDU3MjBaFw0xMTA0MTkxNDU3MjBaMEoxCzAJBgNVBAYTAlVT
MRowGAYDVQQKExFUZXN0IENlcnRpZmljYXRlczEfMB0GA1UEAxMWbmFtZUNvbnN0
cmFpbnRzIEROMSBDQTCBnzANBgkqhkiG9w0BAQEFAAOBjQAwgYkCgYEAnL2vzTK+
WcGR2rmlezdUTUQkfIvzcTWRIVW2x+BxQPrPfoLqmpYZar4sY8ND0l3pQWcIFsGY
AYmm2vHULqUxZMW9R/dM3wqstOXd2JJVxvw/v4ajYB5lPNcrv8LyxxjVU2daqlYX
BCfL9/O6417oYys1UKNtEp6n6HV/ZbEJG70CAwEAAaOB2DCB1TAfBgNVHSMEGDAW
gBT7bNQtgZ7KJ3qeDbA86pq8h/9J6jAdBgNVHQ4EFgQUTi6j59ndi6eCO0FKw558
WSNXTlMwDgYDVR0PAQH/BAQDAgEGMBcGA1UdIAQQMA4wDAYKYIZIAWUDAgEwATAP
BgNVHRMBAf8EBTADAQH/MFkGA1UdHgEB/wRPME2gSzBJpEcwRTELMAkGA1UEBhMC
VVMxGjAYBgNVBAoTEVRlc3QgQ2VydGlmaWNhdGVzMRowGAYDVQQLExFwZXJtaXR0
ZWRTdWJ0cmVlMTANBgkqhkiG9w0BAQUFAAOBgQC9ypqhZWCmrISRla+Nxp/vshOs
UQcyF9Se7PBrkAfl37dg70aSgX0/6Xef8i5v3MRCar6lM8x+coBMHK41VUG9g6VW
2DAoCG3ajBCj48vN0Gd4dUwvsGAmmVuIwH0R/+2IBMp00341fpjIjUrMpxcxDFwe
Ve3YFugTb2fMnETR7A==
-----END CERTIFICATE-----

subject=/C=US/O=Test Certificates/OU=permittedSubtree1/CN=Invalid DN nameConstraints EE Certificate Test3
issuer=/C=US/O=Test Certificates/CN=nameConstraints DN1 CA
-----BEGIN CERTIFICATE-----
MIIDPTCCAqagAwIBAgIBAzANBgkqhkiG9w0BAQUFADBKMQswCQYDVQQGEwJVUzEa
MBgGA1UEChMRVGVzdCBDZXJ0aWZpY2F0ZXMxHzAdBgNVBAMTFm5hbWVDb25zdHJh
aW50cyBETjEgQ0EwHhcNMDEwNDE5MTQ1NzIwWhcNMTEwNDE5MTQ1NzIwWjB/MQsw
CQYDVQQGEwJVUzEaMBgGA1UEChMRVGVzdCBDZXJ0aWZpY2F0ZXMxGjAYBgNVBAsT
EXBlcm1pdHRlZFN1YnRyZWUxMTgwNgYDVQQDEy9JbnZhbGlkIEROIG5hbWVDb25z
dHJhaW50cyBFRSBDZXJ0aWZpY2F0ZSBUZXN0MzCBnzANBgkqhkiG9w0BAQEFAAOB
jQAwgYkCgYEAyUV/VUccWeiLd97UNg9PsfI5JBKyMkLviLCMbEGIggBG9W+5DKyu
loDjDpVTzzz4pO4/LQqcZgxP61RsM9sdvJTyxHWpU8fEb3CFFPX47WEEdzFEjvay
iqEorgwgt0OuiDc6ygpjvje94MD9/tn2oXGXiZXf225UPJOAg/4G2CECAwEAAaOB
/TCB+jAfBgNVHSMEGDAWgBROLqPn2d2Lp4I7QUrDnnxZI1dOUzAdBgNVHQ4EFgQU
XNZp2F2DSh5YkgNExED/5j5eRE4wDgYDVR0PAQH/BAQDAgTwMBcGA1UdIAQQMA4w
DAYKYIZIAWUDAgEwATCBjgYDVR0RBIGGMIGDpIGAMH4xCzAJBgNVBAYTAlVTMRow
GAYDVQQKExFUZXN0IENlcnRpZmljYXRlczEZMBcGA1UECxMQZXhjbHVkZWRTdWJ0
cmVlMTE4MDYGA1UEAxMvSW52YWxpZCBETiBuYW1lQ29uc3RyYWludHMgRUUgQ2Vy
dGlmaWNhdGUgVGVzdDMwDQYJKoZIhvcNAQEFBQADgYEAF0YtbEJ7UriPhjA5X7Ms
bjlEt6/l18J5LUKX6SdvzojVZW6wSnfiinjESVIMS7+nvplPU1D5y6BBzB2jCHZx
uxC/Db9r8CeNek1COMl9nvav4pyuA1e+INl/it59qgfHMZ/pBdsYkYKI3B31oinp
TSHj4AKIIi1y358PHk3BZWw=
-----END CERTIFICATE-----

Certificate Revocation List (CRL):
        Version 2 (0x1)
        Signature Algorithm: sha1WithRSAEncryption
        Issuer: /C=US/O=Test Certificates/CN=nameConstraints DN1 CA
        Last Update: Apr 19 14:57:20 2001 GMT
        Next Update: Apr 19 14:57:20 2011 GMT
        CRL extensions:
            X509v3 Authority Key Identifier: 
                keyid:4E:2E:A3:E7:D9:DD:8B:A7:82:3B:41:4A:C3:9E:7C:59:23:57:4E:53

            X509v3 CRL Number: 
                1
No Revoked Certificates.
    Signature Algorithm: sha1WithRSAEncryption
        99:8a:59:ed:d0:76:00:b5:5b:70:91:75:a0:4d:60:16:df:72:
        71:89:61:43:5b:d4:65:f6:8d:0b:25:39:17:86:6d:1d:c4:cc:
        19:3c:20:21:71:5f:a3:5f:d4:52:e6:d1:c4:cb:39:92:65:80:
        74:46:a9:5c:7c:7c:c2:4c:1f:8d:fb:aa:bd:4a:de:6a:3b:0a:
        29:ba:9c:70:13:84:fd:c7:aa:d3:03:99:f0:93:3a:cf:cb:e2:
        39:e9:e3:1b:ff:10:07:a3:51:5c:ff:dd:da:a9:29:05:12:3a:
        f0:10:a1:d8:9c:5e:ec:0f:c3:02:cd:f9:ab:b2:d0:36:32:0e:
        e8:eb
-----BEGIN X509 CRL-----
MIIBQzCBrQIBATANBgkqhkiG9w0BAQUFADBKMQswCQYDVQQGEwJVUzEaMBgGA1UE
ChMRVGVzdCBDZXJ0aWZpY2F0ZXMxHzAdBgNVBAMTFm5hbWVDb25zdHJhaW50cyBE
TjEgQ0EXDTAxMDQxOTE0NTcyMFoXDTExMDQxOTE0NTcyMFqgLzAtMB8GA1UdIwQY
MBaAFE4uo+fZ3YungjtBSsOefFkjV05TMAoGA1UdFAQDAgEBMA0GCSqGSIb3DQEB
BQUAA4GBAJmKWe3QdgC1W3CRdaBNYBbfcnGJYUNb1GX2jQslOReGbR3EzBk8ICFx
X6Nf1FLm0cTLOZJlgHRGqVx8fMJMH437qr1K3mo7Cim6nHAThP3HqtMDmfCTOs/L
4jnp4xv/EAejUVz/3dqpKQUSOvAQodicXuwPwwLN+auy0DYyDujr
-----END X509 CRL-----

Certificate Revocation List (CRL):
        Version 2 (0x1)
        Signature Algorithm: sha1WithRSAEncryption
        Issuer: /C=US/O=Test Certificates/CN=Trust Anchor
        Last Update: Apr 19 14:57:20 2001 GMT
        Next Update: Apr 19 14:57:20 2011 GMT
        CRL extensions:
            X509v3 Authority Key Identifier: 
                keyid:FB:6C:D4:2D:81:9E:CA:27:7A:9E:0D:B0:3C:EA:9A:BC:87:FF:49:EA

            X509v3 CRL Number: 
                1
Revoked Certificates:
    Serial Number: 68
        Revocation Date: Apr 19 14:57:20 2001 GMT
        CRL entry extensions:
            X509v3 CRL Reason Code: 
                Key Compromise
    Signature Algorithm: sha1WithRSAEncryption
        92:12:c4:34:b4:92:ab:ba:71:6b:74:31:16:ce:ed:25:d6:4b:
        1e:fa:f8:20:1e:9d:d7:7f:30:ed:15:f7:8b:5d:64:9b:dd:31:
        40:e4:55:0f:0c:5f:82:69:63:00:76:a5:cf:9e:c4:5f:f2:53:
        9b:9b:7d:f5:69:1d:74:57:38:70:e5:fb:5b:76:58:c9:ec:31:
        dc:94:1b:02:ee:9d:33:9c:38:4b:29:1d:e1:0c:29:8b:6e:c7:
        bf:a0:e8:40:34:83:cf:ff:9f:cd:b5:f7:d9:4d:a7:9f:2e:bf:
        44:98:6b:f2:d3:fe:a8:20:31:c1:33:76:b7:1c:19:65:4d:b9:
        14:39
-----BEGIN X509 CRL-----
MIIBXTCBxwIBATANBgkqhkiG9w0BAQUFADBAMQswCQYDVQQGEwJVUzEaMBgGA1UE
ChMRVGVzdCBDZXJ0aWZpY2F0ZXMxFTATBgNVBAMTDFRydXN0IEFuY2hvchcNMDEw
NDE5MTQ1NzIwWhcNMTEwNDE5MTQ1NzIwWjAiMCACAWgXDTAxMDQxOTE0NTcyMFow
DDAKBgNVHRUEAwoBAaAvMC0wHwYDVR0jBBgwFoAU+2zULYGeyid6ng2wPOqavIf/
SeowCgYDVR0UBAMCAQEwDQYJKoZIhvcNAQEFBQADgYEAkhLENLSSq7pxa3QxFs7t
JdZLHvr4IB6d138w7RX3i11km90xQORVDwxfgmljAHalz57EX/JTm5t99WkddFc4
cOX7W3ZYyewx3JQbAu6dM5w4Sykd4Qwpi27Hv6DoQDSDz/+fzbX32U2nny6/RJhr
8tP+qCAxwTN2txwZZU25FDk=
-----END X509 CRL-----

