subject=/C=US/O=Test Certificates/CN=inhibitPolicyMapping5 subsubCA
issuer=/C=US/O=Test Certificates/CN=inhibitPolicyMapping5 subCA
-----BEGIN CERTIFICATE-----
MIICkzCCAfygAwIBAgIBATANBgkqhkiG9w0BAQUFADBPMQswCQYDVQQGEwJVUzEa
MBgGA1UEChMRVGVzdCBDZXJ0aWZpY2F0ZXMxJDAiBgNVBAMTG2luaGliaXRQb2xp
Y3lNYXBwaW5nNSBzdWJDQTAeFw0wMTA0MTkxNDU3MjBaFw0xMTA0MTkxNDU3MjBa
MFIxCzAJBgNVBAYTAlVTMRowGAYDVQQKExFUZXN0IENlcnRpZmljYXRlczEnMCUG
A1UEAxMeaW5oaWJpdFBvbGljeU1hcHBpbmc1IHN1YnN1YkNBMIGfMA0GCSqGSIb3
DQEBAQUAA4GNADCBiQKBgQCzgPv0jUMseTafKoAOspqZCAtVctNqO5SipAee2vLt
7PijWRyqmveQUmDdJ5SFkFnevzRHhOINFIhKjygmtJQe0px86XknNJhW6OPICI2M
jxgzst9Cs5w3cYjsOxsD5+FXzritqz6jSQ8Fa52IhmBYcbRncSOcu2IOGGMOUfLf
7wIDAQABo3wwejAfBgNVHSMEGDAWgBTvkHRdvSchXG13RCZt3L/7vmNrCzAdBgNV
HQ4EFgQUBN9qa50ER9oRS3e69lS0UhaUJsowDgYDVR0PAQH/BAQDAgEGMBcGA1Ud
IAQQMA4wDAYKYIZIAWUDAgEwATAPBgNVHRMBAf8EBTADAQH/MA0GCSqGSIb3DQEB
BQUAA4GBALo5V4PwqAf314Emx79p7ce/cKrLjdi63pS2BsN4dFQ7TbY4Uru6/0Gc
lZvOzyBVyvb4KxYTgvmOUkaNIpEe6xyRjHN5oAOEuOOgnXjL6kQz1st793h3WaTA
hTg1AyHkktBRVhr0g1rCHCsGdrq6HSU9jZqvOOPaWomS+woTciNh
-----END CERTIFICATE-----

subject=/C=US/O=Test Certificates/CN=inhibitPolicyMapping5 CA
issuer=/C=US/O=Test Certificates/CN=Trust Anchor
-----BEGIN CERTIFICATE-----
MIIClDCCAf2gAwIBAgIBOTANBgkqhkiG9w0BAQUFADBAMQswCQYDVQQGEwJVUzEa
MBgGA1UEChMRVGVzdCBDZXJ0aWZpY2F0ZXMxFTATBgNVBAMTDFRydXN0IEFuY2hv
cjAeFw0wMTA0MTkxNDU3MjBaFw0xMTA0MTkxNDU3MjBaMEwxCzAJBgNVBAYTAlVT
MRowGAYDVQQKExFUZXN0IENlcnRpZmljYXRlczEhMB8GA1UEAxMYaW5oaWJpdFBv
bGljeU1hcHBpbmc1IENBMIGfMA0GCSqGSIb3DQEBAQUAA4GNADCBiQKBgQCmgb4z
lKzduO0U0YgdsR69hYe1HUrPtFTUc7C3KMaX2LsYdutgdW5fQ5atnORTBTTRY11C
G4hIuo7WabxJOcSK9lrleEw58bZjDsNc5/o8xo3cF1zkmc6/DH4P5CGxk0nOzeLY
XJ9vyj/nZc5i0k6H7NU+cde/s5tknCDntmnf3QIDAQABo4GRMIGOMB8GA1UdIwQY
MBaAFPts1C2Bnsonep4NsDzqmryH/0nqMB0GA1UdDgQWBBRAFr9wLgI4+Lavp1rZ
sgNDWZj1TDAOBgNVHQ8BAf8EBAMCAQYwFwYDVR0gBBAwDjAMBgpghkgBZQMCATAB
MA8GA1UdEwEB/wQFMAMBAf8wEgYDVR0kAQH/BAgwBoABAIEBBTANBgkqhkiG9w0B
AQUFAAOBgQAfLQvmb/5mx+Mi05zSJQyITwTfrw+AMrYezSpljeUZcymBLkK64BCs
eVXrxImcI3hi3oWPcJL2dt5mmQB/o96qOYkEBbxDD0WQ0rwKgXOODhD+Di5aZPqB
g9ZeBDxQgveLqLpEh0JL0MwJDLXH8Lca6XVdmPmFuaob3aIOP/zdcQ==
-----END CERTIFICATE-----

subject=/C=US/O=Test Certificates/CN=Invalid inhibitPolicyMapping EE Certificate Test5
issuer=/C=US/O=Test Certificates/CN=inhibitPolicyMapping5 subsubsubCA
-----BEGIN CERTIFICATE-----
MIICmzCCAgSgAwIBAgIBATANBgkqhkiG9w0BAQUFADBVMQswCQYDVQQGEwJVUzEa
MBgGA1UEChMRVGVzdCBDZXJ0aWZpY2F0ZXMxKjAoBgNVBAMTIWluaGliaXRQb2xp
Y3lNYXBwaW5nNSBzdWJzdWJzdWJDQTAeFw0wMTA0MTkxNDU3MjBaFw0xMTA0MTkx
NDU3MjBaMGUxCzAJBgNVBAYTAlVTMRowGAYDVQQKExFUZXN0IENlcnRpZmljYXRl
czE6MDgGA1UEAxMxSW52YWxpZCBpbmhpYml0UG9saWN5TWFwcGluZyBFRSBDZXJ0
aWZpY2F0ZSBUZXN0NTCBnzANBgkqhkiG9w0BAQEFAAOBjQAwgYkCgYEAqU2HY4J5
i4TyagwhHyTz6DgQT7GKk0xSor3iKrPjBUTpEVWM041qODnfp8RL42lhZ24okQbQ
8DoNH5dL/jtH5RsbZnfJnhHL8GDttKjLwHpRVRLbv4IlV4eQoPzTSRR7D0ishs06
PdRXDoy0+UhNcABrm3ko1gZjAcPRL/ammFMCAwEAAaNrMGkwHwYDVR0jBBgwFoAU
JLZxrVfA94Sar1a34h5IbPP9rjEwHQYDVR0OBBYEFEqYOSxfq1nokOSM2rwp2uDB
0O6pMA4GA1UdDwEB/wQEAwIE8DAXBgNVHSAEEDAOMAwGCmCGSAFlAwIBMAIwDQYJ
KoZIhvcNAQEFBQADgYEASMkNNbv9N1yfYt5C2j3Lmy5rhbrTjrEDjNCJsQ1Pun3c
qrJCtX52pGRNef3Sabh2W4jOExljobE/P45PdPw5uJtQd7YgGN58cr6wOz08SA2c
j4vAlaNjcbNW5d3sUX6LgXFOHsamawjTncegVpR7mCY8lqVjxmW9ha9NF7h6ACY=
-----END CERTIFICATE-----

subject=/C=US/O=Test Certificates/CN=inhibitPolicyMapping5 subCA
issuer=/C=US/O=Test Certificates/CN=inhibitPolicyMapping5 CA
-----BEGIN CERTIFICATE-----
MIICoDCCAgmgAwIBAgIBATANBgkqhkiG9w0BAQUFADBMMQswCQYDVQQGEwJVUzEa
MBgGA1UEChMRVGVzdCBDZXJ0aWZpY2F0ZXMxITAfBgNVBAMTGGluaGliaXRQb2xp
Y3lNYXBwaW5nNSBDQTAeFw0wMTA0MTkxNDU3MjBaFw0xMTA0MTkxNDU3MjBaME8x
CzAJBgNVBAYTAlVTMRowGAYDVQQKExFUZXN0IENlcnRpZmljYXRlczEkMCIGA1UE
AxMbaW5oaWJpdFBvbGljeU1hcHBpbmc1IHN1YkNBMIGfMA0GCSqGSIb3DQEBAQUA
A4GNADCBiQKBgQDcDskVa22gKY6hi1NN0qxc3EGcrc7Ef9QD5LomWJ0NbPF2omux
VOp4diM850F8rFaVpqHpOI6ElWc1K4PYVN+gp/sZ5V6unFR0ixzEvpsPTZa38btH
kcqGMFfxw/f5HtdvgB1dt09da6xG2UFKxnubgQuxUPEx9FcEYSCrbLq3gQIDAQAB
o4GOMIGLMB8GA1UdIwQYMBaAFEAWv3AuAjj4tq+nWtmyA0NZmPVMMB0GA1UdDgQW
BBTvkHRdvSchXG13RCZt3L/7vmNrCzAOBgNVHQ8BAf8EBAMCAQYwFwYDVR0gBBAw
DjAMBgpghkgBZQMCATABMA8GA1UdEwEB/wQFMAMBAf8wDwYDVR0kAQH/BAUwA4EB
ATANBgkqhkiG9w0BAQUFAAOBgQBNZ4dVlouj30O2fD0c418lyzVO85YIAuof3wDW
LW4XjH/r40L/BUPDyFJceZXA7Yaym+UuYLZh9RQBEtkplLkcqgezH5GT5EkefBjQ
CrQFgsqRttLQAuw03v+2I9a8vHY3u0L2puzJQ1l1GkV4gqSAgEv2YVdva0gkq7sQ
52udtw==
-----END CERTIFICATE-----

subject=/C=US/O=Test Certificates/CN=inhibitPolicyMapping5 subsubsubCA
issuer=/C=US/O=Test Certificates/CN=inhibitPolicyMapping5 subsubCA
-----BEGIN CERTIFICATE-----
MIICwzCCAiygAwIBAgIBATANBgkqhkiG9w0BAQUFADBSMQswCQYDVQQGEwJVUzEa
MBgGA1UEChMRVGVzdCBDZXJ0aWZpY2F0ZXMxJzAlBgNVBAMTHmluaGliaXRQb2xp
Y3lNYXBwaW5nNSBzdWJzdWJDQTAeFw0wMTA0MTkxNDU3MjBaFw0xMTA0MTkxNDU3
MjBaMFUxCzAJBgNVBAYTAlVTMRowGAYDVQQKExFUZXN0IENlcnRpZmljYXRlczEq
MCgGA1UEAxMhaW5oaWJpdFBvbGljeU1hcHBpbmc1IHN1YnN1YnN1YkNBMIGfMA0G
CSqGSIb3DQEBAQUAA4GNADCBiQKBgQDT9hQ7qYK6NHbsH0I4rzox6PZHPasVXKNr
Er1k+U5DVQ4tuCaZk6QEdBpLSMc4V62MtVl6mu/Zox73h6yvllHZDBuH63fEVFLc
WWCQ0TejhcMx4wp6A0TVqocawS4C1gMhOeXrYZ18ZWakU8DPVwOb23y4/zseqUt6
1tXPvs2uwQIDAQABo4GlMIGiMB8GA1UdIwQYMBaAFATfamudBEfaEUt3uvZUtFIW
lCbKMB0GA1UdDgQWBBQktnGtV8D3hJqvVrfiHkhs8/2uMTAOBgNVHQ8BAf8EBAMC
AQYwFwYDVR0gBBAwDjAMBgpghkgBZQMCATABMCYGA1UdIQEB/wQcMBowGAYKYIZI
AWUDAgEwAQYKYIZIAWUDAgEwAjAPBgNVHRMBAf8EBTADAQH/MA0GCSqGSIb3DQEB
BQUAA4GBAHwn3D10SDne03e21/XMdNEGPmNE+jCS3S12gtAPbeHa3KxqsmmuBcEv
ahsKPoF8CtAAPiLUK4M9GqwK5Vf0bsBlduOnF6vSnZQGKp9OQKOhbTfIoLSWRGIF
TtQX94lVnOBpO+qXCl+FBKm/eUGyAa6/K1s6vwVtNwW2uT1YPKe/
-----END CERTIFICATE-----

Certificate Revocation List (CRL):
        Version 2 (0x1)
        Signature Algorithm: sha1WithRSAEncryption
        Issuer: /C=US/O=Test Certificates/CN=inhibitPolicyMapping5 CA
        Last Update: Apr 19 14:57:20 2001 GMT
        Next Update: Apr 19 14:57:20 2011 GMT
        CRL extensions:
            X509v3 Authority Key Identifier: 
                keyid:40:16:BF:70:2E:02:38:F8:B6:AF:A7:5A:D9:B2:03:43:59:98:F5:4C

            X509v3 CRL Number: 
                1
No Revoked Certificates.
    Signature Algorithm: sha1WithRSAEncryption
        6f:3b:6c:aa:51:1a:cf:0c:81:3f:8c:c1:f0:60:03:0a:7f:36:
        01:0d:82:fe:71:4a:14:99:5d:f7:cd:33:30:2c:e5:11:0c:8b:
        6e:7e:79:6f:56:9a:eb:cc:20:49:44:c0:1d:33:2a:3c:52:98:
        3a:dc:32:37:d1:54:16:96:4c:b8:e5:32:39:ae:93:d5:8b:1d:
        36:06:b8:bc:05:d5:d9:71:bf:79:4f:b9:45:6d:86:50:38:b1:
        af:af:68:eb:32:c5:77:86:53:6f:d8:dc:f1:a8:bc:e2:fd:e0:
        4b:81:5b:1f:33:7f:9d:2e:45:c9:66:1d:5d:8c:da:ad:79:aa:
        8b:7f
-----BEGIN X509 CRL-----
MIIBRTCBrwIBATANBgkqhkiG9w0BAQUFADBMMQswCQYDVQQGEwJVUzEaMBgGA1UE
ChMRVGVzdCBDZXJ0aWZpY2F0ZXMxITAfBgNVBAMTGGluaGliaXRQb2xpY3lNYXBw
aW5nNSBDQRcNMDEwNDE5MTQ1NzIwWhcNMTEwNDE5MTQ1NzIwWqAvMC0wHwYDVR0j
BBgwFoAUQBa/cC4COPi2r6da2bIDQ1mY9UwwCgYDVR0UBAMCAQEwDQYJKoZIhvcN
AQEFBQADgYEAbztsqlEazwyBP4zB8GADCn82AQ2C/nFKFJld980zMCzlEQyLbn55
b1aa68wgSUTAHTMqPFKYOtwyN9FUFpZMuOUyOa6T1YsdNga4vAXV2XG/eU+5RW2G
UDixr69o6zLFd4ZTb9jc8ai84v3gS4FbHzN/nS5FyWYdXYzarXmqi38=
-----END X509 CRL-----

Certificate Revocation List (CRL):
        Version 2 (0x1)
        Signature Algorithm: sha1WithRSAEncryption
        Issuer: /C=US/O=Test Certificates/CN=inhibitPolicyMapping5 subCA
        Last Update: Apr 19 14:57:20 2001 GMT
        Next Update: Apr 19 14:57:20 2011 GMT
        CRL extensions:
            X509v3 Authority Key Identifier: 
                keyid:EF:90:74:5D:BD:27:21:5C:6D:77:44:26:6D:DC:BF:FB:BE:63:6B:0B

            X509v3 CRL Number: 
                1
No Revoked Certificates.
    Signature Algorithm: sha1WithRSAEncryption
        33:e0:23:55:35:fa:8c:e8:35:21:f8:35:28:a6:2f:57:5b:6b:
        df:3e:12:97:76:05:15:72:73:5c:da:7b:17:86:63:13:80:19:
        33:5e:c8:f6:3b:13:a1:33:e0:06:ed:1a:8e:1f:ef:8a:02:cc:
        9e:33:22:c2:b5:94:05:32:98:0e:65:71:02:c4:ae:e8:36:9d:
        81:d3:9e:24:51:01:77:ea:d1:a9:a1:e6:04:c5:62:bb:82:2a:
        7f:aa:3a:59:a6:72:48:95:07:91:ba:34:20:26:a9:d4:ef:6b:
        11:09:57:8e:64:19:29:70:77:34:92:e3:eb:82:9a:c1:ee:a9:
        83:32
-----BEGIN X509 CRL-----
MIIBSDCBsgIBATANBgkqhkiG9w0BAQUFADBPMQswCQYDVQQGEwJVUzEaMBgGA1UE
ChMRVGVzdCBDZXJ0aWZpY2F0ZXMxJDAiBgNVBAMTG2luaGliaXRQb2xpY3lNYXBw
aW5nNSBzdWJDQRcNMDEwNDE5MTQ1NzIwWhcNMTEwNDE5MTQ1NzIwWqAvMC0wHwYD
VR0jBBgwFoAU75B0Xb0nIVxtd0Qmbdy/+75jawswCgYDVR0UBAMCAQEwDQYJKoZI
hvcNAQEFBQADgYEAM+AjVTX6jOg1Ifg1KKYvV1tr3z4Sl3YFFXJzXNp7F4ZjE4AZ
M17I9jsToTPgBu0ajh/vigLMnjMiwrWUBTKYDmVxAsSu6DadgdOeJFEBd+rRqaHm
BMViu4Iqf6o6WaZySJUHkbo0ICap1O9rEQlXjmQZKXB3NJLj64Kawe6pgzI=
-----END X509 CRL-----

Certificate Revocation List (CRL):
        Version 2 (0x1)
        Signature Algorithm: sha1WithRSAEncryption
        Issuer: /C=US/O=Test Certificates/CN=inhibitPolicyMapping5 subsubCA
        Last Update: Apr 19 14:57:20 2001 GMT
        Next Update: Apr 19 14:57:20 2011 GMT
        CRL extensions:
            X509v3 Authority Key Identifier: 
                keyid:04:DF:6A:6B:9D:04:47:DA:11:4B:77:BA:F6:54:B4:52:16:94:26:CA

            X509v3 CRL Number: 
                1
No Revoked Certificates.
    Signature Algorithm: sha1WithRSAEncryption
        1c:39:2f:17:f0:d4:ca:3a:70:97:52:46:b0:ed:08:8e:3a:3a:
        92:e3:5e:f5:33:4c:73:0a:a8:14:49:ae:ca:d8:90:6f:e1:ec:
        23:36:9f:95:e8:a9:d2:b1:6c:2d:99:94:21:f2:6b:7f:98:c8:
        f4:e7:f0:a8:26:e4:58:e6:a1:f4:68:dc:10:33:a1:c6:c5:0f:
        a7:a6:7d:1b:4e:cf:6e:b7:72:71:a2:6a:d2:e5:e5:e1:b8:d7:
        88:3a:a8:d2:e7:bd:a4:ce:ff:1f:ca:f5:7e:7d:fd:2c:4c:03:
        2f:96:87:d8:4b:ba:35:a3:63:e2:87:cd:95:2e:c9:34:97:9c:
        fe:30
-----BEGIN X509 CRL-----
MIIBSzCBtQIBATANBgkqhkiG9w0BAQUFADBSMQswCQYDVQQGEwJVUzEaMBgGA1UE
ChMRVGVzdCBDZXJ0aWZpY2F0ZXMxJzAlBgNVBAMTHmluaGliaXRQb2xpY3lNYXBw
aW5nNSBzdWJzdWJDQRcNMDEwNDE5MTQ1NzIwWhcNMTEwNDE5MTQ1NzIwWqAvMC0w
HwYDVR0jBBgwFoAUBN9qa50ER9oRS3e69lS0UhaUJsowCgYDVR0UBAMCAQEwDQYJ
KoZIhvcNAQEFBQADgYEAHDkvF/DUyjpwl1JGsO0Ijjo6kuNe9TNMcwqoFEmuytiQ
b+HsIzafleip0rFsLZmUIfJrf5jI9OfwqCbkWOah9GjcEDOhxsUPp6Z9G07Pbrdy
caJq0uXl4bjXiDqo0ue9pM7/H8r1fn39LEwDL5aH2Eu6NaNj4ofNlS7JNJec/jA=
-----END X509 CRL-----

Certificate Revocation List (CRL):
        Version 2 (0x1)
        Signature Algorithm: sha1WithRSAEncryption
        Issuer: /C=US/O=Test Certificates/CN=inhibitPolicyMapping5 subsubsubCA
        Last Update: Apr 19 14:57:20 2001 GMT
        Next Update: Apr 19 14:57:20 2011 GMT
        CRL extensions:
            X509v3 Authority Key Identifier: 
                keyid:24:B6:71:AD:57:C0:F7:84:9A:AF:56:B7:E2:1E:48:6C:F3:FD:AE:31

            X509v3 CRL Number: 
                1
No Revoked Certificates.
    Signature Algorithm: sha1WithRSAEncryption
        35:d5:ce:cc:ec:10:2e:1a:1a:f7:ff:19:1f:16:bd:7e:46:c2:
        ea:f8:79:b1:36:48:74:28:e9:6a:68:59:f0:a0:32:c5:9f:64:
        f4:02:5a:bc:5c:2a:bb:62:10:2f:73:66:a7:cf:de:b7:77:26:
        1b:c8:7a:95:6a:2f:1d:e6:3e:db:1b:15:02:3b:fe:bf:e1:5f:
        3f:08:29:6b:a7:84:0a:08:46:6f:66:f3:71:84:41:97:8f:96:
        02:39:ab:ea:c3:c9:21:99:1f:6f:93:5d:19:4b:df:95:59:60:
        0a:71:2b:a9:e6:a1:bc:e0:e4:fc:5e:b4:a6:2c:99:a0:2a:76:
        cd:d4
-----BEGIN X509 CRL-----
MIIBTjCBuAIBATANBgkqhkiG9w0BAQUFADBVMQswCQYDVQQGEwJVUzEaMBgGA1UE
ChMRVGVzdCBDZXJ0aWZpY2F0ZXMxKjAoBgNVBAMTIWluaGliaXRQb2xpY3lNYXBw
aW5nNSBzdWJzdWJzdWJDQRcNMDEwNDE5MTQ1NzIwWhcNMTEwNDE5MTQ1NzIwWqAv
MC0wHwYDVR0jBBgwFoAUJLZxrVfA94Sar1a34h5IbPP9rjEwCgYDVR0UBAMCAQEw
DQYJKoZIhvcNAQEFBQADgYEANdXOzOwQLhoa9/8ZHxa9fkbC6vh5sTZIdCjpamhZ
8KAyxZ9k9AJavFwqu2IQL3Nmp8/et3cmG8h6lWovHeY+2xsVAjv+v+FfPwgpa6eE
CghGb2bzcYRBl4+WAjmr6sPJIZkfb5NdGUvflVlgCnErqeahvODk/F60piyZoCp2
zdQ=
-----END X509 CRL-----

Certificate Revocation List (CRL):
        Version 2 (0x1)
        Signature Algorithm: sha1WithRSAEncryption
        Issuer: /C=US/O=Test Certificates/CN=Trust Anchor
        Last Update: Apr 19 14:57:20 2001 GMT
        Next Update: Apr 19 14:57:20 2011 GMT
        CRL extensions:
            X509v3 Authority Key Identifier: 
                keyid:FB:6C:D4:2D:81:9E:CA:27:7A:9E:0D:B0:3C:EA:9A:BC:87:FF:49:EA

            X509v3 CRL Number: 
                1
Revoked Certificates:
    Serial Number: 68
        Revocation Date: Apr 19 14:57:20 2001 GMT
        CRL entry extensions:
            X509v3 CRL Reason Code: 
                Key Compromise
    Signature Algorithm: sha1WithRSAEncryption
        92:12:c4:34:b4:92:ab:ba:71:6b:74:31:16:ce:ed:25:d6:4b:
        1e:fa:f8:20:1e:9d:d7:7f:30:ed:15:f7:8b:5d:64:9b:dd:31:
        40:e4:55:0f:0c:5f:82:69:63:00:76:a5:cf:9e:c4:5f:f2:53:
        9b:9b:7d:f5:69:1d:74:57:38:70:e5:fb:5b:76:58:c9:ec:31:
        dc:94:1b:02:ee:9d:33:9c:38:4b:29:1d:e1:0c:29:8b:6e:c7:
        bf:a0:e8:40:34:83:cf:ff:9f:cd:b5:f7:d9:4d:a7:9f:2e:bf:
        44:98:6b:f2:d3:fe:a8:20:31:c1:33:76:b7:1c:19:65:4d:b9:
        14:39
-----BEGIN X509 CRL-----
MIIBXTCBxwIBATANBgkqhkiG9w0BAQUFADBAMQswCQYDVQQGEwJVUzEaMBgGA1UE
ChMRVGVzdCBDZXJ0aWZpY2F0ZXMxFTATBgNVBAMTDFRydXN0IEFuY2hvchcNMDEw
NDE5MTQ1NzIwWhcNMTEwNDE5MTQ1NzIwWjAiMCACAWgXDTAxMDQxOTE0NTcyMFow
DDAKBgNVHRUEAwoBAaAvMC0wHwYDVR0jBBgwFoAU+2zULYGeyid6ng2wPOqavIf/
SeowCgYDVR0UBAMCAQEwDQYJKoZIhvcNAQEFBQADgYEAkhLENLSSq7pxa3QxFs7t
JdZLHvr4IB6d138w7RX3i11km90xQORVDwxfgmljAHalz57EX/JTm5t99WkddFc4
cOX7W3ZYyewx3JQbAu6dM5w4Sykd4Qwpi27Hv6DoQDSDz/+fzbX32U2nny6/RJhr
8tP+qCAxwTN2txwZZU25FDk=
-----END X509 CRL-----

