subject=/C=US/O=Test Certificates/OU=Organizational Unit Name 1/OU=Organizational Unit Name 2/CN=Name Ordering CA
issuer=/C=US/O=Test Certificates/CN=Trust Anchor
-----BEGIN CERTIFICATE-----
MIICwTCCAiqgAwIBAgIBBjANBgkqhkiG9w0BAQUFADBAMQswCQYDVQQGEwJVUzEa
MBgGA1UEChMRVGVzdCBDZXJ0aWZpY2F0ZXMxFTATBgNVBAMTDFRydXN0IEFuY2hv
cjAeFw0wMTA0MTkxNDU3MjBaFw0xMTA0MTkxNDU3MjBaMIGOMQswCQYDVQQGEwJV
UzEaMBgGA1UEChMRVGVzdCBDZXJ0aWZpY2F0ZXMxIzAhBgNVBAsTGk9yZ2FuaXph
dGlvbmFsIFVuaXQgTmFtZSAxMSMwIQYDVQQLExpPcmdhbml6YXRpb25hbCBVbml0
IE5hbWUgMjEZMBcGA1UEAxMQTmFtZSBPcmRlcmluZyBDQTCBnzANBgkqhkiG9w0B
AQEFAAOBjQAwgYkCgYEAz4GBJOnsdl/i9wT8fK6n4zN5AHkLGLTaV9MLbBL5heti
HmMEj4t80NsHynN8WrNyxjxjeDoAnlUixCHAT6totgzgeWKumN7Pt48lWyP7K9eV
j0mJ/e0X8EYCrm1idgjBevSpFpC8sT0m7Lgo60wWBrYqKBE2OW2oLqjK2a9itJkC
AwEAAaN8MHowHwYDVR0jBBgwFoAU+2zULYGeyid6ng2wPOqavIf/SeowHQYDVR0O
BBYEFP/4JkT0Lojo+NeoS4SRoshoYlphMA4GA1UdDwEB/wQEAwIBBjAXBgNVHSAE
EDAOMAwGCmCGSAFlAwIBMAEwDwYDVR0TAQH/BAUwAwEB/zANBgkqhkiG9w0BAQUF
AAOBgQCrzt7jsc3zpys78suxiiHSl9hYrO0L3UJE4TYhMKsTdu2r1KStNCY1MA05
8U2gLxTSvnibuRTn81AHALvjm5bd3oiKFRr3ISzo9SkBx6wXO7x23f26giO4h6WR
Yjce1wWutjpvkyXJWxLqKD5eE2PVqwjujs3eiNAV0KkiQTqZkQ==
-----END CERTIFICATE-----

subject=/C=US/O=Test Certificates/CN=Invalid Name Chaining Order EE Certificate Test2
issuer=/C=US/O=Test Certificates/OU=Organizational Unit Name 2/OU=Organizational Unit Name 1/CN=Name Ordering CA
-----BEGIN CERTIFICATE-----
MIIC1DCCAj2gAwIBAgIBATANBgkqhkiG9w0BAQUFADCBjjELMAkGA1UEBhMCVVMx
GjAYBgNVBAoTEVRlc3QgQ2VydGlmaWNhdGVzMSMwIQYDVQQLExpPcmdhbml6YXRp
b25hbCBVbml0IE5hbWUgMjEjMCEGA1UECxMaT3JnYW5pemF0aW9uYWwgVW5pdCBO
YW1lIDExGTAXBgNVBAMTEE5hbWUgT3JkZXJpbmcgQ0EwHhcNMDEwNDE5MTQ1NzIw
WhcNMTEwNDE5MTQ1NzIwWjBkMQswCQYDVQQGEwJVUzEaMBgGA1UEChMRVGVzdCBD
ZXJ0aWZpY2F0ZXMxOTA3BgNVBAMTMEludmFsaWQgTmFtZSBDaGFpbmluZyBPcmRl
ciBFRSBDZXJ0aWZpY2F0ZSBUZXN0MjCBnzANBgkqhkiG9w0BAQEFAAOBjQAwgYkC
gYEAlIUiHjq7IwwwfDgHAnDwX3nPnYsaZ6Bu8w8lZNS/15MDdOmQg71tVoCIC0he
PJBMDiqwuUQ3pbgsavDR26tQnAXGzmJllHIFry4XfdUozW3Du9KUR4eFHDkgiQCj
IXj4VSgaMAXyDSGO8tQpZvweKQLreeur5220Pf3K7zabhcMCAwEAAaNrMGkwHwYD
VR0jBBgwFoAU//gmRPQuiOj416hLhJGiyGhiWmEwHQYDVR0OBBYEFEu0FDAWAxWm
n1pTTcqqIcZ0G7JJMA4GA1UdDwEB/wQEAwIE8DAXBgNVHSAEEDAOMAwGCmCGSAFl
AwIBMAEwDQYJKoZIhvcNAQEFBQADgYEAHrnqIOietTCGSRZ38iulDWfnU8JraF8Z
x0MJGiOWHh5iM21Rfwux8XyoJ022fncuDoZAsUjriRwBn3u0faPPFouOEEVMglWU
woUFoMYymfDUYmA+kavP7A4gRhSfhi4JJJHdb1AbnNkHbMfIBRSz48wsphGJEyk/
NE5gmcum3Bg=
-----END CERTIFICATE-----

Certificate Revocation List (CRL):
        Version 2 (0x1)
        Signature Algorithm: sha1WithRSAEncryption
        Issuer: /C=US/O=Test Certificates/CN=Trust Anchor
        Last Update: Apr 19 14:57:20 2001 GMT
        Next Update: Apr 19 14:57:20 2011 GMT
        CRL extensions:
            X509v3 Authority Key Identifier: 
                keyid:FB:6C:D4:2D:81:9E:CA:27:7A:9E:0D:B0:3C:EA:9A:BC:87:FF:49:EA

            X509v3 CRL Number: 
                1
Revoked Certificates:
    Serial Number: 68
        Revocation Date: Apr 19 14:57:20 2001 GMT
        CRL entry extensions:
            X509v3 CRL Reason Code: 
                Key Compromise
    Signature Algorithm: sha1WithRSAEncryption
        92:12:c4:34:b4:92:ab:ba:71:6b:74:31:16:ce:ed:25:d6:4b:
        1e:fa:f8:20:1e:9d:d7:7f:30:ed:15:f7:8b:5d:64:9b:dd:31:
        40:e4:55:0f:0c:5f:82:69:63:00:76:a5:cf:9e:c4:5f:f2:53:
        9b:9b:7d:f5:69:1d:74:57:38:70:e5:fb:5b:76:58:c9:ec:31:
        dc:94:1b:02:ee:9d:33:9c:38:4b:29:1d:e1:0c:29:8b:6e:c7:
        bf:a0:e8:40:34:83:cf:ff:9f:cd:b5:f7:d9:4d:a7:9f:2e:bf:
        44:98:6b:f2:d3:fe:a8:20:31:c1:33:76:b7:1c:19:65:4d:b9:
        14:39
-----BEGIN X509 CRL-----
MIIBXTCBxwIBATANBgkqhkiG9w0BAQUFADBAMQswCQYDVQQGEwJVUzEaMBgGA1UE
ChMRVGVzdCBDZXJ0aWZpY2F0ZXMxFTATBgNVBAMTDFRydXN0IEFuY2hvchcNMDEw
NDE5MTQ1NzIwWhcNMTEwNDE5MTQ1NzIwWjAiMCACAWgXDTAxMDQxOTE0NTcyMFow
DDAKBgNVHRUEAwoBAaAvMC0wHwYDVR0jBBgwFoAU+2zULYGeyid6ng2wPOqavIf/
SeowCgYDVR0UBAMCAQEwDQYJKoZIhvcNAQEFBQADgYEAkhLENLSSq7pxa3QxFs7t
JdZLHvr4IB6d138w7RX3i11km90xQORVDwxfgmljAHalz57EX/JTm5t99WkddFc4
cOX7W3ZYyewx3JQbAu6dM5w4Sykd4Qwpi27Hv6DoQDSDz/+fzbX32U2nny6/RJhr
8tP+qCAxwTN2txwZZU25FDk=
-----END X509 CRL-----

Certificate Revocation List (CRL):
        Version 2 (0x1)
        Signature Algorithm: sha1WithRSAEncryption
        Issuer: /C=US/O=Test Certificates/OU=Organizational Unit Name 1/OU=Organizational Unit Name 2/CN=Name Ordering CA
        Last Update: Apr 19 14:57:20 2001 GMT
        Next Update: Apr 19 14:57:20 2011 GMT
        CRL extensions:
            X509v3 Authority Key Identifier: 
                keyid:FF:F8:26:44:F4:2E:88:E8:F8:D7:A8:4B:84:91:A2:C8:68:62:5A:61

            X509v3 CRL Number: 
                1
No Revoked Certificates.
    Signature Algorithm: sha1WithRSAEncryption
        b4:c4:1d:56:f0:e3:a4:27:bc:09:13:d4:99:6e:6a:94:5c:0a:
        5e:33:09:0a:a0:6c:df:0f:3d:a5:03:15:e8:da:cd:53:10:e0:
        26:82:d4:82:34:2e:75:62:f0:8d:a5:b0:17:ba:77:e5:1c:b2:
        ca:d4:71:78:2c:fb:3c:cb:51:58:4f:1f:b8:90:22:7e:60:c1:
        60:03:64:04:58:60:3d:a8:36:c4:37:6e:b4:c1:28:0c:4d:16:
        89:5e:31:4b:1a:7d:4d:33:35:8d:0b:92:38:90:f2:70:e1:f4:
        c6:14:7e:fd:3b:9c:c2:d7:da:8f:ce:1f:6d:36:3b:ce:5e:28:
        1b:fb
-----BEGIN X509 CRL-----
MIIBiDCB8gIBATANBgkqhkiG9w0BAQUFADCBjjELMAkGA1UEBhMCVVMxGjAYBgNV
BAoTEVRlc3QgQ2VydGlmaWNhdGVzMSMwIQYDVQQLExpPcmdhbml6YXRpb25hbCBV
bml0IE5hbWUgMTEjMCEGA1UECxMaT3JnYW5pemF0aW9uYWwgVW5pdCBOYW1lIDIx
GTAXBgNVBAMTEE5hbWUgT3JkZXJpbmcgQ0EXDTAxMDQxOTE0NTcyMFoXDTExMDQx
OTE0NTcyMFqgLzAtMB8GA1UdIwQYMBaAFP/4JkT0Lojo+NeoS4SRoshoYlphMAoG
A1UdFAQDAgEBMA0GCSqGSIb3DQEBBQUAA4GBALTEHVbw46QnvAkT1JluapRcCl4z
CQqgbN8PPaUDFejazVMQ4CaC1II0LnVi8I2lsBe6d+UcssrUcXgs+zzLUVhPH7iQ
In5gwWADZARYYD2oNsQ3brTBKAxNFoleMUsafU0zNY0LkjiQ8nDh9MYUfv07nMLX
2o/OH202O85eKBv7
-----END X509 CRL-----

