subject=/C=US/O=Test Certificates/CN=keyUsage Not Critical keyCertSign False CA
issuer=/C=US/O=Test Certificates/CN=Trust Anchor
-----BEGIN CERTIFICATE-----
MIICjTCCAfagAwIBAgIBHjANBgkqhkiG9w0BAQUFADBAMQswCQYDVQQGEwJVUzEa
MBgGA1UEChMRVGVzdCBDZXJ0aWZpY2F0ZXMxFTATBgNVBAMTDFRydXN0IEFuY2hv
cjAeFw0wMTA0MTkxNDU3MjBaFw0xMTA0MTkxNDU3MjBaMF4xCzAJBgNVBAYTAlVT
MRowGAYDVQQKExFUZXN0IENlcnRpZmljYXRlczEzMDEGA1UEAxMqa2V5VXNhZ2Ug
Tm90IENyaXRpY2FsIGtleUNlcnRTaWduIEZhbHNlIENBMIGfMA0GCSqGSIb3DQEB
AQUAA4GNADCBiQKBgQCo1QPZC5T5F1L7XkkAguXC8vf9C9YbYfj8VbP8CXU6/3EG
wUPK43eDJfWBzzwk7bgumreNheNFRcFW+dcroOFvVflXXBjj/UR7qkXULMf9DqK4
dqMYYafyTrI3QrgNfdN06ngaY0qNnXa4Z58ecPAQPnQprJHJ0fDTlwultqudJQID
AQABo3kwdzAfBgNVHSMEGDAWgBT7bNQtgZ7KJ3qeDbA86pq8h/9J6jAdBgNVHQ4E
FgQU3wy5NIl1eNIjkh7wgSHfwnYXZbQwCwYDVR0PBAQDAgECMBcGA1UdIAQQMA4w
DAYKYIZIAWUDAgEwATAPBgNVHRMBAf8EBTADAQH/MA0GCSqGSIb3DQEBBQUAA4GB
AFYPjvJm9+IVM7cHs7OMJLoeNCnhUL5nlx9HuDLzP6/+0o4V3aQgiP787/zfOBFj
yWLTLfKqJTkm+8fs+TLFf675Vs2s3dPELXJLvFwgQFYDiSQpV46thD7NLw474dse
tN1i9Scl7y0RsDHbi9qBIPsRX4UV8/8nawbo9yW8hpqt
-----END CERTIFICATE-----

subject=/C=US/O=Test Certificates/CN=Invalid keyUsage Not Critical keyCertSign False EE Cert Test2
issuer=/C=US/O=Test Certificates/CN=keyUsage Not Critical keyCertSign False CA
-----BEGIN CERTIFICATE-----
MIICsDCCAhmgAwIBAgIBATANBgkqhkiG9w0BAQUFADBeMQswCQYDVQQGEwJVUzEa
MBgGA1UEChMRVGVzdCBDZXJ0aWZpY2F0ZXMxMzAxBgNVBAMTKmtleVVzYWdlIE5v
dCBDcml0aWNhbCBrZXlDZXJ0U2lnbiBGYWxzZSBDQTAeFw0wMTA0MTkxNDU3MjBa
Fw0xMTA0MTkxNDU3MjBaMHExCzAJBgNVBAYTAlVTMRowGAYDVQQKExFUZXN0IENl
cnRpZmljYXRlczFGMEQGA1UEAxM9SW52YWxpZCBrZXlVc2FnZSBOb3QgQ3JpdGlj
YWwga2V5Q2VydFNpZ24gRmFsc2UgRUUgQ2VydCBUZXN0MjCBnzANBgkqhkiG9w0B
AQEFAAOBjQAwgYkCgYEAp67g5m0ja/YdBc6nUr+UTz3XzQoajL7y9/EF7M0He7yq
nlQvh/d2kEpE3e0EUZviJtg9L9sxQRgCFWVR+f9rLpPNEBIAZ2HQ83SxFRr+UbfX
LTOLNaLhasu4lG9LY8DtyYxjrnvmOHkvTk14kD9L+YPJbR9LmCjNHbmoFiNu0Z8C
AwEAAaNrMGkwHwYDVR0jBBgwFoAU3wy5NIl1eNIjkh7wgSHfwnYXZbQwHQYDVR0O
BBYEFLkvB65lcMDXjd55uk984ACgePDSMA4GA1UdDwEB/wQEAwIE8DAXBgNVHSAE
EDAOMAwGCmCGSAFlAwIBMAEwDQYJKoZIhvcNAQEFBQADgYEAf9WmZ9PcF2mY7Fst
f0t6wDbfkMenvluK5yTnfZGZi1Xa5WFt+1ifSxYjkxTMTw4DJ5IXWRZNr40+NhCo
2dvFQbeTEh90GuwSrFOY1LoT6stxoc/OXatyOCuO4rved9tzjRAArQndpnd6Zqsd
p/cT+7yvFwM9fxMinMUy3p6rR9E=
-----END CERTIFICATE-----

Certificate Revocation List (CRL):
        Version 2 (0x1)
        Signature Algorithm: sha1WithRSAEncryption
        Issuer: /C=US/O=Test Certificates/CN=keyUsage Not Critical keyCertSign False CA
        Last Update: Apr 19 14:57:20 2001 GMT
        Next Update: Apr 19 14:57:20 2011 GMT
        CRL extensions:
            X509v3 Authority Key Identifier: 
                keyid:DF:0C:B9:34:89:75:78:D2:23:92:1E:F0:81:21:DF:C2:76:17:65:B4

            X509v3 CRL Number: 
                1
No Revoked Certificates.
    Signature Algorithm: sha1WithRSAEncryption
        9e:b2:db:db:fb:42:09:bb:05:d6:af:1d:1e:b5:2a:e7:88:75:
        f0:e6:a9:52:0d:ad:a3:4d:a6:64:06:e3:53:b4:39:db:4f:96:
        08:5d:ea:da:bb:09:d1:d6:32:53:91:62:ed:33:e9:0d:87:6c:
        f9:12:a0:4a:c5:e9:e9:6f:d5:d1:02:8f:22:9a:d7:7c:82:d2:
        17:48:0c:c3:2a:c2:d9:e5:f7:0e:77:1b:52:e7:1a:9c:2c:7d:
        5f:31:a3:aa:90:32:ca:9e:ad:42:ef:b3:9b:cd:11:da:13:36:
        7c:cb:85:48:75:59:7e:6c:03:9a:a0:70:e3:19:d4:c1:dd:c5:
        7a:3b
-----BEGIN X509 CRL-----
MIIBVzCBwQIBATANBgkqhkiG9w0BAQUFADBeMQswCQYDVQQGEwJVUzEaMBgGA1UE
ChMRVGVzdCBDZXJ0aWZpY2F0ZXMxMzAxBgNVBAMTKmtleVVzYWdlIE5vdCBDcml0
aWNhbCBrZXlDZXJ0U2lnbiBGYWxzZSBDQRcNMDEwNDE5MTQ1NzIwWhcNMTEwNDE5
MTQ1NzIwWqAvMC0wHwYDVR0jBBgwFoAU3wy5NIl1eNIjkh7wgSHfwnYXZbQwCgYD
VR0UBAMCAQEwDQYJKoZIhvcNAQEFBQADgYEAnrLb2/tCCbsF1q8dHrUq54h18Oap
Ug2to02mZAbjU7Q520+WCF3q2rsJ0dYyU5Fi7TPpDYds+RKgSsXp6W/V0QKPIprX
fILSF0gMwyrC2eX3DncbUucanCx9XzGjqpAyyp6tQu+zm80R2hM2fMuFSHVZfmwD
mqBw4xnUwd3Fejs=
-----END X509 CRL-----

Certificate Revocation List (CRL):
        Version 2 (0x1)
        Signature Algorithm: sha1WithRSAEncryption
        Issuer: /C=US/O=Test Certificates/CN=Trust Anchor
        Last Update: Apr 19 14:57:20 2001 GMT
        Next Update: Apr 19 14:57:20 2011 GMT
        CRL extensions:
            X509v3 Authority Key Identifier: 
                keyid:FB:6C:D4:2D:81:9E:CA:27:7A:9E:0D:B0:3C:EA:9A:BC:87:FF:49:EA

            X509v3 CRL Number: 
                1
Revoked Certificates:
    Serial Number: 68
        Revocation Date: Apr 19 14:57:20 2001 GMT
        CRL entry extensions:
            X509v3 CRL Reason Code: 
                Key Compromise
    Signature Algorithm: sha1WithRSAEncryption
        92:12:c4:34:b4:92:ab:ba:71:6b:74:31:16:ce:ed:25:d6:4b:
        1e:fa:f8:20:1e:9d:d7:7f:30:ed:15:f7:8b:5d:64:9b:dd:31:
        40:e4:55:0f:0c:5f:82:69:63:00:76:a5:cf:9e:c4:5f:f2:53:
        9b:9b:7d:f5:69:1d:74:57:38:70:e5:fb:5b:76:58:c9:ec:31:
        dc:94:1b:02:ee:9d:33:9c:38:4b:29:1d:e1:0c:29:8b:6e:c7:
        bf:a0:e8:40:34:83:cf:ff:9f:cd:b5:f7:d9:4d:a7:9f:2e:bf:
        44:98:6b:f2:d3:fe:a8:20:31:c1:33:76:b7:1c:19:65:4d:b9:
        14:39
-----BEGIN X509 CRL-----
MIIBXTCBxwIBATANBgkqhkiG9w0BAQUFADBAMQswCQYDVQQGEwJVUzEaMBgGA1UE
ChMRVGVzdCBDZXJ0aWZpY2F0ZXMxFTATBgNVBAMTDFRydXN0IEFuY2hvchcNMDEw
NDE5MTQ1NzIwWhcNMTEwNDE5MTQ1NzIwWjAiMCACAWgXDTAxMDQxOTE0NTcyMFow
DDAKBgNVHRUEAwoBAaAvMC0wHwYDVR0jBBgwFoAU+2zULYGeyid6ng2wPOqavIf/
SeowCgYDVR0UBAMCAQEwDQYJKoZIhvcNAQEFBQADgYEAkhLENLSSq7pxa3QxFs7t
JdZLHvr4IB6d138w7RX3i11km90xQORVDwxfgmljAHalz57EX/JTm5t99WkddFc4
cOX7W3ZYyewx3JQbAu6dM5w4Sykd4Qwpi27Hv6DoQDSDz/+fzbX32U2nny6/RJhr
8tP+qCAxwTN2txwZZU25FDk=
-----END X509 CRL-----

