subject=/C=US/O=Test Certificates/CN=nameConstraints RFC822 CA3
issuer=/C=US/O=Test Certificates/CN=Trust Anchor
-----BEGIN CERTIFICATE-----
MIICqjCCAhOgAwIBAgIBRTANBgkqhkiG9w0BAQUFADBAMQswCQYDVQQGEwJVUzEa
MBgGA1UEChMRVGVzdCBDZXJ0aWZpY2F0ZXMxFTATBgNVBAMTDFRydXN0IEFuY2hv
cjAeFw0wMTA0MTkxNDU3MjBaFw0xMTA0MTkxNDU3MjBaME4xCzAJBgNVBAYTAlVT
MRowGAYDVQQKExFUZXN0IENlcnRpZmljYXRlczEjMCEGA1UEAxMabmFtZUNvbnN0
cmFpbnRzIFJGQzgyMiBDQTMwgZ8wDQYJKoZIhvcNAQEBBQADgY0AMIGJAoGBAMii
1odFMCSlNLo+1reNBLAhQ3rkRllmPUUfznMkHE+tVOXNCuGNSPuCJPQNO5495PH/
vsBZUVltMrhOpo00ibzoFrcLwaxj5Gmb8rNV/aPwDiRX8frLslhpw+QEjxMZKP8O
bdOlItBR3dFauvxrwLz1DUUlG7aX/QoEtws/fE59AgMBAAGjgaUwgaIwHwYDVR0j
BBgwFoAU+2zULYGeyid6ng2wPOqavIf/SeowHQYDVR0OBBYEFOq3bporCYA2Z2m1
jdo1pYY9KXgcMA4GA1UdDwEB/wQEAwIBBjAXBgNVHSAEEDAOMAwGCmCGSAFlAwIB
MAEwDwYDVR0TAQH/BAUwAwEB/zAmBgNVHR4BAf8EHDAaoRgwFoEUdGVzdGNlcnRp
ZmljYXRlcy5nb3YwDQYJKoZIhvcNAQEFBQADgYEAcyB2R0h4mQZ671JhQ0r6cmPF
iaEHtdJL+REJT8yGWiERgT/2wh65vHtCierHK8+0aJ8Wy/nJzUAWcKeGESTPVTey
IxQg08VdFJIohXm1lvJ3hfzgHIcFPk2tXZvYSk3qYllYHt8tGCoyh4p3q4vpyTou
HcOOTD0ogzE9KbjD3Dk=
-----END CERTIFICATE-----

subject=/C=US/O=Test Certificates/CN=Invalid RFC822 nameConstraints EE Certificate Test26
issuer=/C=US/O=Test Certificates/CN=nameConstraints RFC822 CA3
-----BEGIN CERTIFICATE-----
MIICwzCCAiygAwIBAgIBAjANBgkqhkiG9w0BAQUFADBOMQswCQYDVQQGEwJVUzEa
MBgGA1UEChMRVGVzdCBDZXJ0aWZpY2F0ZXMxIzAhBgNVBAMTGm5hbWVDb25zdHJh
aW50cyBSRkM4MjIgQ0EzMB4XDTAxMDQxOTE0NTcyMFoXDTExMDQxOTE0NTcyMFow
aDELMAkGA1UEBhMCVVMxGjAYBgNVBAoTEVRlc3QgQ2VydGlmaWNhdGVzMT0wOwYD
VQQDEzRJbnZhbGlkIFJGQzgyMiBuYW1lQ29uc3RyYWludHMgRUUgQ2VydGlmaWNh
dGUgVGVzdDI2MIGfMA0GCSqGSIb3DQEBAQUAA4GNADCBiQKBgQC7jNtdzJgwipTJ
BBs5x+7Zode/Av/i5gvFc0vC7CQSf8VCYp5gKT5H1lXopLZt6hYd0cr+IuDRVMCU
ipwl1nRUgnh+5XOWwN83Eu4AVd8B/aAWOngoac5Th0S+Dm4jCE0MNgOEySMKDZEQ
niPNQo8/t6RyIkKxWqVbIyazMwecSwIDAQABo4GWMIGTMB8GA1UdIwQYMBaAFOq3
bporCYA2Z2m1jdo1pYY9KXgcMB0GA1UdDgQWBBSUvOjq7LDrQWg4ycgFgZma5kZn
KjAOBgNVHQ8BAf8EBAMCBPAwFwYDVR0gBBAwDjAMBgpghkgBZQMCATABMCgGA1Ud
EQQhMB+BHVRlc3QyNkVFQHRlc3RjZXJ0aWZpY2F0ZXMuZ292MA0GCSqGSIb3DQEB
BQUAA4GBAMNNCicEAT2nht/rinoSsxFccd2XKYncNITOUA/eKz2SqXcRPCimQjHn
CEfGgdPU+/Sw47+dBQ2aFNUmGyJazLIdnx18TczXpVmTIcgyUQGWOkG+RdAeSn15
kIsvSAdiDQuzrptYG9TvTicyLKcl+FuOCLN+uBJ5FutlSWvMNIpa
-----END CERTIFICATE-----

Certificate Revocation List (CRL):
        Version 2 (0x1)
        Signature Algorithm: sha1WithRSAEncryption
        Issuer: /C=US/O=Test Certificates/CN=nameConstraints RFC822 CA3
        Last Update: Apr 19 14:57:20 2001 GMT
        Next Update: Apr 19 14:57:20 2011 GMT
        CRL extensions:
            X509v3 Authority Key Identifier: 
                keyid:EA:B7:6E:9A:2B:09:80:36:67:69:B5:8D:DA:35:A5:86:3D:29:78:1C

            X509v3 CRL Number: 
                1
No Revoked Certificates.
    Signature Algorithm: sha1WithRSAEncryption
        8c:6d:0a:0a:c4:67:91:af:de:5d:89:9f:fc:df:e2:7a:7a:52:
        3e:4d:ec:50:b9:46:83:3a:7d:2d:9b:5d:84:8b:6d:ba:bf:4b:
        41:74:e3:3b:c1:90:73:a2:83:02:4f:e4:04:b8:b9:7a:70:7b:
        0c:bc:59:f7:db:83:93:00:87:98:53:43:a2:71:d5:2f:d0:fe:
        2f:c2:46:55:d5:64:54:01:90:72:4f:a2:37:dd:88:b8:3b:63:
        24:df:d3:ed:7e:6d:da:2f:57:9b:cc:d7:96:67:48:7e:a5:b0:
        6d:cb:c9:5e:e9:78:58:c6:be:f0:cc:b1:16:e3:4a:57:45:86:
        90:12
-----BEGIN X509 CRL-----
MIIBRzCBsQIBATANBgkqhkiG9w0BAQUFADBOMQswCQYDVQQGEwJVUzEaMBgGA1UE
ChMRVGVzdCBDZXJ0aWZpY2F0ZXMxIzAhBgNVBAMTGm5hbWVDb25zdHJhaW50cyBS
RkM4MjIgQ0EzFw0wMTA0MTkxNDU3MjBaFw0xMTA0MTkxNDU3MjBaoC8wLTAfBgNV
HSMEGDAWgBTqt26aKwmANmdptY3aNaWGPSl4HDAKBgNVHRQEAwIBATANBgkqhkiG
9w0BAQUFAAOBgQCMbQoKxGeRr95diZ/83+J6elI+TexQuUaDOn0tm12Ei226v0tB
dOM7wZBzooMCT+QEuLl6cHsMvFn324OTAIeYU0OicdUv0P4vwkZV1WRUAZByT6I3
3Yi4O2Mk39Ptfm3aL1ebzNeWZ0h+pbBty8le6XhYxr7wzLEW40pXRYaQEg==
-----END X509 CRL-----

Certificate Revocation List (CRL):
        Version 2 (0x1)
        Signature Algorithm: sha1WithRSAEncryption
        Issuer: /C=US/O=Test Certificates/CN=Trust Anchor
        Last Update: Apr 19 14:57:20 2001 GMT
        Next Update: Apr 19 14:57:20 2011 GMT
        CRL extensions:
            X509v3 Authority Key Identifier: 
                keyid:FB:6C:D4:2D:81:9E:CA:27:7A:9E:0D:B0:3C:EA:9A:BC:87:FF:49:EA

            X509v3 CRL Number: 
                1
Revoked Certificates:
    Serial Number: 68
        Revocation Date: Apr 19 14:57:20 2001 GMT
        CRL entry extensions:
            X509v3 CRL Reason Code: 
                Key Compromise
    Signature Algorithm: sha1WithRSAEncryption
        92:12:c4:34:b4:92:ab:ba:71:6b:74:31:16:ce:ed:25:d6:4b:
        1e:fa:f8:20:1e:9d:d7:7f:30:ed:15:f7:8b:5d:64:9b:dd:31:
        40:e4:55:0f:0c:5f:82:69:63:00:76:a5:cf:9e:c4:5f:f2:53:
        9b:9b:7d:f5:69:1d:74:57:38:70:e5:fb:5b:76:58:c9:ec:31:
        dc:94:1b:02:ee:9d:33:9c:38:4b:29:1d:e1:0c:29:8b:6e:c7:
        bf:a0:e8:40:34:83:cf:ff:9f:cd:b5:f7:d9:4d:a7:9f:2e:bf:
        44:98:6b:f2:d3:fe:a8:20:31:c1:33:76:b7:1c:19:65:4d:b9:
        14:39
-----BEGIN X509 CRL-----
MIIBXTCBxwIBATANBgkqhkiG9w0BAQUFADBAMQswCQYDVQQGEwJVUzEaMBgGA1UE
ChMRVGVzdCBDZXJ0aWZpY2F0ZXMxFTATBgNVBAMTDFRydXN0IEFuY2hvchcNMDEw
NDE5MTQ1NzIwWhcNMTEwNDE5MTQ1NzIwWjAiMCACAWgXDTAxMDQxOTE0NTcyMFow
DDAKBgNVHRUEAwoBAaAvMC0wHwYDVR0jBBgwFoAU+2zULYGeyid6ng2wPOqavIf/
SeowCgYDVR0UBAMCAQEwDQYJKoZIhvcNAQEFBQADgYEAkhLENLSSq7pxa3QxFs7t
JdZLHvr4IB6d138w7RX3i11km90xQORVDwxfgmljAHalz57EX/JTm5t99WkddFc4
cOX7W3ZYyewx3JQbAu6dM5w4Sykd4Qwpi27Hv6DoQDSDz/+fzbX32U2nny6/RJhr
8tP+qCAxwTN2txwZZU25FDk=
-----END X509 CRL-----

