subject=/C=US/O=Test Certificates/CN=Invalid requireExplicitPolicy EE Certificate Test3
issuer=/C=US/O=Test Certificates/CN=requireExplicitPolicy4 subsubsubCA
-----BEGIN CERTIFICATE-----
MIIChDCCAe2gAwIBAgIBATANBgkqhkiG9w0BAQUFADBWMQswCQYDVQQGEwJVUzEa
MBgGA1UEChMRVGVzdCBDZXJ0aWZpY2F0ZXMxKzApBgNVBAMTInJlcXVpcmVFeHBs
aWNpdFBvbGljeTQgc3Vic3Vic3ViQ0EwHhcNMDEwNDE5MTQ1NzIwWhcNMTEwNDE5
MTQ1NzIwWjBmMQswCQYDVQQGEwJVUzEaMBgGA1UEChMRVGVzdCBDZXJ0aWZpY2F0
ZXMxOzA5BgNVBAMTMkludmFsaWQgcmVxdWlyZUV4cGxpY2l0UG9saWN5IEVFIENl
cnRpZmljYXRlIFRlc3QzMIGfMA0GCSqGSIb3DQEBAQUAA4GNADCBiQKBgQDFGGwB
xudAxGlVkjikIYygmyMRqHU1E/QoVNlt9Ebezg0wLbnUUkCIPw2HMIMfbDIHeaJN
eOaIwT3f4QVMET9H4tp5gWQOKRBl8Lj3Qted/du3ZnX85zwGimmHpE5HPLUus1xJ
FEDvx8tiCGFe/MThjl7mwPANLHMWEQN0JqJhNwIDAQABo1IwUDAfBgNVHSMEGDAW
gBT3hCvdsfuVH7p6WmLgczEWsirIeTAdBgNVHQ4EFgQUT4ePIvuBwyFLywgAVQDh
kO/dvOwwDgYDVR0PAQH/BAQDAgTwMA0GCSqGSIb3DQEBBQUAA4GBAJkkSBpAtETJ
/dkW/B+frVBgw9yRjQ5r03xtGarbShYju5enZfbWEg2t8HkbDzyw3b0Upp8GcSyX
zrbFBiGyo2hxjN8U6j5w+MCd9NJtGEW1C2O8m3S2uP44Zi0rTALMCI1thhoiDezC
+To+oSu15R1fOkNPNHwlpaFpryy8ZJM2
-----END CERTIFICATE-----

subject=/C=US/O=Test Certificates/CN=requireExplicitPolicy4 subCA
issuer=/C=US/O=Test Certificates/CN=requireExplicitPolicy4 CA
-----BEGIN CERTIFICATE-----
MIICjzCCAfigAwIBAgIBATANBgkqhkiG9w0BAQUFADBNMQswCQYDVQQGEwJVUzEa
MBgGA1UEChMRVGVzdCBDZXJ0aWZpY2F0ZXMxIjAgBgNVBAMTGXJlcXVpcmVFeHBs
aWNpdFBvbGljeTQgQ0EwHhcNMDEwNDE5MTQ1NzIwWhcNMTEwNDE5MTQ1NzIwWjBQ
MQswCQYDVQQGEwJVUzEaMBgGA1UEChMRVGVzdCBDZXJ0aWZpY2F0ZXMxJTAjBgNV
BAMTHHJlcXVpcmVFeHBsaWNpdFBvbGljeTQgc3ViQ0EwgZ8wDQYJKoZIhvcNAQEB
BQADgY0AMIGJAoGBAKa5BuVP6ndJvlLbsZTTbB4nvZWYbY2Ihc7C5sly521U1EBj
aLheGs9ObXh32aFJ3kZQuAj8VpBEakL9zChjwFkBU7dEWO9OQFf8NV+RD01i6c7g
NquatLdDUmTvS16/E23aZBNa9jDAQ4nQffOf/cx06GbvOBF80dnNnM8TXve5AgMB
AAGjfDB6MB8GA1UdIwQYMBaAFCV+kLQN0LLzwRNH8EF577JC5jX7MB0GA1UdDgQW
BBQjYThxLAlhvqK819WJ1thQPr3rxTAOBgNVHQ8BAf8EBAMCAQYwFwYDVR0gBBAw
DjAMBgpghkgBZQMCATABMA8GA1UdEwEB/wQFMAMBAf8wDQYJKoZIhvcNAQEFBQAD
gYEAzVx4zKfg2OZPg4KGdTVJSzYGD69T0AfuFdTI101IvDNbKuc2SEmpmul33Px4
z5gMKCZsIpsVXzf4rm6kuxl89PofVdztUuHIivKy5gr4iBt07YDmUNZZfl86CPoF
7aARp2XRQ0rJCbF1RU0YVWZRyn//oFYyY49Bq1aDelri0WM=
-----END CERTIFICATE-----

subject=/C=US/O=Test Certificates/CN=requireExplicitPolicy4 CA
issuer=/C=US/O=Test Certificates/CN=Trust Anchor
-----BEGIN CERTIFICATE-----
MIICkjCCAfugAwIBAgIBLDANBgkqhkiG9w0BAQUFADBAMQswCQYDVQQGEwJVUzEa
MBgGA1UEChMRVGVzdCBDZXJ0aWZpY2F0ZXMxFTATBgNVBAMTDFRydXN0IEFuY2hv
cjAeFw0wMTA0MTkxNDU3MjBaFw0xMTA0MTkxNDU3MjBaME0xCzAJBgNVBAYTAlVT
MRowGAYDVQQKExFUZXN0IENlcnRpZmljYXRlczEiMCAGA1UEAxMZcmVxdWlyZUV4
cGxpY2l0UG9saWN5NCBDQTCBnzANBgkqhkiG9w0BAQEFAAOBjQAwgYkCgYEA5LYa
vXx/4T4pOwg2eV0ZZmBRTcjTivfmUhGf4t3BjAXalsDsWFkwmVCVg0jnQW4iuT3s
a3lq9JO4ZUMcejACcPBO0AyXyrTo6DjXDy7Snf89AIpyDx/ct/WqvnO07ceHwTDO
CZY11pYLMerONqANweAyCKsio69S35piBx1QqmcCAwEAAaOBjjCBizAfBgNVHSME
GDAWgBT7bNQtgZ7KJ3qeDbA86pq8h/9J6jAdBgNVHQ4EFgQUJX6QtA3QsvPBE0fw
QXnvskLmNfswDgYDVR0PAQH/BAQDAgEGMBcGA1UdIAQQMA4wDAYKYIZIAWUDAgEw
ATAPBgNVHRMBAf8EBTADAQH/MA8GA1UdJAEB/wQFMAOAAQQwDQYJKoZIhvcNAQEF
BQADgYEAPUNGMb0+cubTj0DAP3jW3mlPGZeGtc6jDLe/Fdrf30Au88GX5G2FJTql
/I7wFlUgHTGQyHF3Zad9Qfzf6+dO0j9RhlEqgCk5+FqFsboPQ9E8rtCrABUUuovD
RgkPDAKZsSLR7uQBUDgk0A3OqN1UpiMKKxFz1O1ya8u1DgGWxJU=
-----END CERTIFICATE-----

subject=/C=US/O=Test Certificates/CN=requireExplicitPolicy4 subsubCA
issuer=/C=US/O=Test Certificates/CN=requireExplicitPolicy4 subCA
-----BEGIN CERTIFICATE-----
MIIClTCCAf6gAwIBAgIBATANBgkqhkiG9w0BAQUFADBQMQswCQYDVQQGEwJVUzEa
MBgGA1UEChMRVGVzdCBDZXJ0aWZpY2F0ZXMxJTAjBgNVBAMTHHJlcXVpcmVFeHBs
aWNpdFBvbGljeTQgc3ViQ0EwHhcNMDEwNDE5MTQ1NzIwWhcNMTEwNDE5MTQ1NzIw
WjBTMQswCQYDVQQGEwJVUzEaMBgGA1UEChMRVGVzdCBDZXJ0aWZpY2F0ZXMxKDAm
BgNVBAMTH3JlcXVpcmVFeHBsaWNpdFBvbGljeTQgc3Vic3ViQ0EwgZ8wDQYJKoZI
hvcNAQEBBQADgY0AMIGJAoGBANF3obVmdl9+Tj44uOFKTDkrdPu/AlUyitHu0YQC
vsUY7GjYy3dKjm70g7hQfnCtA3XIwm3H1a36Wo41R0Dvj8QJ/8qPhQNejONRzBzB
jnXx2Lr+bfh3zxebwgUmDyzCkPXj8tjFerVTpxc8aAgfWcSLD6xK9h5OtKy17aME
zZ9zAgMBAAGjfDB6MB8GA1UdIwQYMBaAFCNhOHEsCWG+orzX1YnW2FA+vevFMB0G
A1UdDgQWBBS+bKwACUxTlLgb5MIRkSOlqwdjCDAOBgNVHQ8BAf8EBAMCAQYwFwYD
VR0gBBAwDjAMBgpghkgBZQMCATABMA8GA1UdEwEB/wQFMAMBAf8wDQYJKoZIhvcN
AQEFBQADgYEAF1/+ajWFOu2Im9slgmi4YnPnqk5oWYqOrOh3yAR44wEchHfHD74/
ed+jlGZewF+V4QotdYoG8dnld7lbYZzkdtTxcOUr4k/aUgml3yTeb5O8rBXNXytN
JqEKXEp/ggaG4rKzUyA8zwYm9fIjG1jL0KU/1L9JSMzmwJAmR6aIq0Q=
-----END CERTIFICATE-----

subject=/C=US/O=Test Certificates/CN=requireExplicitPolicy4 subsubsubCA
issuer=/C=US/O=Test Certificates/CN=requireExplicitPolicy4 subsubCA
-----BEGIN CERTIFICATE-----
MIICmzCCAgSgAwIBAgIBATANBgkqhkiG9w0BAQUFADBTMQswCQYDVQQGEwJVUzEa
MBgGA1UEChMRVGVzdCBDZXJ0aWZpY2F0ZXMxKDAmBgNVBAMTH3JlcXVpcmVFeHBs
aWNpdFBvbGljeTQgc3Vic3ViQ0EwHhcNMDEwNDE5MTQ1NzIwWhcNMTEwNDE5MTQ1
NzIwWjBWMQswCQYDVQQGEwJVUzEaMBgGA1UEChMRVGVzdCBDZXJ0aWZpY2F0ZXMx
KzApBgNVBAMTInJlcXVpcmVFeHBsaWNpdFBvbGljeTQgc3Vic3Vic3ViQ0EwgZ8w
DQYJKoZIhvcNAQEBBQADgY0AMIGJAoGBALjYqyTd452AWgD9QeSfn+Exc56nVJkK
dx0FEleM5YEqeEUl33GTd7FRwtkYdznsQzeFYOWbWluYE5Gl3DapcqpMlu2PQmo6
dZMbzh1Bi2yahE1wWmY15NSjOz3TFAJBZRZk0PgxvohpdPP8LLCwA9zQUlTnpG7D
LBESzn390XCLAgMBAAGjfDB6MB8GA1UdIwQYMBaAFL5srAAJTFOUuBvkwhGRI6Wr
B2MIMB0GA1UdDgQWBBT3hCvdsfuVH7p6WmLgczEWsirIeTAOBgNVHQ8BAf8EBAMC
AQYwFwYDVR0gBBAwDjAMBgpghkgBZQMCATABMA8GA1UdEwEB/wQFMAMBAf8wDQYJ
KoZIhvcNAQEFBQADgYEAJzvxMRdZl5IWypM7YNiMcWqk7GpMuRvozUyoRQq8cA+z
fdskZk75lh97jsW2RFnP/fyA30/5NAfVuD2R8+TqJaF28jgHOnU/6qTcM5sxnRJ0
h+icRKt6II8LNfWUQ1zv+pBxfuy/yOrYpw7/7ba2Zeson/cLpa0dhLFNCGEkfbs=
-----END CERTIFICATE-----

Certificate Revocation List (CRL):
        Version 2 (0x1)
        Signature Algorithm: sha1WithRSAEncryption
        Issuer: /C=US/O=Test Certificates/CN=requireExplicitPolicy4 CA
        Last Update: Apr 19 14:57:20 2001 GMT
        Next Update: Apr 19 14:57:20 2011 GMT
        CRL extensions:
            X509v3 Authority Key Identifier: 
                keyid:25:7E:90:B4:0D:D0:B2:F3:C1:13:47:F0:41:79:EF:B2:42:E6:35:FB

            X509v3 CRL Number: 
                1
No Revoked Certificates.
    Signature Algorithm: sha1WithRSAEncryption
        98:e7:69:c4:4c:c3:6b:08:80:30:4c:81:3c:d8:b3:06:88:91:
        e8:a3:c5:d3:c0:35:51:35:f0:16:8e:38:0f:b3:e6:26:20:d1:
        45:39:1a:a9:08:be:f0:5f:e1:00:8c:a6:91:54:ff:ec:32:bd:
        e2:17:92:a3:41:f3:c0:fc:e0:84:86:54:18:ff:b5:89:9d:15:
        e9:a9:92:a8:96:a7:4e:97:02:2e:d5:e5:e5:f7:70:5a:1e:5d:
        d2:6f:40:34:f5:c6:63:65:5b:85:c9:b7:6a:4b:60:5a:76:35:
        12:01:1c:80:59:9a:d3:1a:a7:27:7d:f4:f8:00:ea:b7:f1:3a:
        62:e6
-----BEGIN X509 CRL-----
MIIBRjCBsAIBATANBgkqhkiG9w0BAQUFADBNMQswCQYDVQQGEwJVUzEaMBgGA1UE
ChMRVGVzdCBDZXJ0aWZpY2F0ZXMxIjAgBgNVBAMTGXJlcXVpcmVFeHBsaWNpdFBv
bGljeTQgQ0EXDTAxMDQxOTE0NTcyMFoXDTExMDQxOTE0NTcyMFqgLzAtMB8GA1Ud
IwQYMBaAFCV+kLQN0LLzwRNH8EF577JC5jX7MAoGA1UdFAQDAgEBMA0GCSqGSIb3
DQEBBQUAA4GBAJjnacRMw2sIgDBMgTzYswaIkeijxdPANVE18BaOOA+z5iYg0UU5
GqkIvvBf4QCMppFU/+wyveIXkqNB88D84ISGVBj/tYmdFempkqiWp06XAi7V5eX3
cFoeXdJvQDT1xmNlW4XJt2pLYFp2NRIBHIBZmtMapyd99PgA6rfxOmLm
-----END X509 CRL-----

Certificate Revocation List (CRL):
        Version 2 (0x1)
        Signature Algorithm: sha1WithRSAEncryption
        Issuer: /C=US/O=Test Certificates/CN=requireExplicitPolicy4 subCA
        Last Update: Apr 19 14:57:20 2001 GMT
        Next Update: Apr 19 14:57:20 2011 GMT
        CRL extensions:
            X509v3 Authority Key Identifier: 
                keyid:23:61:38:71:2C:09:61:BE:A2:BC:D7:D5:89:D6:D8:50:3E:BD:EB:C5

            X509v3 CRL Number: 
                1
No Revoked Certificates.
    Signature Algorithm: sha1WithRSAEncryption
        a3:9c:67:02:44:57:a0:9d:d2:78:46:fb:e7:76:bb:66:cc:60:
        1c:2c:7a:7e:d6:ec:a4:c2:4d:2c:51:8a:97:1a:e2:c2:7a:0e:
        e7:7b:4d:79:49:c2:6c:a2:b7:a5:e1:74:64:9a:03:f5:7a:5d:
        cc:18:2e:25:dd:a2:fd:84:03:ae:d8:cf:1d:17:ea:fa:59:77:
        9e:22:3b:7e:97:f5:74:12:34:71:c1:10:6a:4b:03:6e:92:d0:
        a9:6d:cd:ca:5f:69:7f:c8:b0:b5:97:78:5f:14:b1:34:d3:30:
        09:36:f3:03:2e:dd:01:52:33:61:2c:8d:cf:74:01:71:47:9e:
        f4:66
-----BEGIN X509 CRL-----
MIIBSTCBswIBATANBgkqhkiG9w0BAQUFADBQMQswCQYDVQQGEwJVUzEaMBgGA1UE
ChMRVGVzdCBDZXJ0aWZpY2F0ZXMxJTAjBgNVBAMTHHJlcXVpcmVFeHBsaWNpdFBv
bGljeTQgc3ViQ0EXDTAxMDQxOTE0NTcyMFoXDTExMDQxOTE0NTcyMFqgLzAtMB8G
A1UdIwQYMBaAFCNhOHEsCWG+orzX1YnW2FA+vevFMAoGA1UdFAQDAgEBMA0GCSqG
SIb3DQEBBQUAA4GBAKOcZwJEV6Cd0nhG++d2u2bMYBwsen7W7KTCTSxRipca4sJ6
Dud7TXlJwmyit6XhdGSaA/V6XcwYLiXdov2EA67Yzx0X6vpZd54iO36X9XQSNHHB
EGpLA26S0KltzcpfaX/IsLWXeF8UsTTTMAk28wMu3QFSM2Esjc90AXFHnvRm
-----END X509 CRL-----

Certificate Revocation List (CRL):
        Version 2 (0x1)
        Signature Algorithm: sha1WithRSAEncryption
        Issuer: /C=US/O=Test Certificates/CN=requireExplicitPolicy4 subsubCA
        Last Update: Apr 19 14:57:20 2001 GMT
        Next Update: Apr 19 14:57:20 2011 GMT
        CRL extensions:
            X509v3 Authority Key Identifier: 
                keyid:BE:6C:AC:00:09:4C:53:94:B8:1B:E4:C2:11:91:23:A5:AB:07:63:08

            X509v3 CRL Number: 
                1
No Revoked Certificates.
    Signature Algorithm: sha1WithRSAEncryption
        84:fa:09:1f:fe:84:d0:14:26:86:5c:37:6b:2c:31:aa:04:7a:
        22:84:ec:b0:df:99:15:99:f0:b7:e9:d6:fc:70:9a:8f:4f:50:
        d5:24:28:0b:12:79:90:85:69:a3:56:ca:0e:16:79:5e:77:d3:
        7a:62:9f:14:58:8a:d5:7d:de:e2:6f:a4:0f:d1:2e:27:ec:25:
        82:a2:91:67:0b:44:39:cc:b2:e5:21:49:ac:25:2c:91:df:33:
        95:1d:08:6e:ab:8d:8b:fc:2a:59:7b:8d:5d:c2:68:90:c2:a7:
        06:00:26:e0:cd:40:6e:f3:37:1f:37:61:f6:6a:50:a1:dd:92:
        53:fe
-----BEGIN X509 CRL-----
MIIBTDCBtgIBATANBgkqhkiG9w0BAQUFADBTMQswCQYDVQQGEwJVUzEaMBgGA1UE
ChMRVGVzdCBDZXJ0aWZpY2F0ZXMxKDAmBgNVBAMTH3JlcXVpcmVFeHBsaWNpdFBv
bGljeTQgc3Vic3ViQ0EXDTAxMDQxOTE0NTcyMFoXDTExMDQxOTE0NTcyMFqgLzAt
MB8GA1UdIwQYMBaAFL5srAAJTFOUuBvkwhGRI6WrB2MIMAoGA1UdFAQDAgEBMA0G
CSqGSIb3DQEBBQUAA4GBAIT6CR/+hNAUJoZcN2ssMaoEeiKE7LDfmRWZ8Lfp1vxw
mo9PUNUkKAsSeZCFaaNWyg4WeV5303pinxRYitV93uJvpA/RLifsJYKikWcLRDnM
suUhSawlLJHfM5UdCG6rjYv8Kll7jV3CaJDCpwYAJuDNQG7zNx83YfZqUKHdklP+
-----END X509 CRL-----

Certificate Revocation List (CRL):
        Version 2 (0x1)
        Signature Algorithm: sha1WithRSAEncryption
        Issuer: /C=US/O=Test Certificates/CN=requireExplicitPolicy4 subsubsubCA
        Last Update: Apr 19 14:57:20 2001 GMT
        Next Update: Apr 19 14:57:20 2011 GMT
        CRL extensions:
            X509v3 Authority Key Identifier: 
                keyid:F7:84:2B:DD:B1:FB:95:1F:BA:7A:5A:62:E0:73:31:16:B2:2A:C8:79

            X509v3 CRL Number: 
                1
No Revoked Certificates.
    Signature Algorithm: sha1WithRSAEncryption
        05:e0:f0:e8:75:5d:d6:4f:dc:29:ea:db:22:b6:bb:72:13:f1:
        ff:b5:e0:03:31:9c:64:d9:3b:2b:4d:78:f7:5e:ab:0b:e5:82:
        13:7e:61:18:95:79:42:bb:9d:56:78:dd:9a:01:92:5e:0b:e8:
        fa:78:b3:b3:e2:4a:9e:d7:d1:30:60:03:7d:31:e4:04:13:61:
        a0:de:ac:e9:0e:a0:97:16:aa:03:81:40:56:de:36:a8:e2:13:
        45:f6:08:72:c2:4e:d3:2d:55:25:9e:0c:dd:da:40:82:d8:75:
        01:44:75:35:92:92:fc:79:bb:d8:b1:54:83:7f:ff:13:da:df:
        11:ea
-----BEGIN X509 CRL-----
MIIBTzCBuQIBATANBgkqhkiG9w0BAQUFADBWMQswCQYDVQQGEwJVUzEaMBgGA1UE
ChMRVGVzdCBDZXJ0aWZpY2F0ZXMxKzApBgNVBAMTInJlcXVpcmVFeHBsaWNpdFBv
bGljeTQgc3Vic3Vic3ViQ0EXDTAxMDQxOTE0NTcyMFoXDTExMDQxOTE0NTcyMFqg
LzAtMB8GA1UdIwQYMBaAFPeEK92x+5UfunpaYuBzMRayKsh5MAoGA1UdFAQDAgEB
MA0GCSqGSIb3DQEBBQUAA4GBAAXg8Oh1XdZP3Cnq2yK2u3IT8f+14AMxnGTZOytN
ePdeqwvlghN+YRiVeUK7nVZ43ZoBkl4L6Pp4s7PiSp7X0TBgA30x5AQTYaDerOkO
oJcWqgOBQFbeNqjiE0X2CHLCTtMtVSWeDN3aQILYdQFEdTWSkvx5u9ixVIN//xPa
3xHq
-----END X509 CRL-----

Certificate Revocation List (CRL):
        Version 2 (0x1)
        Signature Algorithm: sha1WithRSAEncryption
        Issuer: /C=US/O=Test Certificates/CN=Trust Anchor
        Last Update: Apr 19 14:57:20 2001 GMT
        Next Update: Apr 19 14:57:20 2011 GMT
        CRL extensions:
            X509v3 Authority Key Identifier: 
                keyid:FB:6C:D4:2D:81:9E:CA:27:7A:9E:0D:B0:3C:EA:9A:BC:87:FF:49:EA

            X509v3 CRL Number: 
                1
Revoked Certificates:
    Serial Number: 68
        Revocation Date: Apr 19 14:57:20 2001 GMT
        CRL entry extensions:
            X509v3 CRL Reason Code: 
                Key Compromise
    Signature Algorithm: sha1WithRSAEncryption
        92:12:c4:34:b4:92:ab:ba:71:6b:74:31:16:ce:ed:25:d6:4b:
        1e:fa:f8:20:1e:9d:d7:7f:30:ed:15:f7:8b:5d:64:9b:dd:31:
        40:e4:55:0f:0c:5f:82:69:63:00:76:a5:cf:9e:c4:5f:f2:53:
        9b:9b:7d:f5:69:1d:74:57:38:70:e5:fb:5b:76:58:c9:ec:31:
        dc:94:1b:02:ee:9d:33:9c:38:4b:29:1d:e1:0c:29:8b:6e:c7:
        bf:a0:e8:40:34:83:cf:ff:9f:cd:b5:f7:d9:4d:a7:9f:2e:bf:
        44:98:6b:f2:d3:fe:a8:20:31:c1:33:76:b7:1c:19:65:4d:b9:
        14:39
-----BEGIN X509 CRL-----
MIIBXTCBxwIBATANBgkqhkiG9w0BAQUFADBAMQswCQYDVQQGEwJVUzEaMBgGA1UE
ChMRVGVzdCBDZXJ0aWZpY2F0ZXMxFTATBgNVBAMTDFRydXN0IEFuY2hvchcNMDEw
NDE5MTQ1NzIwWhcNMTEwNDE5MTQ1NzIwWjAiMCACAWgXDTAxMDQxOTE0NTcyMFow
DDAKBgNVHRUEAwoBAaAvMC0wHwYDVR0jBBgwFoAU+2zULYGeyid6ng2wPOqavIf/
SeowCgYDVR0UBAMCAQEwDQYJKoZIhvcNAQEFBQADgYEAkhLENLSSq7pxa3QxFs7t
JdZLHvr4IB6d138w7RX3i11km90xQORVDwxfgmljAHalz57EX/JTm5t99WkddFc4
cOX7W3ZYyewx3JQbAu6dM5w4Sykd4Qwpi27Hv6DoQDSDz/+fzbX32U2nny6/RJhr
8tP+qCAxwTN2txwZZU25FDk=
-----END X509 CRL-----

