subject=/C=US/O=Test Certificates/CN=Separate Certificate and CRL Keys CA1
issuer=/C=US/O=Test Certificates/CN=Trust Anchor
-----BEGIN CERTIFICATE-----
MIICejCCAeOgAwIBAgIBZjANBgkqhkiG9w0BAQUFADBAMQswCQYDVQQGEwJVUzEa
MBgGA1UEChMRVGVzdCBDZXJ0aWZpY2F0ZXMxFTATBgNVBAMTDFRydXN0IEFuY2hv
cjAeFw0wMTA0MTkxNDU3MjBaFw0xMTA0MTkxNDU3MjBaMFkxCzAJBgNVBAYTAlVT
MRowGAYDVQQKExFUZXN0IENlcnRpZmljYXRlczEuMCwGA1UEAxMlU2VwYXJhdGUg
Q2VydGlmaWNhdGUgYW5kIENSTCBLZXlzIENBMTCBnzANBgkqhkiG9w0BAQEFAAOB
jQAwgYkCgYEAzpVbQYnufknoy1tKbCSY840pKcfP2S+jFm6OFC9hzkLFn9uiYzCV
rCjczQI8lFfM/4p9rUApMIgp4IUAxCOEcgJuKPKmiuoTwPD9XxbmZ/uv+iaLXqF+
QVcbDGouj0z6RMNz3KGtf0pbgg+/+/wIK4c0XOIM9wTSK0aJVqweAnECAwEAAaNr
MGkwHwYDVR0jBBgwFoAU+2zULYGeyid6ng2wPOqavIf/SeowHQYDVR0OBBYEFIr9
Qil7WXhSSvdIHHG3xHGKplfbMA4GA1UdDwEB/wQEAwIBAjAXBgNVHSAEEDAOMAwG
CmCGSAFlAwIBMAEwDQYJKoZIhvcNAQEFBQADgYEAo0h6slmGQJsCsth+yeyOMK3j
2CqJ9gEajx3fWs7x2JJ8LM4zfbFFYctGPKpXdGRBTO8Dj9lQJCr7i1IMMHTitTa/
xpjn8E0SQgzvkB/0BnSt7DiwV0LXCdtBlLxOS2Fw9NdvbE7jsuBK2W4KDOPElhHJ
TKQ0T3TjKv8gwxTq8mw=
-----END CERTIFICATE-----

subject=/C=US/O=Test Certificates/CN=Separate Certificate and CRL Keys CA1
issuer=/C=US/O=Test Certificates/CN=Trust Anchor
-----BEGIN CERTIFICATE-----
MIICizCCAfSgAwIBAgIBZTANBgkqhkiG9w0BAQUFADBAMQswCQYDVQQGEwJVUzEa
MBgGA1UEChMRVGVzdCBDZXJ0aWZpY2F0ZXMxFTATBgNVBAMTDFRydXN0IEFuY2hv
cjAeFw0wMTA0MTkxNDU3MjBaFw0xMTA0MTkxNDU3MjBaMFkxCzAJBgNVBAYTAlVT
MRowGAYDVQQKExFUZXN0IENlcnRpZmljYXRlczEuMCwGA1UEAxMlU2VwYXJhdGUg
Q2VydGlmaWNhdGUgYW5kIENSTCBLZXlzIENBMTCBnzANBgkqhkiG9w0BAQEFAAOB
jQAwgYkCgYEAtI4Yuumg8WznOojgeWHVZxG23imfdB9ntiQccDxAnvywEfQv6Vlq
HNVQ5vsVQfvfUZCad2Nbf42DHRtpmVhlxIhKBjoNu/m6xdvz/A6/kvDvrEg+7M7N
A2ZRVI0T3Z/mMaPuLHuCzKwU20TF6NonxgZXIbATrppAqRUfSY+UQCsCAwEAAaN8
MHowHwYDVR0jBBgwFoAU+2zULYGeyid6ng2wPOqavIf/SeowHQYDVR0OBBYEFJtc
UbwiJzEiQJQJJf/Pg3mto4EZMA4GA1UdDwEB/wQEAwICBDAXBgNVHSAEEDAOMAwG
CmCGSAFlAwIBMAEwDwYDVR0TAQH/BAUwAwEB/zANBgkqhkiG9w0BAQUFAAOBgQBs
BZsxRaZk1qx3balE6qmVZd7jG6C9Gg/n+I5QfXR75ZIus+0Y6GAviBzywvJ8CDZ3
kIOOrYolpnycedLS17Jnv4D/IDP6OwvmT6/0XvforKDQlmAk6ioJBRAwHRDYHBZg
lj8FXyMNUS313Un0l2FXJBhfJNBqb1ZqYwWcmJ2t+w==
-----END CERTIFICATE-----

subject=/C=US/O=Test Certificates/CN=Invalid Separate Certificate and CRL Keys EE Certificate Test20
issuer=/C=US/O=Test Certificates/CN=Separate Certificate and CRL Keys CA1
-----BEGIN CERTIFICATE-----
MIICrTCCAhagAwIBAgIBAjANBgkqhkiG9w0BAQUFADBZMQswCQYDVQQGEwJVUzEa
MBgGA1UEChMRVGVzdCBDZXJ0aWZpY2F0ZXMxLjAsBgNVBAMTJVNlcGFyYXRlIENl
cnRpZmljYXRlIGFuZCBDUkwgS2V5cyBDQTEwHhcNMDEwNDE5MTQ1NzIwWhcNMTEw
NDE5MTQ1NzIwWjBzMQswCQYDVQQGEwJVUzEaMBgGA1UEChMRVGVzdCBDZXJ0aWZp
Y2F0ZXMxSDBGBgNVBAMTP0ludmFsaWQgU2VwYXJhdGUgQ2VydGlmaWNhdGUgYW5k
IENSTCBLZXlzIEVFIENlcnRpZmljYXRlIFRlc3QyMDCBnzANBgkqhkiG9w0BAQEF
AAOBjQAwgYkCgYEA19qbNR+soft39JVcTiKn2OTKmaGswAGUpi1lZGYOE4O7xiq9
FIlSEq2xDeNXvcOEx0GFhZxKefbPzGp8mxtaGpfnV17G1SS/dCxeGZL4D8FUGlzg
Q0GmhbMZvgroxNvGQD6X/+kdpA34fc6mtgHcR94KE+O5sYTKO4MhqLczr7cCAwEA
AaNrMGkwHwYDVR0jBBgwFoAUm1xRvCInMSJAlAkl/8+Dea2jgRkwHQYDVR0OBBYE
FDep7bd0aDt8e8YpJLYhvRpdGYqPMA4GA1UdDwEB/wQEAwIE8DAXBgNVHSAEEDAO
MAwGCmCGSAFlAwIBMAEwDQYJKoZIhvcNAQEFBQADgYEAAMSu/B2VpmHV3q3fxUJ3
7MbeT000oqwthzAG8xJUMten8hTYui0iB5EdxQXBnai07+ZHPBKZVSu6kya/W/zU
PbSkjS5Agq5eVUDUjCnuVkjOwQsZGA4V86i3oLxyrYeUgmxUSl2/O2tbonLm2u7o
jkncAUpUj+Sk1N2wFIiBenI=
-----END CERTIFICATE-----

Certificate Revocation List (CRL):
        Version 2 (0x1)
        Signature Algorithm: sha1WithRSAEncryption
        Issuer: /C=US/O=Test Certificates/CN=Trust Anchor
        Last Update: Apr 19 14:57:20 2001 GMT
        Next Update: Apr 19 14:57:20 2011 GMT
        CRL extensions:
            X509v3 Authority Key Identifier: 
                keyid:FB:6C:D4:2D:81:9E:CA:27:7A:9E:0D:B0:3C:EA:9A:BC:87:FF:49:EA

            X509v3 CRL Number: 
                1
Revoked Certificates:
    Serial Number: 68
        Revocation Date: Apr 19 14:57:20 2001 GMT
        CRL entry extensions:
            X509v3 CRL Reason Code: 
                Key Compromise
    Signature Algorithm: sha1WithRSAEncryption
        92:12:c4:34:b4:92:ab:ba:71:6b:74:31:16:ce:ed:25:d6:4b:
        1e:fa:f8:20:1e:9d:d7:7f:30:ed:15:f7:8b:5d:64:9b:dd:31:
        40:e4:55:0f:0c:5f:82:69:63:00:76:a5:cf:9e:c4:5f:f2:53:
        9b:9b:7d:f5:69:1d:74:57:38:70:e5:fb:5b:76:58:c9:ec:31:
        dc:94:1b:02:ee:9d:33:9c:38:4b:29:1d:e1:0c:29:8b:6e:c7:
        bf:a0:e8:40:34:83:cf:ff:9f:cd:b5:f7:d9:4d:a7:9f:2e:bf:
        44:98:6b:f2:d3:fe:a8:20:31:c1:33:76:b7:1c:19:65:4d:b9:
        14:39
-----BEGIN X509 CRL-----
MIIBXTCBxwIBATANBgkqhkiG9w0BAQUFADBAMQswCQYDVQQGEwJVUzEaMBgGA1UE
ChMRVGVzdCBDZXJ0aWZpY2F0ZXMxFTATBgNVBAMTDFRydXN0IEFuY2hvchcNMDEw
NDE5MTQ1NzIwWhcNMTEwNDE5MTQ1NzIwWjAiMCACAWgXDTAxMDQxOTE0NTcyMFow
DDAKBgNVHRUEAwoBAaAvMC0wHwYDVR0jBBgwFoAU+2zULYGeyid6ng2wPOqavIf/
SeowCgYDVR0UBAMCAQEwDQYJKoZIhvcNAQEFBQADgYEAkhLENLSSq7pxa3QxFs7t
JdZLHvr4IB6d138w7RX3i11km90xQORVDwxfgmljAHalz57EX/JTm5t99WkddFc4
cOX7W3ZYyewx3JQbAu6dM5w4Sykd4Qwpi27Hv6DoQDSDz/+fzbX32U2nny6/RJhr
8tP+qCAxwTN2txwZZU25FDk=
-----END X509 CRL-----

Certificate Revocation List (CRL):
        Version 2 (0x1)
        Signature Algorithm: sha1WithRSAEncryption
        Issuer: /C=US/O=Test Certificates/CN=Separate Certificate and CRL Keys CA1
        Last Update: Apr 19 14:57:20 2001 GMT
        Next Update: Apr 19 14:57:20 2011 GMT
        CRL extensions:
            X509v3 Authority Key Identifier: 
                keyid:8A:FD:42:29:7B:59:78:52:4A:F7:48:1C:71:B7:C4:71:8A:A6:57:DB

            X509v3 CRL Number: 
                1
Revoked Certificates:
    Serial Number: 02
        Revocation Date: Apr 19 14:57:20 2001 GMT
        CRL entry extensions:
            X509v3 CRL Reason Code: 
                Key Compromise
    Signature Algorithm: sha1WithRSAEncryption
        05:7f:8e:79:fc:1e:57:0e:34:9e:bc:05:3c:28:df:90:bb:1f:
        c7:f4:6a:a1:95:51:f1:d2:b4:1f:3a:64:41:35:b6:42:62:b7:
        e7:14:1c:bf:0b:ed:6b:ca:f6:4c:c9:a7:48:ab:42:9e:04:9e:
        0a:b5:f1:86:99:0f:b1:7e:6e:dd:d6:a6:b3:b1:3f:fc:79:6a:
        bf:f0:39:3f:03:ac:69:15:b5:2f:5a:17:12:64:8b:e9:46:9f:
        82:09:f2:09:91:90:b4:fd:56:a1:ab:04:79:a0:17:33:26:c6:
        49:6a:96:d9:42:8b:44:a5:ed:ad:69:82:63:78:8e:e7:96:1d:
        17:2d
-----BEGIN X509 CRL-----
MIIBdjCB4AIBATANBgkqhkiG9w0BAQUFADBZMQswCQYDVQQGEwJVUzEaMBgGA1UE
ChMRVGVzdCBDZXJ0aWZpY2F0ZXMxLjAsBgNVBAMTJVNlcGFyYXRlIENlcnRpZmlj
YXRlIGFuZCBDUkwgS2V5cyBDQTEXDTAxMDQxOTE0NTcyMFoXDTExMDQxOTE0NTcy
MFowIjAgAgECFw0wMTA0MTkxNDU3MjBaMAwwCgYDVR0VBAMKAQGgLzAtMB8GA1Ud
IwQYMBaAFIr9Qil7WXhSSvdIHHG3xHGKplfbMAoGA1UdFAQDAgEBMA0GCSqGSIb3
DQEBBQUAA4GBAAV/jnn8HlcONJ68BTwo35C7H8f0aqGVUfHStB86ZEE1tkJit+cU
HL8L7WvK9kzJp0irQp4Engq18YaZD7F+bt3WprOxP/x5ar/wOT8DrGkVtS9aFxJk
i+lGn4IJ8gmRkLT9VqGrBHmgFzMmxklqltlCi0Sl7a1pgmN4jueWHRct
-----END X509 CRL-----

