subject=/C=US/O=Test Certificates/CN=Invalid Mapping From anyPolicy EE Certificate Test7
issuer=/C=US/O=Test Certificates/CN=Mapping From anyPolicy CA
-----BEGIN CERTIFICATE-----
MIIClTCCAf6gAwIBAgIBATANBgkqhkiG9w0BAQUFADBNMQswCQYDVQQGEwJVUzEa
MBgGA1UEChMRVGVzdCBDZXJ0aWZpY2F0ZXMxIjAgBgNVBAMTGU1hcHBpbmcgRnJv
bSBhbnlQb2xpY3kgQ0EwHhcNMDEwNDE5MTQ1NzIwWhcNMTEwNDE5MTQ1NzIwWjBn
MQswCQYDVQQGEwJVUzEaMBgGA1UEChMRVGVzdCBDZXJ0aWZpY2F0ZXMxPDA6BgNV
BAMTM0ludmFsaWQgTWFwcGluZyBGcm9tIGFueVBvbGljeSBFRSBDZXJ0aWZpY2F0
ZSBUZXN0NzCBnzANBgkqhkiG9w0BAQEFAAOBjQAwgYkCgYEAtfiBNk2i7y/WBuI5
GCW0+6q3VwFnT3frj/wV+Ie2r2bKy2iasXlilOldX5jcywoO2qcMHUmoeK2eE6rM
/ffDK4Zd4EhJJ5RJdgoWhjBpfKNGD73JlCIAVGGooCiVx9zJICN9DFl/X6hybpM8
Gs/BWxcHB7vzpzCGqKwI91lstiUCAwEAAaNrMGkwHwYDVR0jBBgwFoAU98GrNdgv
hgNaNjdZb8HBpG2kpEgwHQYDVR0OBBYEFNuifbLkKO+WtPZNnKM58l/XwUD6MA4G
A1UdDwEB/wQEAwIE8DAXBgNVHSAEEDAOMAwGCmCGSAFlAwIBMAEwDQYJKoZIhvcN
AQEFBQADgYEAXZ+i/Dd4d11xpuKLT90bOID/badZcsjgBbJ2hTG4JhzrHQN6kxzI
Xt3L5FBaqgg1SfvC0K6/eex8SDEdEJ5LlbmflMths7r8DICoo3Dyo+y/G6ziqRR7
fOrYKBk6zhliAHXNqrtQ/fUCCNke/OMk62U7WgbaQuELj+tzZHPHShA=
-----END CERTIFICATE-----

subject=/C=US/O=Test Certificates/CN=Mapping From anyPolicy CA
issuer=/C=US/O=Test Certificates/CN=Trust Anchor
-----BEGIN CERTIFICATE-----
MIICrjCCAhegAwIBAgIBMzANBgkqhkiG9w0BAQUFADBAMQswCQYDVQQGEwJVUzEa
MBgGA1UEChMRVGVzdCBDZXJ0aWZpY2F0ZXMxFTATBgNVBAMTDFRydXN0IEFuY2hv
cjAeFw0wMTA0MTkxNDU3MjBaFw0xMTA0MTkxNDU3MjBaME0xCzAJBgNVBAYTAlVT
MRowGAYDVQQKExFUZXN0IENlcnRpZmljYXRlczEiMCAGA1UEAxMZTWFwcGluZyBG
cm9tIGFueVBvbGljeSBDQTCBnzANBgkqhkiG9w0BAQEFAAOBjQAwgYkCgYEAmMII
TPwdFq+61dFOwrrjLrVHakDcX3fO14s58oprgJ0Qcm88Fjs1+HyurbqB1r7rySfg
zIZhJjb6ZZqV4qwd2fyQGhYHSctVTxOfxYc+JnK/eLQ09eCM0Uv2U2e9AyyObT0A
Gt8DpfnfiMrkyadyKRICC/6dOHLb/OnT82jrw/UCAwEAAaOBqjCBpzAfBgNVHSME
GDAWgBT7bNQtgZ7KJ3qeDbA86pq8h/9J6jAdBgNVHQ4EFgQU98GrNdgvhgNaNjdZ
b8HBpG2kpEgwDgYDVR0PAQH/BAQDAgEGMBEGA1UdIAQKMAgwBgYEVR0gADAgBgNV
HSEBAf8EFjAUMBIGBFUdIAAGCmCGSAFlAwIBMAEwDwYDVR0TAQH/BAUwAwEB/zAP
BgNVHSQBAf8EBTADgAEAMA0GCSqGSIb3DQEBBQUAA4GBAImTlpjaX4CkEQLrZZsd
iyLe+gkOFWF7maBKcZQcCHDUNuIGFeYmRqB+eXsYqooAvYOUfSz30L709ODiWLH4
Zm5y79xssrJYzS+sDfDHmNMjKo/U9Dj4nVO+ln6PGGe8PPW7P04gUXcQjJFHCLfh
+czJLt8J7JUOUznIvSEIIsto
-----END CERTIFICATE-----

Certificate Revocation List (CRL):
        Version 2 (0x1)
        Signature Algorithm: sha1WithRSAEncryption
        Issuer: /C=US/O=Test Certificates/CN=Mapping From anyPolicy CA
        Last Update: Apr 19 14:57:20 2001 GMT
        Next Update: Apr 19 14:57:20 2011 GMT
        CRL extensions:
            X509v3 Authority Key Identifier: 
                keyid:F7:C1:AB:35:D8:2F:86:03:5A:36:37:59:6F:C1:C1:A4:6D:A4:A4:48

            X509v3 CRL Number: 
                1
No Revoked Certificates.
    Signature Algorithm: sha1WithRSAEncryption
        05:b0:d2:68:c9:a0:5c:dd:e8:e0:e1:ed:95:35:cd:01:70:d6:
        24:88:d7:37:d3:05:59:04:38:c3:51:64:ca:aa:c4:07:31:80:
        c5:12:d7:9a:38:5f:67:c7:dd:0b:05:98:71:a1:b3:65:dd:09:
        cb:87:c5:8a:e2:bf:26:27:0a:56:0b:8d:c3:46:b1:75:4f:f3:
        03:5b:3d:ec:84:f9:e1:03:ee:a1:8a:c7:e9:22:6f:29:b2:6b:
        64:02:e4:aa:7b:5e:bd:84:fe:af:a9:25:98:7d:7b:b8:f0:ef:
        3f:df:f9:26:a6:84:d0:16:6e:b9:2d:bd:15:95:8f:47:7a:a8:
        28:28
-----BEGIN X509 CRL-----
MIIBRjCBsAIBATANBgkqhkiG9w0BAQUFADBNMQswCQYDVQQGEwJVUzEaMBgGA1UE
ChMRVGVzdCBDZXJ0aWZpY2F0ZXMxIjAgBgNVBAMTGU1hcHBpbmcgRnJvbSBhbnlQ
b2xpY3kgQ0EXDTAxMDQxOTE0NTcyMFoXDTExMDQxOTE0NTcyMFqgLzAtMB8GA1Ud
IwQYMBaAFPfBqzXYL4YDWjY3WW/BwaRtpKRIMAoGA1UdFAQDAgEBMA0GCSqGSIb3
DQEBBQUAA4GBAAWw0mjJoFzd6ODh7ZU1zQFw1iSI1zfTBVkEOMNRZMqqxAcxgMUS
15o4X2fH3QsFmHGhs2XdCcuHxYrivyYnClYLjcNGsXVP8wNbPeyE+eED7qGKx+ki
bymya2QC5Kp7Xr2E/q+pJZh9e7jw7z/f+SamhNAWbrktvRWVj0d6qCgo
-----END X509 CRL-----

Certificate Revocation List (CRL):
        Version 2 (0x1)
        Signature Algorithm: sha1WithRSAEncryption
        Issuer: /C=US/O=Test Certificates/CN=Trust Anchor
        Last Update: Apr 19 14:57:20 2001 GMT
        Next Update: Apr 19 14:57:20 2011 GMT
        CRL extensions:
            X509v3 Authority Key Identifier: 
                keyid:FB:6C:D4:2D:81:9E:CA:27:7A:9E:0D:B0:3C:EA:9A:BC:87:FF:49:EA

            X509v3 CRL Number: 
                1
Revoked Certificates:
    Serial Number: 68
        Revocation Date: Apr 19 14:57:20 2001 GMT
        CRL entry extensions:
            X509v3 CRL Reason Code: 
                Key Compromise
    Signature Algorithm: sha1WithRSAEncryption
        92:12:c4:34:b4:92:ab:ba:71:6b:74:31:16:ce:ed:25:d6:4b:
        1e:fa:f8:20:1e:9d:d7:7f:30:ed:15:f7:8b:5d:64:9b:dd:31:
        40:e4:55:0f:0c:5f:82:69:63:00:76:a5:cf:9e:c4:5f:f2:53:
        9b:9b:7d:f5:69:1d:74:57:38:70:e5:fb:5b:76:58:c9:ec:31:
        dc:94:1b:02:ee:9d:33:9c:38:4b:29:1d:e1:0c:29:8b:6e:c7:
        bf:a0:e8:40:34:83:cf:ff:9f:cd:b5:f7:d9:4d:a7:9f:2e:bf:
        44:98:6b:f2:d3:fe:a8:20:31:c1:33:76:b7:1c:19:65:4d:b9:
        14:39
-----BEGIN X509 CRL-----
MIIBXTCBxwIBATANBgkqhkiG9w0BAQUFADBAMQswCQYDVQQGEwJVUzEaMBgGA1UE
ChMRVGVzdCBDZXJ0aWZpY2F0ZXMxFTATBgNVBAMTDFRydXN0IEFuY2hvchcNMDEw
NDE5MTQ1NzIwWhcNMTEwNDE5MTQ1NzIwWjAiMCACAWgXDTAxMDQxOTE0NTcyMFow
DDAKBgNVHRUEAwoBAaAvMC0wHwYDVR0jBBgwFoAU+2zULYGeyid6ng2wPOqavIf/
SeowCgYDVR0UBAMCAQEwDQYJKoZIhvcNAQEFBQADgYEAkhLENLSSq7pxa3QxFs7t
JdZLHvr4IB6d138w7RX3i11km90xQORVDwxfgmljAHalz57EX/JTm5t99WkddFc4
cOX7W3ZYyewx3JQbAu6dM5w4Sykd4Qwpi27Hv6DoQDSDz/+fzbX32U2nny6/RJhr
8tP+qCAxwTN2txwZZU25FDk=
-----END X509 CRL-----

