subject=/C=US/O=Test Certificates/CN=pathLenConstraint6 CA
issuer=/C=US/O=Test Certificates/CN=Trust Anchor
-----BEGIN CERTIFICATE-----
MIICfjCCAeegAwIBAgIBGzANBgkqhkiG9w0BAQUFADBAMQswCQYDVQQGEwJVUzEa
MBgGA1UEChMRVGVzdCBDZXJ0aWZpY2F0ZXMxFTATBgNVBAMTDFRydXN0IEFuY2hv
cjAeFw0wMTA0MTkxNDU3MjBaFw0xMTA0MTkxNDU3MjBaMEkxCzAJBgNVBAYTAlVT
MRowGAYDVQQKExFUZXN0IENlcnRpZmljYXRlczEeMBwGA1UEAxMVcGF0aExlbkNv
bnN0cmFpbnQ2IENBMIGfMA0GCSqGSIb3DQEBAQUAA4GNADCBiQKBgQDbfycd4Ehd
RlHiRJp0MMk0H94GHYCYxpVEzfiC5V9w2M0NWJotHuHxdTvH02XZquFdQptZI0qZ
AGeBgE3+FBJAGOK0ZxYJgSyscFWBTLGzFZu2Y09siuEwlr5W4z6iByJpFYsEK0JS
icx7LPYOYyHmFpmDSdcUXwV59VWlaQn5HQIDAQABo38wfTAfBgNVHSMEGDAWgBT7
bNQtgZ7KJ3qeDbA86pq8h/9J6jAdBgNVHQ4EFgQUnY+0pLeirrl2tR7LH2QWpXoO
hUowDgYDVR0PAQH/BAQDAgEGMBcGA1UdIAQQMA4wDAYKYIZIAWUDAgEwATASBgNV
HRMBAf8ECDAGAQH/AgEGMA0GCSqGSIb3DQEBBQUAA4GBAKJlZqSQSA4tpA42dNOs
k5r0RU2BrRu2bPXhSEZHD0o46NJlNTNTfCAus4HtZ6GE1AvTIy3smHPGb1O4jth2
9hYXVqNHIEIlejhxgSE0trBBT5L5vodq5Pu5qoTWPZ2Uu8pdqRvdmypKr7gI5inp
Cu6s2eBv0+DeibQTg73sQuTj
-----END CERTIFICATE-----

subject=/C=US/O=Test Certificates/CN=pathLenConstraint6 subCA1
issuer=/C=US/O=Test Certificates/CN=pathLenConstraint6 CA
-----BEGIN CERTIFICATE-----
MIICizCCAfSgAwIBAgIBAjANBgkqhkiG9w0BAQUFADBJMQswCQYDVQQGEwJVUzEa
MBgGA1UEChMRVGVzdCBDZXJ0aWZpY2F0ZXMxHjAcBgNVBAMTFXBhdGhMZW5Db25z
dHJhaW50NiBDQTAeFw0wMTA0MTkxNDU3MjBaFw0xMTA0MTkxNDU3MjBaME0xCzAJ
BgNVBAYTAlVTMRowGAYDVQQKExFUZXN0IENlcnRpZmljYXRlczEiMCAGA1UEAxMZ
cGF0aExlbkNvbnN0cmFpbnQ2IHN1YkNBMTCBnzANBgkqhkiG9w0BAQEFAAOBjQAw
gYkCgYEAmzChDurmjaO/gLW4mwfnkQwkFgDcZvpMdZEqpd4u4+RaoyI7I6LlTFQ+
wkZ0cnLVA8C/F6+ZqpMXg4s9pb04PuHb0xsgBHFefpSASxTCIBWVOmLq462zY6o8
Iun/AQo4JVGx175EcIUkcldAg19+3l1NV4fg7BN7waHWiVfIzS0CAwEAAaN/MH0w
HwYDVR0jBBgwFoAUnY+0pLeirrl2tR7LH2QWpXoOhUowHQYDVR0OBBYEFEQ04VAm
/zwjDK2/vU7Ge+AMSIqqMA4GA1UdDwEB/wQEAwIBBjAXBgNVHSAEEDAOMAwGCmCG
SAFlAwIBMAEwEgYDVR0TAQH/BAgwBgEB/wIBATANBgkqhkiG9w0BAQUFAAOBgQCK
Fy4Zq2RJVwWE4qzs2QbzST7CRcwqzwlUwH2S53MA3J38uXAEjqjJLyLSG7k9xjYq
Xwq0hQZIfdeOkSMfSEUl3XWgYfQFGfmHdsUPJ0NX79NXXoyxsfZPRH9LF+CPnv8d
kwA/on1VypfAuAv4/M6L3p7jFDISJRRGcXRBRB13lA==
-----END CERTIFICATE-----

subject=/C=US/O=Test Certificates/CN=pathLenConstraint6 subsubCA11
issuer=/C=US/O=Test Certificates/CN=pathLenConstraint6 subCA1
-----BEGIN CERTIFICATE-----
MIICkzCCAfygAwIBAgIBATANBgkqhkiG9w0BAQUFADBNMQswCQYDVQQGEwJVUzEa
MBgGA1UEChMRVGVzdCBDZXJ0aWZpY2F0ZXMxIjAgBgNVBAMTGXBhdGhMZW5Db25z
dHJhaW50NiBzdWJDQTEwHhcNMDEwNDE5MTQ1NzIwWhcNMTEwNDE5MTQ1NzIwWjBR
MQswCQYDVQQGEwJVUzEaMBgGA1UEChMRVGVzdCBDZXJ0aWZpY2F0ZXMxJjAkBgNV
BAMTHXBhdGhMZW5Db25zdHJhaW50NiBzdWJzdWJDQTExMIGfMA0GCSqGSIb3DQEB
AQUAA4GNADCBiQKBgQDSXWC7L0WLN2ZeSCkEhh0EhpdojjOAr8wqSRoVWRnyzGMM
swGD3i80PXaZFl1qIeaER7LF0udID27SF6sC5g+kklfiK3UAn0YscNa2U6r27vwO
2pj95+SfvnAuFgQoO82T4VQtUJnUOB+NAwWHGZ0Y9WiAxus6qNqEVTbr3CcT4wID
AQABo38wfTAfBgNVHSMEGDAWgBRENOFQJv88Iwytv71OxnvgDEiKqjAdBgNVHQ4E
FgQUs8D3URQQ9lyaTiyHUFHlkdNYWyswDgYDVR0PAQH/BAQDAgEGMBcGA1UdIAQQ
MA4wDAYKYIZIAWUDAgEwATASBgNVHRMBAf8ECDAGAQH/AgEBMA0GCSqGSIb3DQEB
BQUAA4GBADYFuhgJI8Nyw7Mhpcq5n2NHNEXkP8g5ibaa86O1I//NQRsXnQ42VQrQ
UemJMwtYlYjXHCL3MaiZOOXv+jaJDAbAE8zDq1c11WuKYBQ/ABNR+jCYnOlnR4lH
1Ibtl3Y4v7sEq5V6MyO6DugCihflJSVSOV8UFaYxZQ3cb/AgI41q
-----END CERTIFICATE-----

subject=/C=US/O=Test Certificates/CN=pathLenConstraint6 subsubsubCA11X
issuer=/C=US/O=Test Certificates/CN=pathLenConstraint6 subsubCA11
-----BEGIN CERTIFICATE-----
MIICmDCCAgGgAwIBAgIBATANBgkqhkiG9w0BAQUFADBRMQswCQYDVQQGEwJVUzEa
MBgGA1UEChMRVGVzdCBDZXJ0aWZpY2F0ZXMxJjAkBgNVBAMTHXBhdGhMZW5Db25z
dHJhaW50NiBzdWJzdWJDQTExMB4XDTAxMDQxOTE0NTcyMFoXDTExMDQxOTE0NTcy
MFowVTELMAkGA1UEBhMCVVMxGjAYBgNVBAoTEVRlc3QgQ2VydGlmaWNhdGVzMSow
KAYDVQQDEyFwYXRoTGVuQ29uc3RyYWludDYgc3Vic3Vic3ViQ0ExMVgwgZ8wDQYJ
KoZIhvcNAQEBBQADgY0AMIGJAoGBALXNtkOI9gcg1V1Ecg8VBS17NqL8yaeNOG8h
VgH8Peay4GsCzxqYOSnPDeBKtlMJ+TAmMmz30FZ4XtEJScvx9yllHjEM85LdyvTM
ZD6gy7yWApPgkhMipi9vww7JUtH6RrDQmKurTvtx5BhM/lYWlDVSnxX/CmWFm22r
vwk/Rbz1AgMBAAGjfDB6MB8GA1UdIwQYMBaAFLPA91EUEPZcmk4sh1BR5ZHTWFsr
MB0GA1UdDgQWBBRqNvBXdT9CFVC16QgdKDfFreIGvDAOBgNVHQ8BAf8EBAMCAQYw
FwYDVR0gBBAwDjAMBgpghkgBZQMCATABMA8GA1UdEwEB/wQFMAMBAf8wDQYJKoZI
hvcNAQEFBQADgYEAXlaYIT0dDTF0GGAJ8H41hvUkovy3ge8i7YDWofVBhdt+rEeC
v0tvUcc+7mPSj3i5flZgJnbXMwS7wNlLhttOpbBMqL5/vWyIcvrgXm3qmXowQF0H
WuW/WllHgGzQ8tIbGUWcl2bvkFNA5nIeumCrK1vmIgNqYaRUdOH9xuPuvxw=
-----END CERTIFICATE-----

subject=/C=US/O=Test Certificates/CN=Invalid pathLenConstraint EE Certificate Test12
issuer=/C=US/O=Test Certificates/CN=pathLenConstraint6 subsubsubCA11X
-----BEGIN CERTIFICATE-----
MIICqjCCAhOgAwIBAgIBAjANBgkqhkiG9w0BAQUFADBVMQswCQYDVQQGEwJVUzEa
MBgGA1UEChMRVGVzdCBDZXJ0aWZpY2F0ZXMxKjAoBgNVBAMTIXBhdGhMZW5Db25z
dHJhaW50NiBzdWJzdWJzdWJDQTExWDAeFw0wMTA0MTkxNDU3MjBaFw0xMTA0MTkx
NDU3MjBaMGMxCzAJBgNVBAYTAlVTMRowGAYDVQQKExFUZXN0IENlcnRpZmljYXRl
czE4MDYGA1UEAxMvSW52YWxpZCBwYXRoTGVuQ29uc3RyYWludCBFRSBDZXJ0aWZp
Y2F0ZSBUZXN0MTIwgZ8wDQYJKoZIhvcNAQEBBQADgY0AMIGJAoGBAKYWPPc7psjO
loPqdJ0NVow1+jFLB3yaoLHoJ+72kbII2gHjDiiZqm3e1E8Bqo136BrJlUrf5ZBj
5G7DoA0OWn12+0bHhTNOEucIAFe/M6DpdHEIRR3l9CA20h4VMN5dUnQlVRt5uzGb
RWcxgL5F79IUTDI1M2JJz2z8Aj/WIsbRAgMBAAGjfDB6MB8GA1UdIwQYMBaAFGo2
8Fd1P0IVULXpCB0oN8Wt4ga8MB0GA1UdDgQWBBQfCYLms5akqSyTnpkK+G20CC7J
7zAOBgNVHQ8BAf8EBAMCAfYwFwYDVR0gBBAwDjAMBgpghkgBZQMCATABMA8GA1Ud
EwEB/wQFMAMBAf8wDQYJKoZIhvcNAQEFBQADgYEABeLBzaJ0fJ0vgFUpXxNodli4
jWo3oP+YW75X3NsMhhl31MbHAyUVw7CCEspHiIIRtSfJCALAaH9Ug7kMFjFDrxTH
2790IdTodWieyUn/sdU9WWVRXiR7d5M2SVIYwdc6NjmsSVg6m++W99Uv5pBzoTAA
ClExK3cmR6k5T7cF58Y=
-----END CERTIFICATE-----

Certificate Revocation List (CRL):
        Version 2 (0x1)
        Signature Algorithm: sha1WithRSAEncryption
        Issuer: /C=US/O=Test Certificates/CN=pathLenConstraint6 CA
        Last Update: Apr 19 14:57:20 2001 GMT
        Next Update: Apr 19 14:57:20 2011 GMT
        CRL extensions:
            X509v3 Authority Key Identifier: 
                keyid:9D:8F:B4:A4:B7:A2:AE:B9:76:B5:1E:CB:1F:64:16:A5:7A:0E:85:4A

            X509v3 CRL Number: 
                1
No Revoked Certificates.
    Signature Algorithm: sha1WithRSAEncryption
        0d:f1:3d:54:c8:22:83:d4:1c:69:d2:12:e3:82:09:7e:b6:c0:
        af:f4:41:9b:51:c5:04:d4:c5:ca:51:73:5c:c5:14:c5:d6:d0:
        11:6c:40:ce:49:e7:80:49:a9:35:94:84:b5:bb:52:37:62:c3:
        5e:0e:18:48:57:44:b1:cd:97:a2:44:ef:9f:75:44:16:9e:58:
        ff:db:7f:18:8e:d5:07:fc:01:64:17:c3:00:79:4d:02:af:dd:
        08:88:37:03:be:cc:80:7a:cb:fd:e7:5c:53:03:b1:f2:17:16:
        1a:14:25:f4:ea:50:8c:14:ff:58:e9:2f:fe:e4:75:d9:67:78:
        fa:7a
-----BEGIN X509 CRL-----
MIIBQjCBrAIBATANBgkqhkiG9w0BAQUFADBJMQswCQYDVQQGEwJVUzEaMBgGA1UE
ChMRVGVzdCBDZXJ0aWZpY2F0ZXMxHjAcBgNVBAMTFXBhdGhMZW5Db25zdHJhaW50
NiBDQRcNMDEwNDE5MTQ1NzIwWhcNMTEwNDE5MTQ1NzIwWqAvMC0wHwYDVR0jBBgw
FoAUnY+0pLeirrl2tR7LH2QWpXoOhUowCgYDVR0UBAMCAQEwDQYJKoZIhvcNAQEF
BQADgYEADfE9VMgig9QcadIS44IJfrbAr/RBm1HFBNTFylFzXMUUxdbQEWxAzknn
gEmpNZSEtbtSN2LDXg4YSFdEsc2XokTvn3VEFp5Y/9t/GI7VB/wBZBfDAHlNAq/d
CIg3A77MgHrL/edcUwOx8hcWGhQl9OpQjBT/WOkv/uR12Wd4+no=
-----END X509 CRL-----

Certificate Revocation List (CRL):
        Version 2 (0x1)
        Signature Algorithm: sha1WithRSAEncryption
        Issuer: /C=US/O=Test Certificates/CN=pathLenConstraint6 subCA1
        Last Update: Apr 19 14:57:20 2001 GMT
        Next Update: Apr 19 14:57:20 2011 GMT
        CRL extensions:
            X509v3 Authority Key Identifier: 
                keyid:44:34:E1:50:26:FF:3C:23:0C:AD:BF:BD:4E:C6:7B:E0:0C:48:8A:AA

            X509v3 CRL Number: 
                1
No Revoked Certificates.
    Signature Algorithm: sha1WithRSAEncryption
        8d:23:83:69:3d:e9:a9:b9:0c:9f:fd:64:34:97:b1:1e:e3:c6:
        25:62:c4:d5:cb:ee:87:98:04:d6:96:04:0e:7e:96:3b:22:7c:
        3f:e7:f6:f8:a5:d4:14:a2:86:2c:10:d6:b6:08:a6:da:2a:3e:
        7e:70:f1:d1:e6:a0:6e:55:1c:68:10:4f:65:d2:1f:51:d7:a0:
        6b:d7:df:db:7e:2e:f6:8f:5e:64:5e:6a:ca:48:2b:8c:f0:85:
        37:f3:70:67:c9:44:c4:8f:7f:ad:93:93:e6:d9:c0:7e:8d:0e:
        01:16:01:82:e2:b9:a6:28:1f:3b:e9:0a:d0:ea:d6:23:a1:c4:
        a5:1a
-----BEGIN X509 CRL-----
MIIBRjCBsAIBATANBgkqhkiG9w0BAQUFADBNMQswCQYDVQQGEwJVUzEaMBgGA1UE
ChMRVGVzdCBDZXJ0aWZpY2F0ZXMxIjAgBgNVBAMTGXBhdGhMZW5Db25zdHJhaW50
NiBzdWJDQTEXDTAxMDQxOTE0NTcyMFoXDTExMDQxOTE0NTcyMFqgLzAtMB8GA1Ud
IwQYMBaAFEQ04VAm/zwjDK2/vU7Ge+AMSIqqMAoGA1UdFAQDAgEBMA0GCSqGSIb3
DQEBBQUAA4GBAI0jg2k96am5DJ/9ZDSXsR7jxiVixNXL7oeYBNaWBA5+ljsifD/n
9vil1BSihiwQ1rYIptoqPn5w8dHmoG5VHGgQT2XSH1HXoGvX39t+LvaPXmReaspI
K4zwhTfzcGfJRMSPf62Tk+bZwH6NDgEWAYLiuaYoHzvpCtDq1iOhxKUa
-----END X509 CRL-----

Certificate Revocation List (CRL):
        Version 2 (0x1)
        Signature Algorithm: sha1WithRSAEncryption
        Issuer: /C=US/O=Test Certificates/CN=pathLenConstraint6 subsubCA11
        Last Update: Apr 19 14:57:20 2001 GMT
        Next Update: Apr 19 14:57:20 2011 GMT
        CRL extensions:
            X509v3 Authority Key Identifier: 
                keyid:B3:C0:F7:51:14:10:F6:5C:9A:4E:2C:87:50:51:E5:91:D3:58:5B:2B

            X509v3 CRL Number: 
                1
No Revoked Certificates.
    Signature Algorithm: sha1WithRSAEncryption
        5f:3d:a5:ee:09:93:d8:4f:cf:28:3b:05:87:8e:8b:08:7e:2d:
        36:0e:c2:f0:cd:54:94:05:54:07:2f:9d:e6:8d:1b:9c:f5:fe:
        92:7e:3f:bc:94:d5:fd:82:c0:87:dc:93:32:c8:ab:01:59:3b:
        6a:df:8e:af:cb:14:f7:f7:39:50:da:8c:ac:02:7c:97:24:27:
        ce:11:a9:9b:38:72:6e:32:c4:a1:0a:f3:34:5d:62:9d:f8:ea:
        21:1a:bc:0e:22:98:6f:80:25:1f:5c:c4:fe:1e:7b:ff:9c:4a:
        83:ec:02:29:db:a0:6e:cb:9e:98:89:33:be:25:8c:2d:48:9d:
        70:3d
-----BEGIN X509 CRL-----
MIIBSjCBtAIBATANBgkqhkiG9w0BAQUFADBRMQswCQYDVQQGEwJVUzEaMBgGA1UE
ChMRVGVzdCBDZXJ0aWZpY2F0ZXMxJjAkBgNVBAMTHXBhdGhMZW5Db25zdHJhaW50
NiBzdWJzdWJDQTExFw0wMTA0MTkxNDU3MjBaFw0xMTA0MTkxNDU3MjBaoC8wLTAf
BgNVHSMEGDAWgBSzwPdRFBD2XJpOLIdQUeWR01hbKzAKBgNVHRQEAwIBATANBgkq
hkiG9w0BAQUFAAOBgQBfPaXuCZPYT88oOwWHjosIfi02DsLwzVSUBVQHL53mjRuc
9f6Sfj+8lNX9gsCH3JMyyKsBWTtq346vyxT39zlQ2oysAnyXJCfOEambOHJuMsSh
CvM0XWKd+OohGrwOIphvgCUfXMT+Hnv/nEqD7AIp26Buy56YiTO+JYwtSJ1wPQ==
-----END X509 CRL-----

Certificate Revocation List (CRL):
        Version 2 (0x1)
        Signature Algorithm: sha1WithRSAEncryption
        Issuer: /C=US/O=Test Certificates/CN=pathLenConstraint6 subsubsubCA11X
        Last Update: Apr 19 14:57:20 2001 GMT
        Next Update: Apr 19 14:57:20 2011 GMT
        CRL extensions:
            X509v3 Authority Key Identifier: 
                keyid:6A:36:F0:57:75:3F:42:15:50:B5:E9:08:1D:28:37:C5:AD:E2:06:BC

            X509v3 CRL Number: 
                1
No Revoked Certificates.
    Signature Algorithm: sha1WithRSAEncryption
        93:c1:d4:9f:53:f4:86:55:66:46:ba:2f:82:df:c3:81:ad:52:
        95:0f:cb:f0:c0:25:ca:b2:fa:80:c7:b4:50:a3:95:70:ea:01:
        b1:30:fe:c9:da:a0:b4:fb:a6:9f:55:ec:3f:df:12:37:bb:44:
        cf:6a:5c:7d:fa:34:93:7c:9d:5f:f0:d6:fc:dc:07:9f:1f:2d:
        bc:02:3f:80:59:de:31:ba:19:c8:e8:a9:3c:e7:1d:28:e8:cb:
        f7:4d:e2:f6:26:cd:45:2f:d4:70:77:68:ae:1e:5d:0f:55:c6:
        fb:f4:5d:64:3c:e0:30:a7:2d:3a:ed:4e:7b:a1:e2:13:70:da:
        30:e4
-----BEGIN X509 CRL-----
MIIBTjCBuAIBATANBgkqhkiG9w0BAQUFADBVMQswCQYDVQQGEwJVUzEaMBgGA1UE
ChMRVGVzdCBDZXJ0aWZpY2F0ZXMxKjAoBgNVBAMTIXBhdGhMZW5Db25zdHJhaW50
NiBzdWJzdWJzdWJDQTExWBcNMDEwNDE5MTQ1NzIwWhcNMTEwNDE5MTQ1NzIwWqAv
MC0wHwYDVR0jBBgwFoAUajbwV3U/QhVQtekIHSg3xa3iBrwwCgYDVR0UBAMCAQEw
DQYJKoZIhvcNAQEFBQADgYEAk8HUn1P0hlVmRrovgt/Dga1SlQ/L8MAlyrL6gMe0
UKOVcOoBsTD+ydqgtPumn1XsP98SN7tEz2pcffo0k3ydX/DW/NwHnx8tvAI/gFne
MboZyOipPOcdKOjL903i9ibNRS/UcHdorh5dD1XG+/RdZDzgMKctOu1Oe6HiE3Da
MOQ=
-----END X509 CRL-----

Certificate Revocation List (CRL):
        Version 2 (0x1)
        Signature Algorithm: sha1WithRSAEncryption
        Issuer: /C=US/O=Test Certificates/CN=Trust Anchor
        Last Update: Apr 19 14:57:20 2001 GMT
        Next Update: Apr 19 14:57:20 2011 GMT
        CRL extensions:
            X509v3 Authority Key Identifier: 
                keyid:FB:6C:D4:2D:81:9E:CA:27:7A:9E:0D:B0:3C:EA:9A:BC:87:FF:49:EA

            X509v3 CRL Number: 
                1
Revoked Certificates:
    Serial Number: 68
        Revocation Date: Apr 19 14:57:20 2001 GMT
        CRL entry extensions:
            X509v3 CRL Reason Code: 
                Key Compromise
    Signature Algorithm: sha1WithRSAEncryption
        92:12:c4:34:b4:92:ab:ba:71:6b:74:31:16:ce:ed:25:d6:4b:
        1e:fa:f8:20:1e:9d:d7:7f:30:ed:15:f7:8b:5d:64:9b:dd:31:
        40:e4:55:0f:0c:5f:82:69:63:00:76:a5:cf:9e:c4:5f:f2:53:
        9b:9b:7d:f5:69:1d:74:57:38:70:e5:fb:5b:76:58:c9:ec:31:
        dc:94:1b:02:ee:9d:33:9c:38:4b:29:1d:e1:0c:29:8b:6e:c7:
        bf:a0:e8:40:34:83:cf:ff:9f:cd:b5:f7:d9:4d:a7:9f:2e:bf:
        44:98:6b:f2:d3:fe:a8:20:31:c1:33:76:b7:1c:19:65:4d:b9:
        14:39
-----BEGIN X509 CRL-----
MIIBXTCBxwIBATANBgkqhkiG9w0BAQUFADBAMQswCQYDVQQGEwJVUzEaMBgGA1UE
ChMRVGVzdCBDZXJ0aWZpY2F0ZXMxFTATBgNVBAMTDFRydXN0IEFuY2hvchcNMDEw
NDE5MTQ1NzIwWhcNMTEwNDE5MTQ1NzIwWjAiMCACAWgXDTAxMDQxOTE0NTcyMFow
DDAKBgNVHRUEAwoBAaAvMC0wHwYDVR0jBBgwFoAU+2zULYGeyid6ng2wPOqavIf/
SeowCgYDVR0UBAMCAQEwDQYJKoZIhvcNAQEFBQADgYEAkhLENLSSq7pxa3QxFs7t
JdZLHvr4IB6d138w7RX3i11km90xQORVDwxfgmljAHalz57EX/JTm5t99WkddFc4
cOX7W3ZYyewx3JQbAu6dM5w4Sykd4Qwpi27Hv6DoQDSDz/+fzbX32U2nny6/RJhr
8tP+qCAxwTN2txwZZU25FDk=
-----END X509 CRL-----

