subject=/C=US/O=Test Certificates/CN=pathLenConstraint0 CA
issuer=/C=US/O=Test Certificates/CN=Trust Anchor
-----BEGIN CERTIFICATE-----
MIICfjCCAeegAwIBAgIBGjANBgkqhkiG9w0BAQUFADBAMQswCQYDVQQGEwJVUzEa
MBgGA1UEChMRVGVzdCBDZXJ0aWZpY2F0ZXMxFTATBgNVBAMTDFRydXN0IEFuY2hv
cjAeFw0wMTA0MTkxNDU3MjBaFw0xMTA0MTkxNDU3MjBaMEkxCzAJBgNVBAYTAlVT
MRowGAYDVQQKExFUZXN0IENlcnRpZmljYXRlczEeMBwGA1UEAxMVcGF0aExlbkNv
bnN0cmFpbnQwIENBMIGfMA0GCSqGSIb3DQEBAQUAA4GNADCBiQKBgQDCXXXPbNnk
MU3wxjjwCdA/Pj+lwkDk8WSxKGdOrcPMnFnrCdUnSqEES3K6/T7JRQyv6Y13Rt6w
LAhrQI94UBcsAAQND4SOPyJUE3PonzcolJQ+EzkSB9qq6cxJokxTvxVTx2VN7bN1
RJ7FrWovHu/vmKnwsOy3zv41U6KBfuf04QIDAQABo38wfTAfBgNVHSMEGDAWgBT7
bNQtgZ7KJ3qeDbA86pq8h/9J6jAdBgNVHQ4EFgQUIQy1AXZ207MqrCb8qqZP8tah
b0swDgYDVR0PAQH/BAQDAgEGMBcGA1UdIAQQMA4wDAYKYIZIAWUDAgEwATASBgNV
HRMBAf8ECDAGAQH/AgEAMA0GCSqGSIb3DQEBBQUAA4GBAJUd83zrSjxfaGwFdTCt
BSI1mTeztSKFxIzrWeTxD3C0JHAxt1oM1AN8DQ/Ej8ja3rxhzsFQaWzdi3ixvnGr
NbjLZH7EPWBPSSC2rTAcvLzVs2AuPsBkv7IKxg7HTJZtLbXDOIatWT+24OuKwTzE
6cbcSe7zaz5qdojy0B72dLHC
-----END CERTIFICATE-----

subject=/C=US/O=Test Certificates/CN=pathLenConstraint0 subCA
issuer=/C=US/O=Test Certificates/CN=pathLenConstraint0 CA
-----BEGIN CERTIFICATE-----
MIIChzCCAfCgAwIBAgIBATANBgkqhkiG9w0BAQUFADBJMQswCQYDVQQGEwJVUzEa
MBgGA1UEChMRVGVzdCBDZXJ0aWZpY2F0ZXMxHjAcBgNVBAMTFXBhdGhMZW5Db25z
dHJhaW50MCBDQTAeFw0wMTA0MTkxNDU3MjBaFw0xMTA0MTkxNDU3MjBaMEwxCzAJ
BgNVBAYTAlVTMRowGAYDVQQKExFUZXN0IENlcnRpZmljYXRlczEhMB8GA1UEAxMY
cGF0aExlbkNvbnN0cmFpbnQwIHN1YkNBMIGfMA0GCSqGSIb3DQEBAQUAA4GNADCB
iQKBgQC9F8qrs0xS57Qn1kibsZC0kS6JQNJyITUgX+oGjw6Y9R6Jh9m5WVI7BwMI
FsyIDhUK42ZsG9b6hMdQyp5NKHZbYOh53VhWzsEAk3veMZvsEyE6K2Ip6SZO1xDq
ta7FYY4SF+2S3nw8tyJGqXqNEG4Aob2k+QW1L7UgcsPyrAE66QIDAQABo3wwejAf
BgNVHSMEGDAWgBQhDLUBdnbTsyqsJvyqpk/y1qFvSzAdBgNVHQ4EFgQUjh+rRpwO
S27n5VeIDCeT/ifW5xIwDgYDVR0PAQH/BAQDAgEGMBcGA1UdIAQQMA4wDAYKYIZI
AWUDAgEwATAPBgNVHRMBAf8EBTADAQH/MA0GCSqGSIb3DQEBBQUAA4GBADW1rIN2
092d2UN+8PysNq18Cl0i7qsx9JbK7SUwreNTgbpyw9Uh7HFYzJwBW9ACs94rDhZo
iqG0u0K4zLTijCS3ixy9sVKVha/+QTy6YxHFcjLmriX4bfiYUjXJPqmmZFExM3vO
XMyum0wyXdEc+hbuAj1+6WBRec8clffFlRdv
-----END CERTIFICATE-----

subject=/C=US/O=Test Certificates/CN=Invalid pathLenConstraint EE Certificate Test6
issuer=/C=US/O=Test Certificates/CN=pathLenConstraint0 subCA
-----BEGIN CERTIFICATE-----
MIICoDCCAgmgAwIBAgIBAjANBgkqhkiG9w0BAQUFADBMMQswCQYDVQQGEwJVUzEa
MBgGA1UEChMRVGVzdCBDZXJ0aWZpY2F0ZXMxITAfBgNVBAMTGHBhdGhMZW5Db25z
dHJhaW50MCBzdWJDQTAeFw0wMTA0MTkxNDU3MjBaFw0xMTA0MTkxNDU3MjBaMGIx
CzAJBgNVBAYTAlVTMRowGAYDVQQKExFUZXN0IENlcnRpZmljYXRlczE3MDUGA1UE
AxMuSW52YWxpZCBwYXRoTGVuQ29uc3RyYWludCBFRSBDZXJ0aWZpY2F0ZSBUZXN0
NjCBnzANBgkqhkiG9w0BAQEFAAOBjQAwgYkCgYEAqRnKex0cxpUb1ZFo+pXGEX8V
39ndPC9BNFgD6o0pAqBpYd6zlYIIkQo+rpciQ1vHnizx6WP3ulT6unn4w5UhXCP7
S9h+TKQt6KFwZNXaCASi/VTEgHt5XLrwqjrhCtIDamjCgEcR1L/VS6N+c+SARpEG
aWQzmao86RmaEKBaI10CAwEAAaN8MHowHwYDVR0jBBgwFoAUjh+rRpwOS27n5VeI
DCeT/ifW5xIwHQYDVR0OBBYEFCw8vCsEA7QX0lC4KFyI8IP18fO9MA4GA1UdDwEB
/wQEAwIB9jAXBgNVHSAEEDAOMAwGCmCGSAFlAwIBMAEwDwYDVR0TAQH/BAUwAwEB
/zANBgkqhkiG9w0BAQUFAAOBgQAUW32gQakGpEtbmPGP8WBo5wdAtIRXbRp/VGK0
zZZzXsoEoME9XCHEOVvWO09Qcu1VP7hwwnaEqgYGWl1ooUih33plStn8ETtzLcQ6
BhOfvj216EgmZINuLcozCAusomtXZJ9yRHO0uRveEebjOJYPWqqv3zD9NgKck6cm
kq1Hlw==
-----END CERTIFICATE-----

Certificate Revocation List (CRL):
        Version 2 (0x1)
        Signature Algorithm: sha1WithRSAEncryption
        Issuer: /C=US/O=Test Certificates/CN=pathLenConstraint0 CA
        Last Update: Apr 19 14:57:20 2001 GMT
        Next Update: Apr 19 14:57:20 2011 GMT
        CRL extensions:
            X509v3 Authority Key Identifier: 
                keyid:21:0C:B5:01:76:76:D3:B3:2A:AC:26:FC:AA:A6:4F:F2:D6:A1:6F:4B

            X509v3 CRL Number: 
                1
No Revoked Certificates.
    Signature Algorithm: sha1WithRSAEncryption
        56:7b:a5:e5:64:8b:31:64:fa:9f:8f:a3:25:ab:8b:c9:c2:ba:
        cb:b9:e3:5f:3d:e9:b9:f4:f4:f4:d8:00:4c:cc:9e:5a:36:b3:
        d3:53:12:aa:d5:ba:ad:94:a5:21:16:c4:9c:ac:3d:3c:e3:2f:
        53:69:97:6c:2e:e5:82:98:31:e8:47:f9:8d:dc:ab:e2:8d:ec:
        b9:3f:b2:61:20:ad:22:24:f6:ff:90:4a:14:92:38:0e:9b:80:
        3f:1e:11:f2:d8:7b:fd:d4:0c:90:06:82:2c:48:f8:9e:7e:91:
        55:0c:21:e8:dd:95:ac:90:c7:d7:02:af:84:f4:23:08:bb:da:
        cd:a2
-----BEGIN X509 CRL-----
MIIBQjCBrAIBATANBgkqhkiG9w0BAQUFADBJMQswCQYDVQQGEwJVUzEaMBgGA1UE
ChMRVGVzdCBDZXJ0aWZpY2F0ZXMxHjAcBgNVBAMTFXBhdGhMZW5Db25zdHJhaW50
MCBDQRcNMDEwNDE5MTQ1NzIwWhcNMTEwNDE5MTQ1NzIwWqAvMC0wHwYDVR0jBBgw
FoAUIQy1AXZ207MqrCb8qqZP8tahb0swCgYDVR0UBAMCAQEwDQYJKoZIhvcNAQEF
BQADgYEAVnul5WSLMWT6n4+jJauLycK6y7njXz3pufT09NgATMyeWjaz01MSqtW6
rZSlIRbEnKw9POMvU2mXbC7lgpgx6Ef5jdyr4o3suT+yYSCtIiT2/5BKFJI4DpuA
Px4R8th7/dQMkAaCLEj4nn6RVQwh6N2VrJDH1wKvhPQjCLvazaI=
-----END X509 CRL-----

Certificate Revocation List (CRL):
        Version 2 (0x1)
        Signature Algorithm: sha1WithRSAEncryption
        Issuer: /C=US/O=Test Certificates/CN=pathLenConstraint0 subCA
        Last Update: Apr 19 14:57:20 2001 GMT
        Next Update: Apr 19 14:57:20 2011 GMT
        CRL extensions:
            X509v3 Authority Key Identifier: 
                keyid:8E:1F:AB:46:9C:0E:4B:6E:E7:E5:57:88:0C:27:93:FE:27:D6:E7:12

            X509v3 CRL Number: 
                1
No Revoked Certificates.
    Signature Algorithm: sha1WithRSAEncryption
        8b:2d:ce:68:13:85:60:64:90:ea:5e:1d:ad:93:65:9c:93:9e:
        a7:20:49:c9:bc:37:41:b6:05:bb:6e:b9:8e:c6:20:5b:d8:6b:
        a5:76:f7:d1:40:f0:73:d7:19:68:a4:b0:68:ad:63:f0:b1:b5:
        a0:52:b8:f6:ec:55:74:22:37:a5:2f:01:c0:af:a9:69:b8:54:
        e3:0a:3c:06:10:23:3c:0b:7b:0d:e8:6d:ad:9c:36:b3:d3:54:
        9c:6f:4d:c2:e6:35:e0:6b:0b:3b:a8:10:3a:86:78:76:1d:17:
        08:b6:ec:1e:da:17:a1:3c:1b:ed:a7:e3:41:cf:45:cd:d2:b3:
        b5:83
-----BEGIN X509 CRL-----
MIIBRTCBrwIBATANBgkqhkiG9w0BAQUFADBMMQswCQYDVQQGEwJVUzEaMBgGA1UE
ChMRVGVzdCBDZXJ0aWZpY2F0ZXMxITAfBgNVBAMTGHBhdGhMZW5Db25zdHJhaW50
MCBzdWJDQRcNMDEwNDE5MTQ1NzIwWhcNMTEwNDE5MTQ1NzIwWqAvMC0wHwYDVR0j
BBgwFoAUjh+rRpwOS27n5VeIDCeT/ifW5xIwCgYDVR0UBAMCAQEwDQYJKoZIhvcN
AQEFBQADgYEAiy3OaBOFYGSQ6l4drZNlnJOepyBJybw3QbYFu265jsYgW9hrpXb3
0UDwc9cZaKSwaK1j8LG1oFK49uxVdCI3pS8BwK+pabhU4wo8BhAjPAt7DehtrZw2
s9NUnG9NwuY14GsLO6gQOoZ4dh0XCLbsHtoXoTwb7afjQc9FzdKztYM=
-----END X509 CRL-----

Certificate Revocation List (CRL):
        Version 2 (0x1)
        Signature Algorithm: sha1WithRSAEncryption
        Issuer: /C=US/O=Test Certificates/CN=Trust Anchor
        Last Update: Apr 19 14:57:20 2001 GMT
        Next Update: Apr 19 14:57:20 2011 GMT
        CRL extensions:
            X509v3 Authority Key Identifier: 
                keyid:FB:6C:D4:2D:81:9E:CA:27:7A:9E:0D:B0:3C:EA:9A:BC:87:FF:49:EA

            X509v3 CRL Number: 
                1
Revoked Certificates:
    Serial Number: 68
        Revocation Date: Apr 19 14:57:20 2001 GMT
        CRL entry extensions:
            X509v3 CRL Reason Code: 
                Key Compromise
    Signature Algorithm: sha1WithRSAEncryption
        92:12:c4:34:b4:92:ab:ba:71:6b:74:31:16:ce:ed:25:d6:4b:
        1e:fa:f8:20:1e:9d:d7:7f:30:ed:15:f7:8b:5d:64:9b:dd:31:
        40:e4:55:0f:0c:5f:82:69:63:00:76:a5:cf:9e:c4:5f:f2:53:
        9b:9b:7d:f5:69:1d:74:57:38:70:e5:fb:5b:76:58:c9:ec:31:
        dc:94:1b:02:ee:9d:33:9c:38:4b:29:1d:e1:0c:29:8b:6e:c7:
        bf:a0:e8:40:34:83:cf:ff:9f:cd:b5:f7:d9:4d:a7:9f:2e:bf:
        44:98:6b:f2:d3:fe:a8:20:31:c1:33:76:b7:1c:19:65:4d:b9:
        14:39
-----BEGIN X509 CRL-----
MIIBXTCBxwIBATANBgkqhkiG9w0BAQUFADBAMQswCQYDVQQGEwJVUzEaMBgGA1UE
ChMRVGVzdCBDZXJ0aWZpY2F0ZXMxFTATBgNVBAMTDFRydXN0IEFuY2hvchcNMDEw
NDE5MTQ1NzIwWhcNMTEwNDE5MTQ1NzIwWjAiMCACAWgXDTAxMDQxOTE0NTcyMFow
DDAKBgNVHRUEAwoBAaAvMC0wHwYDVR0jBBgwFoAU+2zULYGeyid6ng2wPOqavIf/
SeowCgYDVR0UBAMCAQEwDQYJKoZIhvcNAQEFBQADgYEAkhLENLSSq7pxa3QxFs7t
JdZLHvr4IB6d138w7RX3i11km90xQORVDwxfgmljAHalz57EX/JTm5t99WkddFc4
cOX7W3ZYyewx3JQbAu6dM5w4Sykd4Qwpi27Hv6DoQDSDz/+fzbX32U2nny6/RJhr
8tP+qCAxwTN2txwZZU25FDk=
-----END X509 CRL-----

