subject=/C=US/O=Test Certificates/OU=permittedSubtree1/CN=Invalid DN nameConstraints EE Certificate Test12
issuer=/C=US/O=Test Certificates/OU=permittedSubtree1/CN=nameConstraints DN1 subCA1
-----BEGIN CERTIFICATE-----
MIICzDCCAjWgAwIBAgIBATANBgkqhkiG9w0BAQUFADBqMQswCQYDVQQGEwJVUzEa
MBgGA1UEChMRVGVzdCBDZXJ0aWZpY2F0ZXMxGjAYBgNVBAsTEXBlcm1pdHRlZFN1
YnRyZWUxMSMwIQYDVQQDExpuYW1lQ29uc3RyYWludHMgRE4xIHN1YkNBMTAeFw0w
MTA0MTkxNDU3MjBaFw0xMTA0MTkxNDU3MjBaMIGAMQswCQYDVQQGEwJVUzEaMBgG
A1UEChMRVGVzdCBDZXJ0aWZpY2F0ZXMxGjAYBgNVBAsTEXBlcm1pdHRlZFN1YnRy
ZWUxMTkwNwYDVQQDEzBJbnZhbGlkIEROIG5hbWVDb25zdHJhaW50cyBFRSBDZXJ0
aWZpY2F0ZSBUZXN0MTIwgZ8wDQYJKoZIhvcNAQEBBQADgY0AMIGJAoGBAK3EJPKm
RDv1REuSTNdGYi/Gay9ESpl/z2BBw2n0WqiF9SLFNEuRfTZ7FQVNFQ0qhoP4V2xa
YUeaSgmwZNcIdZg159xf8j2Qkc3uGAQoMGmRp4vbcj1Ev5yFXhvVLPnhp5eE8wKx
u96ZMOfL8M/sxSRrI0zUKEUCMbzK2E0Mr/RBAgMBAAGjazBpMB8GA1UdIwQYMBaA
FO65z9YvjsiFkwj+EBDuo1BY/kIwMB0GA1UdDgQWBBRlWUYl70WL4wPhhb56CsXD
+SjqmzAOBgNVHQ8BAf8EBAMCBPAwFwYDVR0gBBAwDjAMBgpghkgBZQMCATABMA0G
CSqGSIb3DQEBBQUAA4GBAKnGr+IbKqqwN2t7AB4bae9QRHntR6fokA0gcPPMY7qA
GxZGcA1fClTM+WZKr4AoCiDelOsxy45Pim+0bZUtzqtfhWKulkfgpS5cdPZmNj2r
UkLeXnjjTjDm5s8YsQovhy20KPc4VoeYRMhkB5Wika28mXV2l0jFTG1VxcDZ2BxV
-----END CERTIFICATE-----

subject=/C=US/O=Test Certificates/CN=nameConstraints DN1 CA
issuer=/C=US/O=Test Certificates/CN=Trust Anchor
-----BEGIN CERTIFICATE-----
MIIC2TCCAkKgAwIBAgIBPjANBgkqhkiG9w0BAQUFADBAMQswCQYDVQQGEwJVUzEa
MBgGA1UEChMRVGVzdCBDZXJ0aWZpY2F0ZXMxFTATBgNVBAMTDFRydXN0IEFuY2hv
cjAeFw0wMTA0MTkxNDU3MjBaFw0xMTA0MTkxNDU3MjBaMEoxCzAJBgNVBAYTAlVT
MRowGAYDVQQKExFUZXN0IENlcnRpZmljYXRlczEfMB0GA1UEAxMWbmFtZUNvbnN0
cmFpbnRzIEROMSBDQTCBnzANBgkqhkiG9w0BAQEFAAOBjQAwgYkCgYEAnL2vzTK+
WcGR2rmlezdUTUQkfIvzcTWRIVW2x+BxQPrPfoLqmpYZar4sY8ND0l3pQWcIFsGY
AYmm2vHULqUxZMW9R/dM3wqstOXd2JJVxvw/v4ajYB5lPNcrv8LyxxjVU2daqlYX
BCfL9/O6417oYys1UKNtEp6n6HV/ZbEJG70CAwEAAaOB2DCB1TAfBgNVHSMEGDAW
gBT7bNQtgZ7KJ3qeDbA86pq8h/9J6jAdBgNVHQ4EFgQUTi6j59ndi6eCO0FKw558
WSNXTlMwDgYDVR0PAQH/BAQDAgEGMBcGA1UdIAQQMA4wDAYKYIZIAWUDAgEwATAP
BgNVHRMBAf8EBTADAQH/MFkGA1UdHgEB/wRPME2gSzBJpEcwRTELMAkGA1UEBhMC
VVMxGjAYBgNVBAoTEVRlc3QgQ2VydGlmaWNhdGVzMRowGAYDVQQLExFwZXJtaXR0
ZWRTdWJ0cmVlMTANBgkqhkiG9w0BAQUFAAOBgQC9ypqhZWCmrISRla+Nxp/vshOs
UQcyF9Se7PBrkAfl37dg70aSgX0/6Xef8i5v3MRCar6lM8x+coBMHK41VUG9g6VW
2DAoCG3ajBCj48vN0Gd4dUwvsGAmmVuIwH0R/+2IBMp00341fpjIjUrMpxcxDFwe
Ve3YFugTb2fMnETR7A==
-----END CERTIFICATE-----

subject=/C=US/O=Test Certificates/OU=permittedSubtree1/CN=nameConstraints DN1 subCA1
issuer=/C=US/O=Test Certificates/CN=nameConstraints DN1 CA
-----BEGIN CERTIFICATE-----
MIIDHzCCAoigAwIBAgIBBTANBgkqhkiG9w0BAQUFADBKMQswCQYDVQQGEwJVUzEa
MBgGA1UEChMRVGVzdCBDZXJ0aWZpY2F0ZXMxHzAdBgNVBAMTFm5hbWVDb25zdHJh
aW50cyBETjEgQ0EwHhcNMDEwNDE5MTQ1NzIwWhcNMTEwNDE5MTQ1NzIwWjBqMQsw
CQYDVQQGEwJVUzEaMBgGA1UEChMRVGVzdCBDZXJ0aWZpY2F0ZXMxGjAYBgNVBAsT
EXBlcm1pdHRlZFN1YnRyZWUxMSMwIQYDVQQDExpuYW1lQ29uc3RyYWludHMgRE4x
IHN1YkNBMTCBnzANBgkqhkiG9w0BAQEFAAOBjQAwgYkCgYEAtpBRaRDexKAJwtC+
60QonOrQnFJ3VA/u5f6qj4iI30hKCIXL1aeAM5c2KmzL5gO3Vg7dZWw1f9gW2uaj
mpHjfGmScQpaIFP7yNbI29PIlN0h8H2o4I6v7zDCteSnYy2qAkDkNLX6fbVENa7f
eHcx8cvG7W1VNi0PKVQdVBz/PHkCAwEAAaOB9DCB8TAfBgNVHSMEGDAWgBROLqPn
2d2Lp4I7QUrDnnxZI1dOUzAdBgNVHQ4EFgQU7rnP1i+OyIWTCP4QEO6jUFj+QjAw
DgYDVR0PAQH/BAQDAgEGMBcGA1UdIAQQMA4wDAYKYIZIAWUDAgEwATAPBgNVHRMB
Af8EBTADAQH/MHUGA1UdHgEB/wRrMGmgZzBlpGMwYTELMAkGA1UEBhMCVVMxGjAY
BgNVBAoTEVRlc3QgQ2VydGlmaWNhdGVzMRowGAYDVQQLExFwZXJtaXR0ZWRTdWJ0
cmVlMTEaMBgGA1UECxMRcGVybWl0dGVkU3VidHJlZTIwDQYJKoZIhvcNAQEFBQAD
gYEAm5m4xlbfmnv2vDQ/hGoNbPv96saVQ2NMhkH3JVSF5lGUWfamMIsH866TS9Jm
BDWOWMPDF1kL5hLEiGLSWA8ki5s+29AwhYXt0jcwdIbGfGCwVX1w3KF5k1nYv8RR
FhwwXNlM+EKqqLc1nWgaXnsE8fSRMesdyNjQaJdCqRAYFXI=
-----END CERTIFICATE-----

Certificate Revocation List (CRL):
        Version 2 (0x1)
        Signature Algorithm: sha1WithRSAEncryption
        Issuer: /C=US/O=Test Certificates/CN=nameConstraints DN1 CA
        Last Update: Apr 19 14:57:20 2001 GMT
        Next Update: Apr 19 14:57:20 2011 GMT
        CRL extensions:
            X509v3 Authority Key Identifier: 
                keyid:4E:2E:A3:E7:D9:DD:8B:A7:82:3B:41:4A:C3:9E:7C:59:23:57:4E:53

            X509v3 CRL Number: 
                1
No Revoked Certificates.
    Signature Algorithm: sha1WithRSAEncryption
        99:8a:59:ed:d0:76:00:b5:5b:70:91:75:a0:4d:60:16:df:72:
        71:89:61:43:5b:d4:65:f6:8d:0b:25:39:17:86:6d:1d:c4:cc:
        19:3c:20:21:71:5f:a3:5f:d4:52:e6:d1:c4:cb:39:92:65:80:
        74:46:a9:5c:7c:7c:c2:4c:1f:8d:fb:aa:bd:4a:de:6a:3b:0a:
        29:ba:9c:70:13:84:fd:c7:aa:d3:03:99:f0:93:3a:cf:cb:e2:
        39:e9:e3:1b:ff:10:07:a3:51:5c:ff:dd:da:a9:29:05:12:3a:
        f0:10:a1:d8:9c:5e:ec:0f:c3:02:cd:f9:ab:b2:d0:36:32:0e:
        e8:eb
-----BEGIN X509 CRL-----
MIIBQzCBrQIBATANBgkqhkiG9w0BAQUFADBKMQswCQYDVQQGEwJVUzEaMBgGA1UE
ChMRVGVzdCBDZXJ0aWZpY2F0ZXMxHzAdBgNVBAMTFm5hbWVDb25zdHJhaW50cyBE
TjEgQ0EXDTAxMDQxOTE0NTcyMFoXDTExMDQxOTE0NTcyMFqgLzAtMB8GA1UdIwQY
MBaAFE4uo+fZ3YungjtBSsOefFkjV05TMAoGA1UdFAQDAgEBMA0GCSqGSIb3DQEB
BQUAA4GBAJmKWe3QdgC1W3CRdaBNYBbfcnGJYUNb1GX2jQslOReGbR3EzBk8ICFx
X6Nf1FLm0cTLOZJlgHRGqVx8fMJMH437qr1K3mo7Cim6nHAThP3HqtMDmfCTOs/L
4jnp4xv/EAejUVz/3dqpKQUSOvAQodicXuwPwwLN+auy0DYyDujr
-----END X509 CRL-----

Certificate Revocation List (CRL):
        Version 2 (0x1)
        Signature Algorithm: sha1WithRSAEncryption
        Issuer: /C=US/O=Test Certificates/CN=Trust Anchor
        Last Update: Apr 19 14:57:20 2001 GMT
        Next Update: Apr 19 14:57:20 2011 GMT
        CRL extensions:
            X509v3 Authority Key Identifier: 
                keyid:FB:6C:D4:2D:81:9E:CA:27:7A:9E:0D:B0:3C:EA:9A:BC:87:FF:49:EA

            X509v3 CRL Number: 
                1
Revoked Certificates:
    Serial Number: 68
        Revocation Date: Apr 19 14:57:20 2001 GMT
        CRL entry extensions:
            X509v3 CRL Reason Code: 
                Key Compromise
    Signature Algorithm: sha1WithRSAEncryption
        92:12:c4:34:b4:92:ab:ba:71:6b:74:31:16:ce:ed:25:d6:4b:
        1e:fa:f8:20:1e:9d:d7:7f:30:ed:15:f7:8b:5d:64:9b:dd:31:
        40:e4:55:0f:0c:5f:82:69:63:00:76:a5:cf:9e:c4:5f:f2:53:
        9b:9b:7d:f5:69:1d:74:57:38:70:e5:fb:5b:76:58:c9:ec:31:
        dc:94:1b:02:ee:9d:33:9c:38:4b:29:1d:e1:0c:29:8b:6e:c7:
        bf:a0:e8:40:34:83:cf:ff:9f:cd:b5:f7:d9:4d:a7:9f:2e:bf:
        44:98:6b:f2:d3:fe:a8:20:31:c1:33:76:b7:1c:19:65:4d:b9:
        14:39
-----BEGIN X509 CRL-----
MIIBXTCBxwIBATANBgkqhkiG9w0BAQUFADBAMQswCQYDVQQGEwJVUzEaMBgGA1UE
ChMRVGVzdCBDZXJ0aWZpY2F0ZXMxFTATBgNVBAMTDFRydXN0IEFuY2hvchcNMDEw
NDE5MTQ1NzIwWhcNMTEwNDE5MTQ1NzIwWjAiMCACAWgXDTAxMDQxOTE0NTcyMFow
DDAKBgNVHRUEAwoBAaAvMC0wHwYDVR0jBBgwFoAU+2zULYGeyid6ng2wPOqavIf/
SeowCgYDVR0UBAMCAQEwDQYJKoZIhvcNAQEFBQADgYEAkhLENLSSq7pxa3QxFs7t
JdZLHvr4IB6d138w7RX3i11km90xQORVDwxfgmljAHalz57EX/JTm5t99WkddFc4
cOX7W3ZYyewx3JQbAu6dM5w4Sykd4Qwpi27Hv6DoQDSDz/+fzbX32U2nny6/RJhr
8tP+qCAxwTN2txwZZU25FDk=
-----END X509 CRL-----

Certificate Revocation List (CRL):
        Version 2 (0x1)
        Signature Algorithm: sha1WithRSAEncryption
        Issuer: /C=US/O=Test Certificates/OU=permittedSubtree1/CN=nameConstraints DN1 subCA1
        Last Update: Apr 19 14:57:20 2001 GMT
        Next Update: Apr 19 14:57:20 2011 GMT
        CRL extensions:
            X509v3 Authority Key Identifier: 
                keyid:EE:B9:CF:D6:2F:8E:C8:85:93:08:FE:10:10:EE:A3:50:58:FE:42:30

            X509v3 CRL Number: 
                1
No Revoked Certificates.
    Signature Algorithm: sha1WithRSAEncryption
        31:75:7f:a7:8f:25:e4:4b:09:d0:29:6a:68:0c:3c:54:a8:42:
        d4:f8:f7:6e:be:e5:b0:bb:f1:4a:e5:1d:e7:1d:b8:d6:98:ba:
        3c:6f:23:4d:a0:8c:53:2a:5a:13:7e:4f:3c:1b:fc:16:c6:18:
        54:05:e5:fe:b6:48:84:fb:c1:0b:7a:ea:bc:44:55:bf:4a:7a:
        51:1a:e3:a6:d5:94:0f:37:3c:fa:4d:f8:51:ae:c6:74:de:06:
        d8:41:69:92:8e:a2:a8:d9:6c:73:98:d1:63:5d:52:61:7d:90:
        88:c2:0e:ee:ba:eb:74:c9:19:b8:c8:20:f3:09:a3:50:7f:10:
        f9:e0
-----BEGIN X509 CRL-----
MIIBYzCBzQIBATANBgkqhkiG9w0BAQUFADBqMQswCQYDVQQGEwJVUzEaMBgGA1UE
ChMRVGVzdCBDZXJ0aWZpY2F0ZXMxGjAYBgNVBAsTEXBlcm1pdHRlZFN1YnRyZWUx
MSMwIQYDVQQDExpuYW1lQ29uc3RyYWludHMgRE4xIHN1YkNBMRcNMDEwNDE5MTQ1
NzIwWhcNMTEwNDE5MTQ1NzIwWqAvMC0wHwYDVR0jBBgwFoAU7rnP1i+OyIWTCP4Q
EO6jUFj+QjAwCgYDVR0UBAMCAQEwDQYJKoZIhvcNAQEFBQADgYEAMXV/p48l5EsJ
0ClqaAw8VKhC1Pj3br7lsLvxSuUd5x241pi6PG8jTaCMUypaE35PPBv8FsYYVAXl
/rZIhPvBC3rqvERVv0p6URrjptWUDzc8+k34Ua7GdN4G2EFpko6iqNlsc5jRY11S
YX2QiMIO7rrrdMkZuMgg8wmjUH8Q+eA=
-----END X509 CRL-----

