subject=/C=US/O=Test Certificates/CN=Invalid requireExplicitPolicy EE Certificate Test5
issuer=/C=US/O=Test Certificates/CN=requireExplicitPolicy7 subsubsubCARE2RE4
-----BEGIN CERTIFICATE-----
MIICijCCAfOgAwIBAgIBATANBgkqhkiG9w0BAQUFADBcMQswCQYDVQQGEwJVUzEa
MBgGA1UEChMRVGVzdCBDZXJ0aWZpY2F0ZXMxMTAvBgNVBAMTKHJlcXVpcmVFeHBs
aWNpdFBvbGljeTcgc3Vic3Vic3ViQ0FSRTJSRTQwHhcNMDEwNDE5MTQ1NzIwWhcN
MTEwNDE5MTQ1NzIwWjBmMQswCQYDVQQGEwJVUzEaMBgGA1UEChMRVGVzdCBDZXJ0
aWZpY2F0ZXMxOzA5BgNVBAMTMkludmFsaWQgcmVxdWlyZUV4cGxpY2l0UG9saWN5
IEVFIENlcnRpZmljYXRlIFRlc3Q1MIGfMA0GCSqGSIb3DQEBAQUAA4GNADCBiQKB
gQCg0lngplHQSomxVxizv8r33zMQpbWDB+H13FvEhgFq5KE02tWBVkz7vXAr2hXP
Y7LVgaGSQIOZqHrbMR+Izv57cGr+79ResVXZ4ulw8qxCgVrA/1Bty6kmyvQiyQZ/
1z8EARO+Mu2R/XgSx2uCasNmLtgo3Stuop+2coLPfwqW9QIDAQABo1IwUDAfBgNV
HSMEGDAWgBTnAqvOKOVo6WoEaT4ppTZjcAShmjAdBgNVHQ4EFgQUUj/qKg3WunpK
bbAcCDrHDB8Awg8wDgYDVR0PAQH/BAQDAgTwMA0GCSqGSIb3DQEBBQUAA4GBAAZO
rTXTH1bBaJ1hKzh+NWBuI+gHfWUhVlxs3mgw4oCtqqhrbDCBQwA+D5sN/91EPODR
oEUqrZbyUgTQWas37LqDXhoxm9uvX0Z3521iA5pwllvHgtmrNpPxNE1ylbIT5lLa
927kjS03tbzpOlbvFj/OTmh4yyPaeL2oJyvDaC3X
-----END CERTIFICATE-----

subject=/C=US/O=Test Certificates/CN=requireExplicitPolicy7 CA
issuer=/C=US/O=Test Certificates/CN=Trust Anchor
-----BEGIN CERTIFICATE-----
MIICkjCCAfugAwIBAgIBLjANBgkqhkiG9w0BAQUFADBAMQswCQYDVQQGEwJVUzEa
MBgGA1UEChMRVGVzdCBDZXJ0aWZpY2F0ZXMxFTATBgNVBAMTDFRydXN0IEFuY2hv
cjAeFw0wMTA0MTkxNDU3MjBaFw0xMTA0MTkxNDU3MjBaME0xCzAJBgNVBAYTAlVT
MRowGAYDVQQKExFUZXN0IENlcnRpZmljYXRlczEiMCAGA1UEAxMZcmVxdWlyZUV4
cGxpY2l0UG9saWN5NyBDQTCBnzANBgkqhkiG9w0BAQEFAAOBjQAwgYkCgYEAoN8Q
UsSTUjVJGaxxoQdGouge30kgdc3+9+sup5NAWj8oyZQiGa/FlrayJlgnNXIO5xbA
Foe3dhwCEAfsrDIofXlPacb6W9dTxdlh3GwG4GJY9gvfuVfkEb4EaYVyU8J+tmPq
WDI/P7B03nMhQNNChUFIcuBKaAzDRwqIIGd5I7cCAwEAAaOBjjCBizAfBgNVHSME
GDAWgBT7bNQtgZ7KJ3qeDbA86pq8h/9J6jAdBgNVHQ4EFgQUnSIV59sBcIhO8mIv
cMu1wc0QTk0wDgYDVR0PAQH/BAQDAgEGMBcGA1UdIAQQMA4wDAYKYIZIAWUDAgEw
ATAPBgNVHRMBAf8EBTADAQH/MA8GA1UdJAEB/wQFMAOAAQcwDQYJKoZIhvcNAQEF
BQADgYEAL+ADYS2dJuo7zZ5LoNXv2wNfJcyaTU25ajW4jvi4dN4jwEPgqCfrQ1Vy
lf1YHDAzKYc6nIZnG031PEqEFTZmuXCcngo+CFmOpT3O8WOb/vHVolb6Cd5MhCZj
AWkQgkXQ7HW3nIEkPFqNC5ljPrmRkGtu1MjN5jAq70iztFF1hpw=
-----END CERTIFICATE-----

subject=/C=US/O=Test Certificates/CN=requireExplicitPolicy7 subCARE2
issuer=/C=US/O=Test Certificates/CN=requireExplicitPolicy7 CA
-----BEGIN CERTIFICATE-----
MIICpTCCAg6gAwIBAgIBATANBgkqhkiG9w0BAQUFADBNMQswCQYDVQQGEwJVUzEa
MBgGA1UEChMRVGVzdCBDZXJ0aWZpY2F0ZXMxIjAgBgNVBAMTGXJlcXVpcmVFeHBs
aWNpdFBvbGljeTcgQ0EwHhcNMDEwNDE5MTQ1NzIwWhcNMTEwNDE5MTQ1NzIwWjBT
MQswCQYDVQQGEwJVUzEaMBgGA1UEChMRVGVzdCBDZXJ0aWZpY2F0ZXMxKDAmBgNV
BAMTH3JlcXVpcmVFeHBsaWNpdFBvbGljeTcgc3ViQ0FSRTIwgZ8wDQYJKoZIhvcN
AQEBBQADgY0AMIGJAoGBAN8u+z8KfD1wxuMq85cY2R9ISBwrx0kSTvHcxkgfd8Hh
/aOd/f5SUqPS0TsXeUJZ4491ildJLBmeyOsaMXfR1wUCjs1GzCTV2lwmHy1v8TEA
Y8Zk77Z0xk7JM+Qa6sYNBQDvcqMerys/5ky8Lvqentpzs/rW1L3SBQYg2PfJX3S9
AgMBAAGjgY4wgYswHwYDVR0jBBgwFoAUnSIV59sBcIhO8mIvcMu1wc0QTk0wHQYD
VR0OBBYEFOtoCcblL8PzCgZRS7NYc5w5GD9LMA4GA1UdDwEB/wQEAwIBBjAXBgNV
HSAEEDAOMAwGCmCGSAFlAwIBMAEwDwYDVR0TAQH/BAUwAwEB/zAPBgNVHSQBAf8E
BTADgAECMA0GCSqGSIb3DQEBBQUAA4GBACFHfp/nuX3TO1xb40P5+iKE+BZPRduA
ftJoYKvefkbjxlmMHoUdIUcntVLAyhaJlW797m/y+C+FDfkqtbBUFDjycGuAmFgA
y59FSYCF8j4X1ghg+neMHyCzvkhN2IokMmzt3IITVLINy17XKITOwuMtJJSaR34A
e0IQMPlYYnGK
-----END CERTIFICATE-----

subject=/C=US/O=Test Certificates/CN=requireExplicitPolicy7 subsubsubCARE2RE4
issuer=/C=US/O=Test Certificates/CN=requireExplicitPolicy7 subsubCARE2RE4
-----BEGIN CERTIFICATE-----
MIICpzCCAhCgAwIBAgIBATANBgkqhkiG9w0BAQUFADBZMQswCQYDVQQGEwJVUzEa
MBgGA1UEChMRVGVzdCBDZXJ0aWZpY2F0ZXMxLjAsBgNVBAMTJXJlcXVpcmVFeHBs
aWNpdFBvbGljeTcgc3Vic3ViQ0FSRTJSRTQwHhcNMDEwNDE5MTQ1NzIwWhcNMTEw
NDE5MTQ1NzIwWjBcMQswCQYDVQQGEwJVUzEaMBgGA1UEChMRVGVzdCBDZXJ0aWZp
Y2F0ZXMxMTAvBgNVBAMTKHJlcXVpcmVFeHBsaWNpdFBvbGljeTcgc3Vic3Vic3Vi
Q0FSRTJSRTQwgZ8wDQYJKoZIhvcNAQEBBQADgY0AMIGJAoGBALo8WG8R0uWydjHS
XfEB/PfNI/TnhECaPZoH2W5ht/eblnw1w1zAJGFgDQt3USnxkZvjIa/Eud0VJ3KP
1WFyD2IA40YtxHQsVTWF608T2eRLc1URZ23e/C7Op7EiXdo+YoJ7KwhiUyhNxxS6
oIa1OQlAEOurYT7cU1BSxe4X+oY5AgMBAAGjfDB6MB8GA1UdIwQYMBaAFMsSDLuK
o5HnMkT9UFBgNQkdakUmMB0GA1UdDgQWBBTnAqvOKOVo6WoEaT4ppTZjcAShmjAO
BgNVHQ8BAf8EBAMCAQYwFwYDVR0gBBAwDjAMBgpghkgBZQMCATABMA8GA1UdEwEB
/wQFMAMBAf8wDQYJKoZIhvcNAQEFBQADgYEAR64KcgRdPGS/TLDzWJlnI2aOww1U
eFC/9/IQbIeFS6Q6uwO58GzT7DdeGDwBiztdMcGMUx0z0HX9lTVEQu1zWMNnTWuz
7LJPjucrwXeA/s2vhMTA44l0hgMIJjjiLDOJWm3/gI2DWh0HPOGCo/cRdLeXKiyO
O9E/0IzZw84Ul+k=
-----END CERTIFICATE-----

subject=/C=US/O=Test Certificates/CN=requireExplicitPolicy7 subsubCARE2RE4
issuer=/C=US/O=Test Certificates/CN=requireExplicitPolicy7 subCARE2
-----BEGIN CERTIFICATE-----
MIICsTCCAhqgAwIBAgIBATANBgkqhkiG9w0BAQUFADBTMQswCQYDVQQGEwJVUzEa
MBgGA1UEChMRVGVzdCBDZXJ0aWZpY2F0ZXMxKDAmBgNVBAMTH3JlcXVpcmVFeHBs
aWNpdFBvbGljeTcgc3ViQ0FSRTIwHhcNMDEwNDE5MTQ1NzIwWhcNMTEwNDE5MTQ1
NzIwWjBZMQswCQYDVQQGEwJVUzEaMBgGA1UEChMRVGVzdCBDZXJ0aWZpY2F0ZXMx
LjAsBgNVBAMTJXJlcXVpcmVFeHBsaWNpdFBvbGljeTcgc3Vic3ViQ0FSRTJSRTQw
gZ8wDQYJKoZIhvcNAQEBBQADgY0AMIGJAoGBALR5w4GO7XWupkCybIrksb86Qn9A
XltnfkZIGhDabLaMyFOrnfcfJnh1RKKwqJfi8/pF7xDxJL301Qud+jUZc78vFUYT
lMO6u7jmYYl6zLgoshCc4T95EMH8r/qoGx7U4S1o5B9maWm/Xrov12WP7mjPxeBb
BmWY4BAPOQBt6gS9AgMBAAGjgY4wgYswHwYDVR0jBBgwFoAU62gJxuUvw/MKBlFL
s1hznDkYP0swHQYDVR0OBBYEFMsSDLuKo5HnMkT9UFBgNQkdakUmMA4GA1UdDwEB
/wQEAwIBBjAXBgNVHSAEEDAOMAwGCmCGSAFlAwIBMAEwDwYDVR0TAQH/BAUwAwEB
/zAPBgNVHSQBAf8EBTADgAEEMA0GCSqGSIb3DQEBBQUAA4GBACwLeGO55YLNW2d9
1sZkNe3ulFUkXCfVtxfO7FoO7gvCv9xKjnGOef+hnMFeLj5L4UtOUeekpnipm/51
pi2QP8O9Vvwt6YtZ57t+ednuOPORQsvh/SaPSo7GT5H6ILwf4E/JaFiAtuwgYJQX
D9YTw88ufWnBrPQ1yX8ReXseLZPN
-----END CERTIFICATE-----

Certificate Revocation List (CRL):
        Version 2 (0x1)
        Signature Algorithm: sha1WithRSAEncryption
        Issuer: /C=US/O=Test Certificates/CN=requireExplicitPolicy7 CA
        Last Update: Apr 19 14:57:20 2001 GMT
        Next Update: Apr 19 14:57:20 2011 GMT
        CRL extensions:
            X509v3 Authority Key Identifier: 
                keyid:9D:22:15:E7:DB:01:70:88:4E:F2:62:2F:70:CB:B5:C1:CD:10:4E:4D

            X509v3 CRL Number: 
                1
No Revoked Certificates.
    Signature Algorithm: sha1WithRSAEncryption
        95:5b:d2:82:80:08:3a:f4:5f:8a:3a:63:b6:7e:46:e6:49:5f:
        d1:ea:1e:82:24:cf:15:80:4b:37:bd:f2:e4:b7:28:10:54:eb:
        60:d8:3b:e5:be:a0:3e:38:70:aa:d0:7b:0e:98:99:55:9a:0c:
        30:2e:8d:86:ce:65:a1:16:5d:60:55:e9:b4:af:c1:a2:df:cb:
        63:c7:a3:45:82:85:87:4e:2c:7a:3b:52:e7:3f:37:0b:0b:8a:
        41:f2:a8:e8:d9:db:2a:a9:e5:e8:50:4a:bc:f5:51:b2:47:fd:
        8c:73:13:57:cf:97:35:dd:0f:08:a3:c7:cb:ac:2a:cb:53:0d:
        df:45
-----BEGIN X509 CRL-----
MIIBRjCBsAIBATANBgkqhkiG9w0BAQUFADBNMQswCQYDVQQGEwJVUzEaMBgGA1UE
ChMRVGVzdCBDZXJ0aWZpY2F0ZXMxIjAgBgNVBAMTGXJlcXVpcmVFeHBsaWNpdFBv
bGljeTcgQ0EXDTAxMDQxOTE0NTcyMFoXDTExMDQxOTE0NTcyMFqgLzAtMB8GA1Ud
IwQYMBaAFJ0iFefbAXCITvJiL3DLtcHNEE5NMAoGA1UdFAQDAgEBMA0GCSqGSIb3
DQEBBQUAA4GBAJVb0oKACDr0X4o6Y7Z+RuZJX9HqHoIkzxWASze98uS3KBBU62DY
O+W+oD44cKrQew6YmVWaDDAujYbOZaEWXWBV6bSvwaLfy2PHo0WChYdOLHo7Uuc/
NwsLikHyqOjZ2yqp5ehQSrz1UbJH/YxzE1fPlzXdDwijx8usKstTDd9F
-----END X509 CRL-----

Certificate Revocation List (CRL):
        Version 2 (0x1)
        Signature Algorithm: sha1WithRSAEncryption
        Issuer: /C=US/O=Test Certificates/CN=requireExplicitPolicy7 subCARE2
        Last Update: Apr 19 14:57:20 2001 GMT
        Next Update: Apr 19 14:57:20 2011 GMT
        CRL extensions:
            X509v3 Authority Key Identifier: 
                keyid:EB:68:09:C6:E5:2F:C3:F3:0A:06:51:4B:B3:58:73:9C:39:18:3F:4B

            X509v3 CRL Number: 
                1
No Revoked Certificates.
    Signature Algorithm: sha1WithRSAEncryption
        00:dc:24:0a:9b:ba:25:d9:fb:09:b0:e6:d8:9c:61:d1:09:f9:
        f9:d8:09:86:fb:ea:e4:13:5a:c6:0e:0c:53:c6:e2:38:78:70:
        1e:6f:39:25:5c:b5:4f:b7:5c:07:7c:1a:7f:b4:8e:0b:7a:b3:
        6e:85:c9:88:9a:8d:07:d4:f2:8b:8d:e0:49:f0:86:7e:b7:2b:
        a2:be:c4:8d:e5:36:03:b4:47:3b:c1:8d:eb:8d:34:3e:a1:97:
        ce:97:10:84:e9:06:79:72:c1:a1:4c:7a:b3:78:99:97:01:1f:
        90:cd:a4:ed:30:2c:df:36:64:46:ff:c1:0a:9d:61:26:89:c7:
        40:b2
-----BEGIN X509 CRL-----
MIIBTDCBtgIBATANBgkqhkiG9w0BAQUFADBTMQswCQYDVQQGEwJVUzEaMBgGA1UE
ChMRVGVzdCBDZXJ0aWZpY2F0ZXMxKDAmBgNVBAMTH3JlcXVpcmVFeHBsaWNpdFBv
bGljeTcgc3ViQ0FSRTIXDTAxMDQxOTE0NTcyMFoXDTExMDQxOTE0NTcyMFqgLzAt
MB8GA1UdIwQYMBaAFOtoCcblL8PzCgZRS7NYc5w5GD9LMAoGA1UdFAQDAgEBMA0G
CSqGSIb3DQEBBQUAA4GBAADcJAqbuiXZ+wmw5ticYdEJ+fnYCYb76uQTWsYODFPG
4jh4cB5vOSVctU+3XAd8Gn+0jgt6s26FyYiajQfU8ouN4Enwhn63K6K+xI3lNgO0
RzvBjeuNND6hl86XEITpBnlywaFMerN4mZcBH5DNpO0wLN82ZEb/wQqdYSaJx0Cy
-----END X509 CRL-----

Certificate Revocation List (CRL):
        Version 2 (0x1)
        Signature Algorithm: sha1WithRSAEncryption
        Issuer: /C=US/O=Test Certificates/CN=requireExplicitPolicy7 subsubCARE2RE4
        Last Update: Apr 19 14:57:20 2001 GMT
        Next Update: Apr 19 14:57:20 2011 GMT
        CRL extensions:
            X509v3 Authority Key Identifier: 
                keyid:CB:12:0C:BB:8A:A3:91:E7:32:44:FD:50:50:60:35:09:1D:6A:45:26

            X509v3 CRL Number: 
                1
No Revoked Certificates.
    Signature Algorithm: sha1WithRSAEncryption
        a6:50:12:5a:4a:b8:b4:85:a7:62:1c:b0:bf:67:05:d6:37:9f:
        56:37:ff:51:90:9e:8e:f1:7a:27:03:e2:02:8d:2b:64:0f:fc:
        db:28:76:69:63:2c:36:63:48:43:12:3f:06:7b:29:87:cf:2d:
        7a:05:9f:8b:03:3f:be:fd:e7:0f:fb:5c:19:fb:c1:35:b1:27:
        17:dd:00:b4:10:70:f0:92:79:33:0b:05:89:8b:07:c1:96:2e:
        72:03:00:ce:db:e7:a0:f6:05:69:15:e4:c7:7f:4a:ba:e7:ff:
        9a:f0:6f:98:f9:e9:aa:df:d4:c4:7b:14:d6:1e:8d:a7:83:48:
        33:a8
-----BEGIN X509 CRL-----
MIIBUjCBvAIBATANBgkqhkiG9w0BAQUFADBZMQswCQYDVQQGEwJVUzEaMBgGA1UE
ChMRVGVzdCBDZXJ0aWZpY2F0ZXMxLjAsBgNVBAMTJXJlcXVpcmVFeHBsaWNpdFBv
bGljeTcgc3Vic3ViQ0FSRTJSRTQXDTAxMDQxOTE0NTcyMFoXDTExMDQxOTE0NTcy
MFqgLzAtMB8GA1UdIwQYMBaAFMsSDLuKo5HnMkT9UFBgNQkdakUmMAoGA1UdFAQD
AgEBMA0GCSqGSIb3DQEBBQUAA4GBAKZQElpKuLSFp2IcsL9nBdY3n1Y3/1GQno7x
eicD4gKNK2QP/NsodmljLDZjSEMSPwZ7KYfPLXoFn4sDP7795w/7XBn7wTWxJxfd
ALQQcPCSeTMLBYmLB8GWLnIDAM7b56D2BWkV5Md/Srrn/5rwb5j56arf1MR7FNYe
jaeDSDOo
-----END X509 CRL-----

Certificate Revocation List (CRL):
        Version 2 (0x1)
        Signature Algorithm: sha1WithRSAEncryption
        Issuer: /C=US/O=Test Certificates/CN=requireExplicitPolicy7 subsubsubCARE2RE4
        Last Update: Apr 19 14:57:20 2001 GMT
        Next Update: Apr 19 14:57:20 2011 GMT
        CRL extensions:
            X509v3 Authority Key Identifier: 
                keyid:E7:02:AB:CE:28:E5:68:E9:6A:04:69:3E:29:A5:36:63:70:04:A1:9A

            X509v3 CRL Number: 
                1
No Revoked Certificates.
    Signature Algorithm: sha1WithRSAEncryption
        01:2e:d1:19:d1:46:60:25:13:6f:1e:9c:04:5b:c9:4f:6e:e2:
        fe:f6:3a:8c:eb:4d:50:cd:03:36:d9:aa:cf:ce:14:30:7e:8a:
        0c:24:6d:67:63:c8:87:69:a4:1b:cd:86:aa:d2:3b:40:38:c9:
        f9:ff:19:47:8d:23:f1:3e:dc:f8:9f:d1:af:30:a5:47:59:cf:
        8a:c2:0e:8f:2a:8c:9c:d9:78:63:5d:8c:cf:18:1c:79:fa:13:
        0e:3e:f0:8e:0f:97:dc:67:28:af:5f:19:6d:01:87:e5:e0:26:
        8d:03:8b:91:f5:69:f6:09:30:f8:5e:d0:79:e2:86:51:36:32:
        1f:48
-----BEGIN X509 CRL-----
MIIBVTCBvwIBATANBgkqhkiG9w0BAQUFADBcMQswCQYDVQQGEwJVUzEaMBgGA1UE
ChMRVGVzdCBDZXJ0aWZpY2F0ZXMxMTAvBgNVBAMTKHJlcXVpcmVFeHBsaWNpdFBv
bGljeTcgc3Vic3Vic3ViQ0FSRTJSRTQXDTAxMDQxOTE0NTcyMFoXDTExMDQxOTE0
NTcyMFqgLzAtMB8GA1UdIwQYMBaAFOcCq84o5WjpagRpPimlNmNwBKGaMAoGA1Ud
FAQDAgEBMA0GCSqGSIb3DQEBBQUAA4GBAAEu0RnRRmAlE28enARbyU9u4v72Oozr
TVDNAzbZqs/OFDB+igwkbWdjyIdppBvNhqrSO0A4yfn/GUeNI/E+3Pif0a8wpUdZ
z4rCDo8qjJzZeGNdjM8YHHn6Ew4+8I4Pl9xnKK9fGW0Bh+XgJo0Di5H1afYJMPhe
0HnihlE2Mh9I
-----END X509 CRL-----

Certificate Revocation List (CRL):
        Version 2 (0x1)
        Signature Algorithm: sha1WithRSAEncryption
        Issuer: /C=US/O=Test Certificates/CN=Trust Anchor
        Last Update: Apr 19 14:57:20 2001 GMT
        Next Update: Apr 19 14:57:20 2011 GMT
        CRL extensions:
            X509v3 Authority Key Identifier: 
                keyid:FB:6C:D4:2D:81:9E:CA:27:7A:9E:0D:B0:3C:EA:9A:BC:87:FF:49:EA

            X509v3 CRL Number: 
                1
Revoked Certificates:
    Serial Number: 68
        Revocation Date: Apr 19 14:57:20 2001 GMT
        CRL entry extensions:
            X509v3 CRL Reason Code: 
                Key Compromise
    Signature Algorithm: sha1WithRSAEncryption
        92:12:c4:34:b4:92:ab:ba:71:6b:74:31:16:ce:ed:25:d6:4b:
        1e:fa:f8:20:1e:9d:d7:7f:30:ed:15:f7:8b:5d:64:9b:dd:31:
        40:e4:55:0f:0c:5f:82:69:63:00:76:a5:cf:9e:c4:5f:f2:53:
        9b:9b:7d:f5:69:1d:74:57:38:70:e5:fb:5b:76:58:c9:ec:31:
        dc:94:1b:02:ee:9d:33:9c:38:4b:29:1d:e1:0c:29:8b:6e:c7:
        bf:a0:e8:40:34:83:cf:ff:9f:cd:b5:f7:d9:4d:a7:9f:2e:bf:
        44:98:6b:f2:d3:fe:a8:20:31:c1:33:76:b7:1c:19:65:4d:b9:
        14:39
-----BEGIN X509 CRL-----
MIIBXTCBxwIBATANBgkqhkiG9w0BAQUFADBAMQswCQYDVQQGEwJVUzEaMBgGA1UE
ChMRVGVzdCBDZXJ0aWZpY2F0ZXMxFTATBgNVBAMTDFRydXN0IEFuY2hvchcNMDEw
NDE5MTQ1NzIwWhcNMTEwNDE5MTQ1NzIwWjAiMCACAWgXDTAxMDQxOTE0NTcyMFow
DDAKBgNVHRUEAwoBAaAvMC0wHwYDVR0jBBgwFoAU+2zULYGeyid6ng2wPOqavIf/
SeowCgYDVR0UBAMCAQEwDQYJKoZIhvcNAQEFBQADgYEAkhLENLSSq7pxa3QxFs7t
JdZLHvr4IB6d138w7RX3i11km90xQORVDwxfgmljAHalz57EX/JTm5t99WkddFc4
cOX7W3ZYyewx3JQbAu6dM5w4Sykd4Qwpi27Hv6DoQDSDz/+fzbX32U2nny6/RJhr
8tP+qCAxwTN2txwZZU25FDk=
-----END X509 CRL-----

