subject=/C=US/O=Test Certificates/CN=onlyContainsUserCerts CA
issuer=/C=US/O=Test Certificates/CN=Trust Anchor
-----BEGIN CERTIFICATE-----
MIICfjCCAeegAwIBAgIBTTANBgkqhkiG9w0BAQUFADBAMQswCQYDVQQGEwJVUzEa
MBgGA1UEChMRVGVzdCBDZXJ0aWZpY2F0ZXMxFTATBgNVBAMTDFRydXN0IEFuY2hv
cjAeFw0wMTA0MTkxNDU3MjBaFw0xMTA0MTkxNDU3MjBaMEwxCzAJBgNVBAYTAlVT
MRowGAYDVQQKExFUZXN0IENlcnRpZmljYXRlczEhMB8GA1UEAxMYb25seUNvbnRh
aW5zVXNlckNlcnRzIENBMIGfMA0GCSqGSIb3DQEBAQUAA4GNADCBiQKBgQC9uYsu
53u2+DI6YJnVIbUEBXbifJtOvR4Id3dAWtLRtp1J1/cjbUdtunT8MP8UdMiOu5GH
qkkjCow40bwn18zVUFC+tbTitFHZwkcY6vpoBiYh7kfUGyOWMuGhYDDmL6f1GyGq
1cPMSG3TI65vxTRu69NqZ6A69+6oecCzEhZwDQIDAQABo3wwejAfBgNVHSMEGDAW
gBT7bNQtgZ7KJ3qeDbA86pq8h/9J6jAdBgNVHQ4EFgQUWss3HtJGmFwTlfjfuDr/
EUCtFfIwDgYDVR0PAQH/BAQDAgEGMBcGA1UdIAQQMA4wDAYKYIZIAWUDAgEwATAP
BgNVHRMBAf8EBTADAQH/MA0GCSqGSIb3DQEBBQUAA4GBAB4p94csINQawOHlCIzE
BoDqe6fIaND41iV0Ho1HK5OQyoKdGUAUm3cuoyXOmA++mMrGdqZd+xqQswur3Ve1
iKj1z3ZAfFHI07GT7nOS9yTHPwIwW1FaFsaMkJyHm5McmiVJ2RVPcuhZM8Hg/O1t
lEtxFRbVcGf+7bi5eI/HHmmB
-----END CERTIFICATE-----

subject=/C=US/O=Test Certificates/CN=Invalid onlyContainsUserCerts EE Certificate Test11
issuer=/C=US/O=Test Certificates/CN=onlyContainsUserCerts CA
-----BEGIN CERTIFICATE-----
MIICpTCCAg6gAwIBAgIBATANBgkqhkiG9w0BAQUFADBMMQswCQYDVQQGEwJVUzEa
MBgGA1UEChMRVGVzdCBDZXJ0aWZpY2F0ZXMxITAfBgNVBAMTGG9ubHlDb250YWlu
c1VzZXJDZXJ0cyBDQTAeFw0wMTA0MTkxNDU3MjBaFw0xMTA0MTkxNDU3MjBaMGcx
CzAJBgNVBAYTAlVTMRowGAYDVQQKExFUZXN0IENlcnRpZmljYXRlczE8MDoGA1UE
AxMzSW52YWxpZCBvbmx5Q29udGFpbnNVc2VyQ2VydHMgRUUgQ2VydGlmaWNhdGUg
VGVzdDExMIGfMA0GCSqGSIb3DQEBAQUAA4GNADCBiQKBgQDgvtvHKcfaEySW+gTB
goP/idcErgtO4WHFdiTLJV2wwSRVKNwruXMNUfgnsksQ+Tqa24KJWAJpnh44cvcT
C63piJcmXs35SuSRbS3kefpDW1HmvkZUJ+xEp+jouS6IXKBI+bX0iASJpBC8rDtw
TdyTa1MWv7veksCshAZr3cxBgQIDAQABo3wwejAfBgNVHSMEGDAWgBRayzce0kaY
XBOV+N+4Ov8RQK0V8jAdBgNVHQ4EFgQUb0/1XSOZ9YvHmG7rvM8eBcBgOI8wDgYD
VR0PAQH/BAQDAgH2MBcGA1UdIAQQMA4wDAYKYIZIAWUDAgEwATAPBgNVHRMBAf8E
BTADAQH/MA0GCSqGSIb3DQEBBQUAA4GBAJybyf0fbsSEKPlQbxKeyZBQXdWfQGeo
1NVyDN87XSKQUe9fech7qiUC4Ua2z7mWrIIbDBylvl7ff0NFiPTK6+tl4Rt+zaX9
qzA+dIuVr/7NPrlaTSmJglaX5n1/2h/dYhFbJUXe5L5FOpE3uq/Cp83MC5AQzDxR
UrWoUQdNtOhm
-----END CERTIFICATE-----

Certificate Revocation List (CRL):
        Version 2 (0x1)
        Signature Algorithm: sha1WithRSAEncryption
        Issuer: /C=US/O=Test Certificates/CN=onlyContainsUserCerts CA
        Last Update: Apr 19 14:57:20 2001 GMT
        Next Update: Apr 19 14:57:20 2011 GMT
        CRL extensions:
            X509v3 Authority Key Identifier: 
                keyid:5A:CB:37:1E:D2:46:98:5C:13:95:F8:DF:B8:3A:FF:11:40:AD:15:F2

            X509v3 CRL Number: 
                1
            2.5.29.28: critical
                0....
No Revoked Certificates.
    Signature Algorithm: sha1WithRSAEncryption
        52:63:40:55:91:4a:88:23:0d:64:84:b4:3e:50:a2:0c:ba:30:
        81:b2:86:2f:ce:0e:b5:b7:e0:c2:d5:10:63:82:0e:88:ab:90:
        d6:a4:df:11:22:96:15:f3:7e:cd:ce:0b:87:54:0b:3f:60:c7:
        6b:a6:04:9a:25:8d:51:af:b2:c4:da:f9:d5:63:57:f2:b8:f8:
        07:d1:bf:0b:a3:77:a7:e6:e3:87:a0:97:5d:4a:41:07:b9:36:
        98:bd:54:93:95:32:d9:7c:07:83:e5:d7:54:77:be:e4:eb:e1:
        03:fa:e7:83:fd:78:45:4b:a0:42:87:52:c1:1c:18:06:4f:39:
        f3:09
-----BEGIN X509 CRL-----
MIIBVjCBwAIBATANBgkqhkiG9w0BAQUFADBMMQswCQYDVQQGEwJVUzEaMBgGA1UE
ChMRVGVzdCBDZXJ0aWZpY2F0ZXMxITAfBgNVBAMTGG9ubHlDb250YWluc1VzZXJD
ZXJ0cyBDQRcNMDEwNDE5MTQ1NzIwWhcNMTEwNDE5MTQ1NzIwWqBAMD4wHwYDVR0j
BBgwFoAUWss3HtJGmFwTlfjfuDr/EUCtFfIwCgYDVR0UBAMCAQEwDwYDVR0cAQH/
BAUwA4EB/zANBgkqhkiG9w0BAQUFAAOBgQBSY0BVkUqIIw1khLQ+UKIMujCBsoYv
zg61t+DC1RBjgg6Iq5DWpN8RIpYV837NzguHVAs/YMdrpgSaJY1Rr7LE2vnVY1fy
uPgH0b8Lo3en5uOHoJddSkEHuTaYvVSTlTLZfAeD5ddUd77k6+ED+ueD/XhFS6BC
h1LBHBgGTznzCQ==
-----END X509 CRL-----

Certificate Revocation List (CRL):
        Version 2 (0x1)
        Signature Algorithm: sha1WithRSAEncryption
        Issuer: /C=US/O=Test Certificates/CN=Trust Anchor
        Last Update: Apr 19 14:57:20 2001 GMT
        Next Update: Apr 19 14:57:20 2011 GMT
        CRL extensions:
            X509v3 Authority Key Identifier: 
                keyid:FB:6C:D4:2D:81:9E:CA:27:7A:9E:0D:B0:3C:EA:9A:BC:87:FF:49:EA

            X509v3 CRL Number: 
                1
Revoked Certificates:
    Serial Number: 68
        Revocation Date: Apr 19 14:57:20 2001 GMT
        CRL entry extensions:
            X509v3 CRL Reason Code: 
                Key Compromise
    Signature Algorithm: sha1WithRSAEncryption
        92:12:c4:34:b4:92:ab:ba:71:6b:74:31:16:ce:ed:25:d6:4b:
        1e:fa:f8:20:1e:9d:d7:7f:30:ed:15:f7:8b:5d:64:9b:dd:31:
        40:e4:55:0f:0c:5f:82:69:63:00:76:a5:cf:9e:c4:5f:f2:53:
        9b:9b:7d:f5:69:1d:74:57:38:70:e5:fb:5b:76:58:c9:ec:31:
        dc:94:1b:02:ee:9d:33:9c:38:4b:29:1d:e1:0c:29:8b:6e:c7:
        bf:a0:e8:40:34:83:cf:ff:9f:cd:b5:f7:d9:4d:a7:9f:2e:bf:
        44:98:6b:f2:d3:fe:a8:20:31:c1:33:76:b7:1c:19:65:4d:b9:
        14:39
-----BEGIN X509 CRL-----
MIIBXTCBxwIBATANBgkqhkiG9w0BAQUFADBAMQswCQYDVQQGEwJVUzEaMBgGA1UE
ChMRVGVzdCBDZXJ0aWZpY2F0ZXMxFTATBgNVBAMTDFRydXN0IEFuY2hvchcNMDEw
NDE5MTQ1NzIwWhcNMTEwNDE5MTQ1NzIwWjAiMCACAWgXDTAxMDQxOTE0NTcyMFow
DDAKBgNVHRUEAwoBAaAvMC0wHwYDVR0jBBgwFoAU+2zULYGeyid6ng2wPOqavIf/
SeowCgYDVR0UBAMCAQEwDQYJKoZIhvcNAQEFBQADgYEAkhLENLSSq7pxa3QxFs7t
JdZLHvr4IB6d138w7RX3i11km90xQORVDwxfgmljAHalz57EX/JTm5t99WkddFc4
cOX7W3ZYyewx3JQbAu6dM5w4Sykd4Qwpi27Hv6DoQDSDz/+fzbX32U2nny6/RJhr
8tP+qCAxwTN2txwZZU25FDk=
-----END X509 CRL-----

