subject=/C=US/O=Test Certificates/CN=Invalid inhibitAnyPolicy EE Certificate Test6
issuer=/C=US/O=Test Certificates/CN=inhibitAnyPolicy1 subCAIAP5
-----BEGIN CERTIFICATE-----
MIICizCCAfSgAwIBAgIBATANBgkqhkiG9w0BAQUFADBPMQswCQYDVQQGEwJVUzEa
MBgGA1UEChMRVGVzdCBDZXJ0aWZpY2F0ZXMxJDAiBgNVBAMTG2luaGliaXRBbnlQ
b2xpY3kxIHN1YkNBSUFQNTAeFw0wMTA0MTkxNDU3MjBaFw0xMTA0MTkxNDU3MjBa
MGExCzAJBgNVBAYTAlVTMRowGAYDVQQKExFUZXN0IENlcnRpZmljYXRlczE2MDQG
A1UEAxMtSW52YWxpZCBpbmhpYml0QW55UG9saWN5IEVFIENlcnRpZmljYXRlIFRl
c3Q2MIGfMA0GCSqGSIb3DQEBAQUAA4GNADCBiQKBgQDmovuW9G83CLO5Kfr9ogDW
3M2PMCzM46Btwj9BIzBg6T+Z0toxnoHQHTRXf2tp8Nj5bLXb66AotgJeHWXGrGxI
Kjx0w4OKRuhiBVjMsT7gJmbmJ9neH+D6gfc83LPzHtMNrH0OPlfAEiCXGfTeHBug
bMfQlc3WJ747aWkIv54emwIDAQABo2UwYzAfBgNVHSMEGDAWgBQFKWMS3ubCghc9
e190DHOosBJvaDAdBgNVHQ4EFgQUswzkrq5gD2HHDjnsZYw9qjeh7WEwDgYDVR0P
AQH/BAQDAgTwMBEGA1UdIAQKMAgwBgYEVR0gADANBgkqhkiG9w0BAQUFAAOBgQBl
Ndj1mSjoh6od200M/46rSMjCcoQ92FMFygp/7mEK3MomCWTKikCKTp1xDYS20vE6
R2hCQlhkV2nRYNoSLvYM88uba0diTZDbX+txbiJ1DX82U9f0/zpXhCVLxc962ftK
ZneaZF9AzYxqTvGS1yOwGFV7jimzg4ZdSKWcUX44+g==
-----END CERTIFICATE-----

subject=/C=US/O=Test Certificates/CN=inhibitAnyPolicy1 CA
issuer=/C=US/O=Test Certificates/CN=Trust Anchor
-----BEGIN CERTIFICATE-----
MIICmTCCAgKgAwIBAgIBPDANBgkqhkiG9w0BAQUFADBAMQswCQYDVQQGEwJVUzEa
MBgGA1UEChMRVGVzdCBDZXJ0aWZpY2F0ZXMxFTATBgNVBAMTDFRydXN0IEFuY2hv
cjAeFw0wMTA0MTkxNDU3MjBaFw0xMTA0MTkxNDU3MjBaMEgxCzAJBgNVBAYTAlVT
MRowGAYDVQQKExFUZXN0IENlcnRpZmljYXRlczEdMBsGA1UEAxMUaW5oaWJpdEFu
eVBvbGljeTEgQ0EwgZ8wDQYJKoZIhvcNAQEBBQADgY0AMIGJAoGBAM97WBxcmLvJ
SCQLpyIPIhnb86f8mT4hWgvgIiFRNZDdlqrMl5D754iGLwoSRYWm6NZzneNuxpXa
sX+q9JyoOc6/7ZQy37w/cp6Elcq77KWgALd2zRbEAbFOtdy216GpPB+3c9I7msQT
W6bbzzGuqbTxaEEvWptSCBqXuFY6FR+XAgMBAAGjgZowgZcwHwYDVR0jBBgwFoAU
+2zULYGeyid6ng2wPOqavIf/SeowHQYDVR0OBBYEFGbbtZTHBcSzPiuRud/IqNBN
KzREMA4GA1UdDwEB/wQEAwIBBjAXBgNVHSAEEDAOMAwGCmCGSAFlAwIBMAEwDwYD
VR0TAQH/BAUwAwEB/zAMBgNVHSQEBTADgAEAMA0GA1UdNgEB/wQDAgEBMA0GCSqG
SIb3DQEBBQUAA4GBAJTqlrUt2/8sAjVasjqUiKDtFgaFp8ueEU93bKb/90sW+uxF
HCyYOqmVYnjKLDGYR0rR9R9hErIFwlqIz3ff2K6cq7ND2uLm8BctGWmvP3s56y7V
CooCKzBgRilaPqsJw12BrGGjZ4CaYx8ov4puyRW11UjrAcWn/8AIWCmIPuzH
-----END CERTIFICATE-----

subject=/C=US/O=Test Certificates/CN=inhibitAnyPolicy1 subCAIAP5
issuer=/C=US/O=Test Certificates/CN=inhibitAnyPolicy1 CA
-----BEGIN CERTIFICATE-----
MIICmjCCAgOgAwIBAgIBAjANBgkqhkiG9w0BAQUFADBIMQswCQYDVQQGEwJVUzEa
MBgGA1UEChMRVGVzdCBDZXJ0aWZpY2F0ZXMxHTAbBgNVBAMTFGluaGliaXRBbnlQ
b2xpY3kxIENBMB4XDTAxMDQxOTE0NTcyMFoXDTExMDQxOTE0NTcyMFowTzELMAkG
A1UEBhMCVVMxGjAYBgNVBAoTEVRlc3QgQ2VydGlmaWNhdGVzMSQwIgYDVQQDExtp
bmhpYml0QW55UG9saWN5MSBzdWJDQUlBUDUwgZ8wDQYJKoZIhvcNAQEBBQADgY0A
MIGJAoGBANW9X4Le7QZci9gVhxS6PY2u0Fxe2EtutUH8zZO66QHNyygwW510D4dQ
tOvvKfuiS+Ciu2PV2zjc2AcL5U1x9j6hGKIl7NbVFo+mZbBV6GzWLP+oaTy8oz69
BNSDXwFW6FPTOQbaiyRa8f4nXVFl3QQYM8jTdGGS9lalXnxusSE3AgMBAAGjgYww
gYkwHwYDVR0jBBgwFoAUZtu1lMcFxLM+K5G538io0E0rNEQwHQYDVR0OBBYEFAUp
YxLe5sKCFz17X3QMc6iwEm9oMA4GA1UdDwEB/wQEAwIBBjAXBgNVHSAEEDAOMAwG
CmCGSAFlAwIBMAEwDwYDVR0TAQH/BAUwAwEB/zANBgNVHTYBAf8EAwIBBTANBgkq
hkiG9w0BAQUFAAOBgQCzfOac7wbFryN6VSS2bfYlcBtdLypBJugZaDururS3VvRk
Y9SVSAQSh/m+ydbzhZ8LyNw7e7Uj4mjGuyFzznlAHsWxyO0JTPbhUwutJ3QrQhJW
kIbsGR97otFLnmhZwotzU9dr0LhhJEqeyrM64zPoOT2SyhbooCh7Oh27eUSSjg==
-----END CERTIFICATE-----

Certificate Revocation List (CRL):
        Version 2 (0x1)
        Signature Algorithm: sha1WithRSAEncryption
        Issuer: /C=US/O=Test Certificates/CN=inhibitAnyPolicy1 CA
        Last Update: Apr 19 14:57:20 2001 GMT
        Next Update: Apr 19 14:57:20 2011 GMT
        CRL extensions:
            X509v3 Authority Key Identifier: 
                keyid:66:DB:B5:94:C7:05:C4:B3:3E:2B:91:B9:DF:C8:A8:D0:4D:2B:34:44

            X509v3 CRL Number: 
                1
No Revoked Certificates.
    Signature Algorithm: sha1WithRSAEncryption
        03:a6:22:4b:c0:43:a0:ed:e5:8e:d1:8b:0b:d2:cc:b6:8b:9b:
        21:e8:fc:2f:84:a1:cd:3c:a0:bf:73:be:9a:00:f2:b4:90:e5:
        15:a0:31:87:2b:61:f0:cd:3e:ad:db:d8:2d:91:db:ba:8f:5c:
        fd:95:59:36:0c:ba:0b:f1:79:a9:68:96:a1:2e:14:cc:0b:6a:
        43:93:0a:80:71:b7:3e:8e:3a:da:74:31:5c:1c:ec:82:b9:3c:
        88:ff:6f:51:05:f5:f8:d8:47:c2:9f:3d:3c:5c:98:be:f0:de:
        9d:d8:a6:56:e9:53:62:cd:09:56:91:c7:ea:c8:bb:2e:05:a6:
        38:b5
-----BEGIN X509 CRL-----
MIIBQTCBqwIBATANBgkqhkiG9w0BAQUFADBIMQswCQYDVQQGEwJVUzEaMBgGA1UE
ChMRVGVzdCBDZXJ0aWZpY2F0ZXMxHTAbBgNVBAMTFGluaGliaXRBbnlQb2xpY3kx
IENBFw0wMTA0MTkxNDU3MjBaFw0xMTA0MTkxNDU3MjBaoC8wLTAfBgNVHSMEGDAW
gBRm27WUxwXEsz4rkbnfyKjQTSs0RDAKBgNVHRQEAwIBATANBgkqhkiG9w0BAQUF
AAOBgQADpiJLwEOg7eWO0YsL0sy2i5sh6PwvhKHNPKC/c76aAPK0kOUVoDGHK2Hw
zT6t29gtkdu6j1z9lVk2DLoL8XmpaJahLhTMC2pDkwqAcbc+jjradDFcHOyCuTyI
/29RBfX42EfCnz08XJi+8N6d2KZW6VNizQlWkcfqyLsuBaY4tQ==
-----END X509 CRL-----

Certificate Revocation List (CRL):
        Version 2 (0x1)
        Signature Algorithm: sha1WithRSAEncryption
        Issuer: /C=US/O=Test Certificates/CN=inhibitAnyPolicy1 subCAIAP5
        Last Update: Apr 19 14:57:20 2001 GMT
        Next Update: Apr 19 14:57:20 2011 GMT
        CRL extensions:
            X509v3 Authority Key Identifier: 
                keyid:05:29:63:12:DE:E6:C2:82:17:3D:7B:5F:74:0C:73:A8:B0:12:6F:68

            X509v3 CRL Number: 
                1
No Revoked Certificates.
    Signature Algorithm: sha1WithRSAEncryption
        cf:a9:d2:6e:1b:81:59:22:25:1b:6b:2a:df:26:ac:ee:64:cf:
        2d:65:1b:ad:15:43:22:fd:7b:ec:84:c0:8d:4e:b1:17:dc:9d:
        ae:d3:45:ba:91:2d:b6:7c:be:a5:80:5c:d6:e2:89:80:fe:54:
        8e:15:90:f8:dd:e4:0d:c6:16:c2:24:6e:61:94:44:6a:fe:4d:
        44:ac:be:fb:46:4c:c7:3b:24:36:10:c1:d5:9c:89:3e:a6:f8:
        f3:7e:0c:79:08:65:68:a0:c5:18:30:4c:d3:e4:c1:c8:7e:2d:
        9a:65:b6:e0:84:2c:b2:58:e2:fc:96:8f:95:13:cb:e1:e5:fa:
        e8:9b
-----BEGIN X509 CRL-----
MIIBSDCBsgIBATANBgkqhkiG9w0BAQUFADBPMQswCQYDVQQGEwJVUzEaMBgGA1UE
ChMRVGVzdCBDZXJ0aWZpY2F0ZXMxJDAiBgNVBAMTG2luaGliaXRBbnlQb2xpY3kx
IHN1YkNBSUFQNRcNMDEwNDE5MTQ1NzIwWhcNMTEwNDE5MTQ1NzIwWqAvMC0wHwYD
VR0jBBgwFoAUBSljEt7mwoIXPXtfdAxzqLASb2gwCgYDVR0UBAMCAQEwDQYJKoZI
hvcNAQEFBQADgYEAz6nSbhuBWSIlG2sq3yas7mTPLWUbrRVDIv177ITAjU6xF9yd
rtNFupEttny+pYBc1uKJgP5UjhWQ+N3kDcYWwiRuYZREav5NRKy++0ZMxzskNhDB
1ZyJPqb4834MeQhlaKDFGDBM0+TByH4tmmW24IQsslji/JaPlRPL4eX66Js=
-----END X509 CRL-----

Certificate Revocation List (CRL):
        Version 2 (0x1)
        Signature Algorithm: sha1WithRSAEncryption
        Issuer: /C=US/O=Test Certificates/CN=Trust Anchor
        Last Update: Apr 19 14:57:20 2001 GMT
        Next Update: Apr 19 14:57:20 2011 GMT
        CRL extensions:
            X509v3 Authority Key Identifier: 
                keyid:FB:6C:D4:2D:81:9E:CA:27:7A:9E:0D:B0:3C:EA:9A:BC:87:FF:49:EA

            X509v3 CRL Number: 
                1
Revoked Certificates:
    Serial Number: 68
        Revocation Date: Apr 19 14:57:20 2001 GMT
        CRL entry extensions:
            X509v3 CRL Reason Code: 
                Key Compromise
    Signature Algorithm: sha1WithRSAEncryption
        92:12:c4:34:b4:92:ab:ba:71:6b:74:31:16:ce:ed:25:d6:4b:
        1e:fa:f8:20:1e:9d:d7:7f:30:ed:15:f7:8b:5d:64:9b:dd:31:
        40:e4:55:0f:0c:5f:82:69:63:00:76:a5:cf:9e:c4:5f:f2:53:
        9b:9b:7d:f5:69:1d:74:57:38:70:e5:fb:5b:76:58:c9:ec:31:
        dc:94:1b:02:ee:9d:33:9c:38:4b:29:1d:e1:0c:29:8b:6e:c7:
        bf:a0:e8:40:34:83:cf:ff:9f:cd:b5:f7:d9:4d:a7:9f:2e:bf:
        44:98:6b:f2:d3:fe:a8:20:31:c1:33:76:b7:1c:19:65:4d:b9:
        14:39
-----BEGIN X509 CRL-----
MIIBXTCBxwIBATANBgkqhkiG9w0BAQUFADBAMQswCQYDVQQGEwJVUzEaMBgGA1UE
ChMRVGVzdCBDZXJ0aWZpY2F0ZXMxFTATBgNVBAMTDFRydXN0IEFuY2hvchcNMDEw
NDE5MTQ1NzIwWhcNMTEwNDE5MTQ1NzIwWjAiMCACAWgXDTAxMDQxOTE0NTcyMFow
DDAKBgNVHRUEAwoBAaAvMC0wHwYDVR0jBBgwFoAU+2zULYGeyid6ng2wPOqavIf/
SeowCgYDVR0UBAMCAQEwDQYJKoZIhvcNAQEFBQADgYEAkhLENLSSq7pxa3QxFs7t
JdZLHvr4IB6d138w7RX3i11km90xQORVDwxfgmljAHalz57EX/JTm5t99WkddFc4
cOX7W3ZYyewx3JQbAu6dM5w4Sykd4Qwpi27Hv6DoQDSDz/+fzbX32U2nny6/RJhr
8tP+qCAxwTN2txwZZU25FDk=
-----END X509 CRL-----

