subject=/C=US/O=Test Certificates/CN=deltaCRLIndicator No Base CA
issuer=/C=US/O=Test Certificates/CN=Trust Anchor
-----BEGIN CERTIFICATE-----
MIICgjCCAeugAwIBAgIBWjANBgkqhkiG9w0BAQUFADBAMQswCQYDVQQGEwJVUzEa
MBgGA1UEChMRVGVzdCBDZXJ0aWZpY2F0ZXMxFTATBgNVBAMTDFRydXN0IEFuY2hv
cjAeFw0wMTA0MTkxNDU3MjBaFw0xMTA0MTkxNDU3MjBaMFAxCzAJBgNVBAYTAlVT
MRowGAYDVQQKExFUZXN0IENlcnRpZmljYXRlczElMCMGA1UEAxMcZGVsdGFDUkxJ
bmRpY2F0b3IgTm8gQmFzZSBDQTCBnzANBgkqhkiG9w0BAQEFAAOBjQAwgYkCgYEA
oG4BhBi9qCt4Gbrc/LcngtoFA7DzmY22GBOLt1eBY0FyQGpf4K9UJ/LOfsnV+Q1z
VMrQi85AV2IqI6mgtxHLyw698P62RlAXRHWMHyj7K/bgc9YjZXUrY7Dy/rAbHaww
JVlnlNsli3eVdnIPzuxxJ4qRhRgxixJng9IvLPDQaSUCAwEAAaN8MHowHwYDVR0j
BBgwFoAU+2zULYGeyid6ng2wPOqavIf/SeowHQYDVR0OBBYEFIvW/54p6SweUNEj
eV1lB9tgcPTTMA4GA1UdDwEB/wQEAwIBBjAXBgNVHSAEEDAOMAwGCmCGSAFlAwIB
MAEwDwYDVR0TAQH/BAUwAwEB/zANBgkqhkiG9w0BAQUFAAOBgQARpTTRRjgFmYIu
Mnx53B9cpWlZhaDRm9P+XdLuN3Tc4rdqxW3PccPPBB02TbfuXKXNGOQZpKhhF2BR
oulfvRUkwEfeB7DHQNuEGVct08IknDXryj2KFLPQgWdprgO0hOgZxF1SPuUOh1q7
iSvok8TmmeNswbnOq7EszJMT6EmnUA==
-----END CERTIFICATE-----

subject=/C=US/O=Test Certificates/CN=Invalid deltaCRLIndicator No Base EE Certificate Test1
issuer=/C=US/O=Test Certificates/CN=deltaCRLIndicator No Base CA
-----BEGIN CERTIFICATE-----
MIICmzCCAgSgAwIBAgIBATANBgkqhkiG9w0BAQUFADBQMQswCQYDVQQGEwJVUzEa
MBgGA1UEChMRVGVzdCBDZXJ0aWZpY2F0ZXMxJTAjBgNVBAMTHGRlbHRhQ1JMSW5k
aWNhdG9yIE5vIEJhc2UgQ0EwHhcNMDEwNDE5MTQ1NzIwWhcNMTEwNDE5MTQ1NzIw
WjBqMQswCQYDVQQGEwJVUzEaMBgGA1UEChMRVGVzdCBDZXJ0aWZpY2F0ZXMxPzA9
BgNVBAMTNkludmFsaWQgZGVsdGFDUkxJbmRpY2F0b3IgTm8gQmFzZSBFRSBDZXJ0
aWZpY2F0ZSBUZXN0MTCBnzANBgkqhkiG9w0BAQEFAAOBjQAwgYkCgYEArvGpcW2w
QEDfvwR7XCYsQkH0qjyrTAjaWC37qTDFXdVea7SsRiN2tW0REkGLtoF/BGWwq3/K
KNS47aRTkHkYyNJIlv+1vRXEYxlHI0k6HGfH+50i/40w6T3EzV7RUhcGUGQzP2bT
K9Bpc6fHT2sjEgqChhY1By2i/j1sQcIt9TMCAwEAAaNrMGkwHwYDVR0jBBgwFoAU
i9b/ninpLB5Q0SN5XWUH22Bw9NMwHQYDVR0OBBYEFGc/qnf9bJRTuHQc0l5B5FN/
kKYbMA4GA1UdDwEB/wQEAwIE8DAXBgNVHSAEEDAOMAwGCmCGSAFlAwIBMAEwDQYJ
KoZIhvcNAQEFBQADgYEADuC/4FucvKYngf2DKlHL2CRM7Io+GiuRab4hlwCc+ma1
VPQC6R+vlIABlQvMPmw4WG+SuFUDZNUssb8KPHQZdrvlnFHPjim3wRzYsdvAPIJt
5zncVjkebsrXuA///nNffcUlemq0f871Une/4Vtxe1VBbGzCZ7s8DxQumEH4B6E=
-----END CERTIFICATE-----

Certificate Revocation List (CRL):
        Version 2 (0x1)
        Signature Algorithm: sha1WithRSAEncryption
        Issuer: /C=US/O=Test Certificates/CN=deltaCRLIndicator No Base CA
        Last Update: Apr 19 14:57:20 2001 GMT
        Next Update: Apr 19 14:57:20 2011 GMT
        CRL extensions:
            X509v3 Authority Key Identifier: 
                keyid:8B:D6:FF:9E:29:E9:2C:1E:50:D1:23:79:5D:65:07:DB:60:70:F4:D3

            X509v3 CRL Number: 
                1
            X509v3 Delta CRL Indicator: critical
                1
No Revoked Certificates.
    Signature Algorithm: sha1WithRSAEncryption
        73:84:e0:d0:5d:12:bb:90:a4:b0:49:2d:9c:98:2f:c5:8f:39:
        aa:08:09:8d:4a:14:7f:5b:59:00:a0:4d:f2:b6:47:88:33:fb:
        a8:51:d9:b1:44:71:66:7d:48:c4:02:fe:ee:fd:2b:ab:80:0d:
        07:ad:41:d6:51:cb:86:03:c8:8e:99:0a:6e:b3:65:72:65:58:
        3b:f1:b9:af:cc:75:ab:ac:7c:59:18:32:59:8e:ca:d9:cd:50:
        f2:f9:03:d6:4e:41:13:5e:62:2a:e2:3a:98:12:d8:ff:08:cb:
        14:6e:1d:69:4d:d6:19:74:cf:b5:2d:c7:2d:3c:60:a6:30:95:
        34:4c
-----BEGIN X509 CRL-----
MIIBWDCBwgIBATANBgkqhkiG9w0BAQUFADBQMQswCQYDVQQGEwJVUzEaMBgGA1UE
ChMRVGVzdCBDZXJ0aWZpY2F0ZXMxJTAjBgNVBAMTHGRlbHRhQ1JMSW5kaWNhdG9y
IE5vIEJhc2UgQ0EXDTAxMDQxOTE0NTcyMFoXDTExMDQxOTE0NTcyMFqgPjA8MB8G
A1UdIwQYMBaAFIvW/54p6SweUNEjeV1lB9tgcPTTMAoGA1UdFAQDAgEBMA0GA1Ud
GwEB/wQDAgEBMA0GCSqGSIb3DQEBBQUAA4GBAHOE4NBdEruQpLBJLZyYL8WPOaoI
CY1KFH9bWQCgTfK2R4gz+6hR2bFEcWZ9SMQC/u79K6uADQetQdZRy4YDyI6ZCm6z
ZXJlWDvxua/MdausfFkYMlmOytnNUPL5A9ZOQRNeYiriOpgS2P8IyxRuHWlN1hl0
z7Utxy08YKYwlTRM
-----END X509 CRL-----

Certificate Revocation List (CRL):
        Version 2 (0x1)
        Signature Algorithm: sha1WithRSAEncryption
        Issuer: /C=US/O=Test Certificates/CN=Trust Anchor
        Last Update: Apr 19 14:57:20 2001 GMT
        Next Update: Apr 19 14:57:20 2011 GMT
        CRL extensions:
            X509v3 Authority Key Identifier: 
                keyid:FB:6C:D4:2D:81:9E:CA:27:7A:9E:0D:B0:3C:EA:9A:BC:87:FF:49:EA

            X509v3 CRL Number: 
                1
Revoked Certificates:
    Serial Number: 68
        Revocation Date: Apr 19 14:57:20 2001 GMT
        CRL entry extensions:
            X509v3 CRL Reason Code: 
                Key Compromise
    Signature Algorithm: sha1WithRSAEncryption
        92:12:c4:34:b4:92:ab:ba:71:6b:74:31:16:ce:ed:25:d6:4b:
        1e:fa:f8:20:1e:9d:d7:7f:30:ed:15:f7:8b:5d:64:9b:dd:31:
        40:e4:55:0f:0c:5f:82:69:63:00:76:a5:cf:9e:c4:5f:f2:53:
        9b:9b:7d:f5:69:1d:74:57:38:70:e5:fb:5b:76:58:c9:ec:31:
        dc:94:1b:02:ee:9d:33:9c:38:4b:29:1d:e1:0c:29:8b:6e:c7:
        bf:a0:e8:40:34:83:cf:ff:9f:cd:b5:f7:d9:4d:a7:9f:2e:bf:
        44:98:6b:f2:d3:fe:a8:20:31:c1:33:76:b7:1c:19:65:4d:b9:
        14:39
-----BEGIN X509 CRL-----
MIIBXTCBxwIBATANBgkqhkiG9w0BAQUFADBAMQswCQYDVQQGEwJVUzEaMBgGA1UE
ChMRVGVzdCBDZXJ0aWZpY2F0ZXMxFTATBgNVBAMTDFRydXN0IEFuY2hvchcNMDEw
NDE5MTQ1NzIwWhcNMTEwNDE5MTQ1NzIwWjAiMCACAWgXDTAxMDQxOTE0NTcyMFow
DDAKBgNVHRUEAwoBAaAvMC0wHwYDVR0jBBgwFoAU+2zULYGeyid6ng2wPOqavIf/
SeowCgYDVR0UBAMCAQEwDQYJKoZIhvcNAQEFBQADgYEAkhLENLSSq7pxa3QxFs7t
JdZLHvr4IB6d138w7RX3i11km90xQORVDwxfgmljAHalz57EX/JTm5t99WkddFc4
cOX7W3ZYyewx3JQbAu6dM5w4Sykd4Qwpi27Hv6DoQDSDz/+fzbX32U2nny6/RJhr
8tP+qCAxwTN2txwZZU25FDk=
-----END X509 CRL-----

