subject=/C=US/O=Test Certificates/OU=distributionPoint1 CA
issuer=/C=US/O=Test Certificates/CN=Trust Anchor
-----BEGIN CERTIFICATE-----
MIICezCCAeSgAwIBAgIBSjANBgkqhkiG9w0BAQUFADBAMQswCQYDVQQGEwJVUzEa
MBgGA1UEChMRVGVzdCBDZXJ0aWZpY2F0ZXMxFTATBgNVBAMTDFRydXN0IEFuY2hv
cjAeFw0wMTA0MTkxNDU3MjBaFw0xMTA0MTkxNDU3MjBaMEkxCzAJBgNVBAYTAlVT
MRowGAYDVQQKExFUZXN0IENlcnRpZmljYXRlczEeMBwGA1UECxMVZGlzdHJpYnV0
aW9uUG9pbnQxIENBMIGfMA0GCSqGSIb3DQEBAQUAA4GNADCBiQKBgQDoVIDlX8Ue
jptTAccp199par4Wi+6zdvpzdmUXj6UICGge/S5OJUY6nmBMligfESDLwjhbFB9V
wm194odW9eAiWfUenAN7i4xIyorZwf5dPqHZVOcv9M3jRBce9j/ZuO8ard6c8Dp+
UQ7gGH0Avyz4IM9x52TNBjYLthRcxwRPywIDAQABo3wwejAfBgNVHSMEGDAWgBT7
bNQtgZ7KJ3qeDbA86pq8h/9J6jAdBgNVHQ4EFgQUnh8dUFdqhW8b+OZBXut6ujB+
uvQwDgYDVR0PAQH/BAQDAgEGMBcGA1UdIAQQMA4wDAYKYIZIAWUDAgEwATAPBgNV
HRMBAf8EBTADAQH/MA0GCSqGSIb3DQEBBQUAA4GBAMM6gfNW7Hs8z/E7U5NW/M1Y
eT2VxqvZaq+HqK/GnxQeJUalPUbLk66F3XU5QmU/gQ/F6wP5yEV8UZALVj7OuJ56
Vz21USzCSPGXPazeDdBQSx0otXHbKVtamBKYMn+jFqYPuPmNxUWzu4iczvEsBZFK
0dm+b6846EQQbmI8jNru
-----END CERTIFICATE-----

subject=/C=US/O=Test Certificates/CN=Invalid distributionPoint EE Certificate Test3
issuer=/C=US/O=Test Certificates/OU=distributionPoint1 CA
-----BEGIN CERTIFICATE-----
MIIDFTCCAn6gAwIBAgIBAzANBgkqhkiG9w0BAQUFADBJMQswCQYDVQQGEwJVUzEa
MBgGA1UEChMRVGVzdCBDZXJ0aWZpY2F0ZXMxHjAcBgNVBAsTFWRpc3RyaWJ1dGlv
blBvaW50MSBDQTAeFw0wMTA0MTkxNDU3MjBaFw0xMTA0MTkxNDU3MjBaMGIxCzAJ
BgNVBAYTAlVTMRowGAYDVQQKExFUZXN0IENlcnRpZmljYXRlczE3MDUGA1UEAxMu
SW52YWxpZCBkaXN0cmlidXRpb25Qb2ludCBFRSBDZXJ0aWZpY2F0ZSBUZXN0MzCB
nzANBgkqhkiG9w0BAQEFAAOBjQAwgYkCgYEAuS5Lgb3o+ul4HsVLgHgzRL9MeLx1
KnKHTzQ7EedCPCAL/7h2oNWVaOCqaRzy5E4ke3W53AP0lHEyygZjKFnLw2QjEtGj
1qytIz79bI9YKeHX1pnOldsesBJtKAfb/RBhtwEsieibfV3nFTTckFhqtMWkRX+b
xgbfcd5yKPMhQRECAwEAAaOB8zCB8DAfBgNVHSMEGDAWgBSeHx1QV2qFbxv45kFe
63q6MH669DAdBgNVHQ4EFgQUxeG0ipAP1oMfhg4iMi/dmI5iNgcwDgYDVR0PAQH/
BAQDAgTwMBcGA1UdIAQQMA4wDAYKYIZIAWUDAgEwATCBhAYDVR0fBH0wezB5oHeg
daRzMHExCzAJBgNVBAYTAlVTMRowGAYDVQQKExFUZXN0IENlcnRpZmljYXRlczEe
MBwGA1UECxMVZGlzdHJpYnV0aW9uUG9pbnQxIENBMSYwJAYDVQQDEx1DUkx4IG9m
IGRpc3RyaWJ1dGlvblBvaW50MSBDQTANBgkqhkiG9w0BAQUFAAOBgQDnY+V8RkGw
+kpIYbTDHFKNX/7Tkk4ZRLWJXXk21ah6V7OqKJblsAWGSOKJa65p4GKLrf+uNvW5
BuOTRbdFpJrjslIZ87Z8XSdWXo/guQWTLacYkBPfKeimVeBInc2uoKkzt3L3gunO
zcm1s3DmNsCcQFvuG+GsDDn3xIkTxnTkHQ==
-----END CERTIFICATE-----

Certificate Revocation List (CRL):
        Version 2 (0x1)
        Signature Algorithm: sha1WithRSAEncryption
        Issuer: /C=US/O=Test Certificates/CN=Trust Anchor
        Last Update: Apr 19 14:57:20 2001 GMT
        Next Update: Apr 19 14:57:20 2011 GMT
        CRL extensions:
            X509v3 Authority Key Identifier: 
                keyid:FB:6C:D4:2D:81:9E:CA:27:7A:9E:0D:B0:3C:EA:9A:BC:87:FF:49:EA

            X509v3 CRL Number: 
                1
Revoked Certificates:
    Serial Number: 68
        Revocation Date: Apr 19 14:57:20 2001 GMT
        CRL entry extensions:
            X509v3 CRL Reason Code: 
                Key Compromise
    Signature Algorithm: sha1WithRSAEncryption
        92:12:c4:34:b4:92:ab:ba:71:6b:74:31:16:ce:ed:25:d6:4b:
        1e:fa:f8:20:1e:9d:d7:7f:30:ed:15:f7:8b:5d:64:9b:dd:31:
        40:e4:55:0f:0c:5f:82:69:63:00:76:a5:cf:9e:c4:5f:f2:53:
        9b:9b:7d:f5:69:1d:74:57:38:70:e5:fb:5b:76:58:c9:ec:31:
        dc:94:1b:02:ee:9d:33:9c:38:4b:29:1d:e1:0c:29:8b:6e:c7:
        bf:a0:e8:40:34:83:cf:ff:9f:cd:b5:f7:d9:4d:a7:9f:2e:bf:
        44:98:6b:f2:d3:fe:a8:20:31:c1:33:76:b7:1c:19:65:4d:b9:
        14:39
-----BEGIN X509 CRL-----
MIIBXTCBxwIBATANBgkqhkiG9w0BAQUFADBAMQswCQYDVQQGEwJVUzEaMBgGA1UE
ChMRVGVzdCBDZXJ0aWZpY2F0ZXMxFTATBgNVBAMTDFRydXN0IEFuY2hvchcNMDEw
NDE5MTQ1NzIwWhcNMTEwNDE5MTQ1NzIwWjAiMCACAWgXDTAxMDQxOTE0NTcyMFow
DDAKBgNVHRUEAwoBAaAvMC0wHwYDVR0jBBgwFoAU+2zULYGeyid6ng2wPOqavIf/
SeowCgYDVR0UBAMCAQEwDQYJKoZIhvcNAQEFBQADgYEAkhLENLSSq7pxa3QxFs7t
JdZLHvr4IB6d138w7RX3i11km90xQORVDwxfgmljAHalz57EX/JTm5t99WkddFc4
cOX7W3ZYyewx3JQbAu6dM5w4Sykd4Qwpi27Hv6DoQDSDz/+fzbX32U2nny6/RJhr
8tP+qCAxwTN2txwZZU25FDk=
-----END X509 CRL-----

Certificate Revocation List (CRL):
        Version 2 (0x1)
        Signature Algorithm: sha1WithRSAEncryption
        Issuer: /C=US/O=Test Certificates/OU=distributionPoint1 CA
        Last Update: Apr 19 14:57:20 2001 GMT
        Next Update: Apr 19 14:57:20 2011 GMT
        CRL extensions:
            X509v3 Authority Key Identifier: 
                keyid:9E:1F:1D:50:57:6A:85:6F:1B:F8:E6:41:5E:EB:7A:BA:30:7E:BA:F4

            X509v3 CRL Number: 
                1
            2.5.29.28: critical
                0y.w.u.s0q1.0...U....US1.0...U.
..Test Certificates1.0...U....distributionPoint1 CA1&0$..U....CRL1 of distributionPoint1 CA
Revoked Certificates:
    Serial Number: 02
        Revocation Date: Apr 19 14:57:20 2001 GMT
        CRL entry extensions:
            X509v3 CRL Reason Code: 
                Key Compromise
    Signature Algorithm: sha1WithRSAEncryption
        bb:36:57:87:39:3f:49:50:07:42:5f:a4:2b:3e:b2:04:52:a9:
        1b:dc:5e:8b:c1:6c:47:19:83:1d:5f:81:da:ae:bf:ba:1d:57:
        8d:a7:f0:41:bf:d1:40:e3:f8:7f:bf:80:ac:8d:2d:97:15:88:
        6c:91:39:87:3d:0d:45:79:a3:b8:41:a2:17:b6:a3:24:cd:a9:
        7b:f2:f9:57:b5:98:a0:a7:07:2b:3e:5a:2a:d8:5b:84:7d:25:
        75:25:51:9f:58:1e:6f:ea:f9:3a:62:59:e6:54:01:d7:76:91:
        2d:0f:b9:f5:2a:ce:0c:46:e4:dd:b1:3c:23:92:a8:67:d2:39:
        6a:49
-----BEGIN X509 CRL-----
MIIB8TCCAVoCAQEwDQYJKoZIhvcNAQEFBQAwSTELMAkGA1UEBhMCVVMxGjAYBgNV
BAoTEVRlc3QgQ2VydGlmaWNhdGVzMR4wHAYDVQQLExVkaXN0cmlidXRpb25Qb2lu
dDEgQ0EXDTAxMDQxOTE0NTcyMFoXDTExMDQxOTE0NTcyMFowIjAgAgECFw0wMTA0
MTkxNDU3MjBaMAwwCgYDVR0VBAMKAQGggbgwgbUwHwYDVR0jBBgwFoAUnh8dUFdq
hW8b+OZBXut6ujB+uvQwCgYDVR0UBAMCAQEwgYUGA1UdHAEB/wR7MHmgd6B1pHMw
cTELMAkGA1UEBhMCVVMxGjAYBgNVBAoTEVRlc3QgQ2VydGlmaWNhdGVzMR4wHAYD
VQQLExVkaXN0cmlidXRpb25Qb2ludDEgQ0ExJjAkBgNVBAMTHUNSTDEgb2YgZGlz
dHJpYnV0aW9uUG9pbnQxIENBMA0GCSqGSIb3DQEBBQUAA4GBALs2V4c5P0lQB0Jf
pCs+sgRSqRvcXovBbEcZgx1fgdquv7odV42n8EG/0UDj+H+/gKyNLZcViGyROYc9
DUV5o7hBohe2oyTNqXvy+Ve1mKCnBys+WirYW4R9JXUlUZ9YHm/q+TpiWeZUAdd2
kS0PufUqzgxG5N2xPCOSqGfSOWpJ
-----END X509 CRL-----

