subject=/C=US/O=Test Certificates/CN=Unknown CRL Entry Extension CA
issuer=/C=US/O=Test Certificates/CN=Trust Anchor
-----BEGIN CERTIFICATE-----
MIIChDCCAe2gAwIBAgIBDDANBgkqhkiG9w0BAQUFADBAMQswCQYDVQQGEwJVUzEa
MBgGA1UEChMRVGVzdCBDZXJ0aWZpY2F0ZXMxFTATBgNVBAMTDFRydXN0IEFuY2hv
cjAeFw0wMTA0MTkxNDU3MjBaFw0xMTA0MTkxNDU3MjBaMFIxCzAJBgNVBAYTAlVT
MRowGAYDVQQKExFUZXN0IENlcnRpZmljYXRlczEnMCUGA1UEAxMeVW5rbm93biBD
UkwgRW50cnkgRXh0ZW5zaW9uIENBMIGfMA0GCSqGSIb3DQEBAQUAA4GNADCBiQKB
gQC4N3fv71Sg97CctA2gdnDYdBCxvD0dw26KQaNDbFJBOuoUZ2YczhV1669VascT
67yTxIEcK9/IDZ3YH24KxfGvQ/QPio8W8AMrVyCcHJvX6LyAe8VOYc1STiqxmpxi
lp0TtHeYT9eIybRSaoqtDChQrkbPKB3unwxZbFwK7EJz+QIDAQABo3wwejAfBgNV
HSMEGDAWgBT7bNQtgZ7KJ3qeDbA86pq8h/9J6jAdBgNVHQ4EFgQU9Vvr2srl76qI
n9lsv1vOk2kRTYAwDgYDVR0PAQH/BAQDAgEGMBcGA1UdIAQQMA4wDAYKYIZIAWUD
AgEwATAPBgNVHRMBAf8EBTADAQH/MA0GCSqGSIb3DQEBBQUAA4GBAAHH0P2ABpSL
gN0JmwJ5PRblM4ot5qt69t9Qxgui/fn5pIZa+tDA3zKtJx1/S1Sm3gdZb+2A71hS
3h/LIkmSD7rTwgJTfjtKd2rVxvPhLlvC6Pt+8cOlOAfxT88Q5atXsU0P+7ZMw/4U
3F6PnahEk6JTNn1ylgi/e3jRoVAew8qv
-----END CERTIFICATE-----

subject=/C=US/O=Test Certificates/CN=Invalid Unknown CRL Entry Extension EE Certificate Test8
issuer=/C=US/O=Test Certificates/CN=Unknown CRL Entry Extension CA
-----BEGIN CERTIFICATE-----
MIICnzCCAgigAwIBAgIBATANBgkqhkiG9w0BAQUFADBSMQswCQYDVQQGEwJVUzEa
MBgGA1UEChMRVGVzdCBDZXJ0aWZpY2F0ZXMxJzAlBgNVBAMTHlVua25vd24gQ1JM
IEVudHJ5IEV4dGVuc2lvbiBDQTAeFw0wMTA0MTkxNDU3MjBaFw0xMTA0MTkxNDU3
MjBaMGwxCzAJBgNVBAYTAlVTMRowGAYDVQQKExFUZXN0IENlcnRpZmljYXRlczFB
MD8GA1UEAxM4SW52YWxpZCBVbmtub3duIENSTCBFbnRyeSBFeHRlbnNpb24gRUUg
Q2VydGlmaWNhdGUgVGVzdDgwgZ8wDQYJKoZIhvcNAQEBBQADgY0AMIGJAoGBAPIB
J/eXGbgEoIPq9cvpKM1LhdR/nU/V8FVZG6E6cGIPHhm6FpNthtmafeQMPHMkT4eV
41lXx8f9O4+xj0BUXNv/WhGhsT1PHxs+VzLNTG2mp4a6gOaLprNo0vi8C0jMfyQ/
QMqq0d3vM/QmM4H1AJnguuG4xoSFqLZqIAYC1Xb1AgMBAAGjazBpMB8GA1UdIwQY
MBaAFPVb69rK5e+qiJ/ZbL9bzpNpEU2AMB0GA1UdDgQWBBQoe5/NueRG8dILVNg3
c7z7YF5PVjAOBgNVHQ8BAf8EBAMCBPAwFwYDVR0gBBAwDjAMBgpghkgBZQMCATAB
MA0GCSqGSIb3DQEBBQUAA4GBADjyBhwUgM1wXGm948RATjxho9tRdPLLVwj3K0Mh
JSy5uURrxX2u5UUutqr2ZOpMjUcO0KY0qePFA7Oi2i1Wh49awyxUEqYVxRgBxNtB
sKxMJG/iV6sX+9X3ObXDCG960+AD2q16GmjPiVrqxE3JQE/1dvdEyHduVgugTEpu
WOKs
-----END CERTIFICATE-----

Certificate Revocation List (CRL):
        Version 2 (0x1)
        Signature Algorithm: sha1WithRSAEncryption
        Issuer: /C=US/O=Test Certificates/CN=Trust Anchor
        Last Update: Apr 19 14:57:20 2001 GMT
        Next Update: Apr 19 14:57:20 2011 GMT
        CRL extensions:
            X509v3 Authority Key Identifier: 
                keyid:FB:6C:D4:2D:81:9E:CA:27:7A:9E:0D:B0:3C:EA:9A:BC:87:FF:49:EA

            X509v3 CRL Number: 
                1
Revoked Certificates:
    Serial Number: 68
        Revocation Date: Apr 19 14:57:20 2001 GMT
        CRL entry extensions:
            X509v3 CRL Reason Code: 
                Key Compromise
    Signature Algorithm: sha1WithRSAEncryption
        92:12:c4:34:b4:92:ab:ba:71:6b:74:31:16:ce:ed:25:d6:4b:
        1e:fa:f8:20:1e:9d:d7:7f:30:ed:15:f7:8b:5d:64:9b:dd:31:
        40:e4:55:0f:0c:5f:82:69:63:00:76:a5:cf:9e:c4:5f:f2:53:
        9b:9b:7d:f5:69:1d:74:57:38:70:e5:fb:5b:76:58:c9:ec:31:
        dc:94:1b:02:ee:9d:33:9c:38:4b:29:1d:e1:0c:29:8b:6e:c7:
        bf:a0:e8:40:34:83:cf:ff:9f:cd:b5:f7:d9:4d:a7:9f:2e:bf:
        44:98:6b:f2:d3:fe:a8:20:31:c1:33:76:b7:1c:19:65:4d:b9:
        14:39
-----BEGIN X509 CRL-----
MIIBXTCBxwIBATANBgkqhkiG9w0BAQUFADBAMQswCQYDVQQGEwJVUzEaMBgGA1UE
ChMRVGVzdCBDZXJ0aWZpY2F0ZXMxFTATBgNVBAMTDFRydXN0IEFuY2hvchcNMDEw
NDE5MTQ1NzIwWhcNMTEwNDE5MTQ1NzIwWjAiMCACAWgXDTAxMDQxOTE0NTcyMFow
DDAKBgNVHRUEAwoBAaAvMC0wHwYDVR0jBBgwFoAU+2zULYGeyid6ng2wPOqavIf/
SeowCgYDVR0UBAMCAQEwDQYJKoZIhvcNAQEFBQADgYEAkhLENLSSq7pxa3QxFs7t
JdZLHvr4IB6d138w7RX3i11km90xQORVDwxfgmljAHalz57EX/JTm5t99WkddFc4
cOX7W3ZYyewx3JQbAu6dM5w4Sykd4Qwpi27Hv6DoQDSDz/+fzbX32U2nny6/RJhr
8tP+qCAxwTN2txwZZU25FDk=
-----END X509 CRL-----

Certificate Revocation List (CRL):
        Version 2 (0x1)
        Signature Algorithm: sha1WithRSAEncryption
        Issuer: /C=US/O=Test Certificates/CN=Unknown CRL Entry Extension CA
        Last Update: Apr 19 14:57:20 2001 GMT
        Next Update: Apr 19 14:57:20 2011 GMT
        CRL extensions:
            X509v3 Authority Key Identifier: 
                keyid:F5:5B:EB:DA:CA:E5:EF:AA:88:9F:D9:6C:BF:5B:CE:93:69:11:4D:80

            X509v3 CRL Number: 
                1
Revoked Certificates:
    Serial Number: 01
        Revocation Date: Apr 19 14:57:20 2001 GMT
        CRL entry extensions:
            X509v3 CRL Reason Code: 
                Key Compromise
            2.16.840.1.101.2.1.12.2: critical
                ...
    Signature Algorithm: sha1WithRSAEncryption
        46:89:76:03:d1:a8:eb:7d:04:de:bf:a8:1f:86:48:8a:d9:78:
        ae:21:21:62:91:3d:ba:79:b0:17:d4:ca:41:ae:d3:43:4c:77:
        2d:9e:99:65:93:59:dc:72:dc:d4:90:04:e4:f3:ec:ed:63:bd:
        09:59:3c:a8:0b:ae:fa:ef:11:73:b2:a4:9a:e7:6e:c2:fe:11:
        04:f1:f5:58:78:95:d2:24:2d:4c:4b:7e:7b:f1:8e:9f:ce:82:
        76:be:a5:5e:77:e2:33:10:a5:d1:2a:2a:c8:e2:f5:09:6d:e2:
        e7:c7:9c:cc:5b:3c:52:29:f4:a0:3d:6e:8a:87:8a:94:2a:65:
        74:fb
-----BEGIN X509 CRL-----
MIIBhDCB7gIBATANBgkqhkiG9w0BAQUFADBSMQswCQYDVQQGEwJVUzEaMBgGA1UE
ChMRVGVzdCBDZXJ0aWZpY2F0ZXMxJzAlBgNVBAMTHlVua25vd24gQ1JMIEVudHJ5
IEV4dGVuc2lvbiBDQRcNMDEwNDE5MTQ1NzIwWhcNMTEwNDE5MTQ1NzIwWjA3MDUC
AQEXDTAxMDQxOTE0NTcyMFowITAKBgNVHRUEAwoBATATBglghkgBZQIBDAIBAf8E
AwIBAKAvMC0wHwYDVR0jBBgwFoAU9Vvr2srl76qIn9lsv1vOk2kRTYAwCgYDVR0U
BAMCAQEwDQYJKoZIhvcNAQEFBQADgYEARol2A9Go630E3r+oH4ZIitl4riEhYpE9
unmwF9TKQa7TQ0x3LZ6ZZZNZ3HLc1JAE5PPs7WO9CVk8qAuu+u8Rc7Kkmuduwv4R
BPH1WHiV0iQtTEt+e/GOn86Cdr6lXnfiMxCl0SoqyOL1CW3i58eczFs8Uin0oD1u
ioeKlCpldPs=
-----END X509 CRL-----

