subject=/C=US/O=Test Certificates/CN=Missing basicConstraints CA
issuer=/C=US/O=Test Certificates/CN=Trust Anchor
-----BEGIN CERTIFICATE-----
MIICcDCCAdmgAwIBAgIBFjANBgkqhkiG9w0BAQUFADBAMQswCQYDVQQGEwJVUzEa
MBgGA1UEChMRVGVzdCBDZXJ0aWZpY2F0ZXMxFTATBgNVBAMTDFRydXN0IEFuY2hv
cjAeFw0wMTA0MTkxNDU3MjBaFw0xMTA0MTkxNDU3MjBaME8xCzAJBgNVBAYTAlVT
MRowGAYDVQQKExFUZXN0IENlcnRpZmljYXRlczEkMCIGA1UEAxMbTWlzc2luZyBi
YXNpY0NvbnN0cmFpbnRzIENBMIGfMA0GCSqGSIb3DQEBAQUAA4GNADCBiQKBgQDO
9yKuCeu6dhjdDO1FYBjOw7a3vWSCZ6ukoQAD5724THVzb548yc2GIGKHC0mWgXiX
fB6PBIQAwAhwCIetZaZICbOaJLAEgrfYEc2BK1uYPcnPDq3akXxh5lwFwL8N/xT9
ajSDOeq+fWCIH4K3cgzvQFksXSMBrCLeSqRqpxg7aQIDAQABo2swaTAfBgNVHSME
GDAWgBT7bNQtgZ7KJ3qeDbA86pq8h/9J6jAdBgNVHQ4EFgQURqBdN9KpBRGTRazt
XDHnzRcB9gEwDgYDVR0PAQH/BAQDAgEGMBcGA1UdIAQQMA4wDAYKYIZIAWUDAgEw
ATANBgkqhkiG9w0BAQUFAAOBgQCIvIvzmMIwJ8YV4vFP0812ct/Jsheq3QAcCH22
0akUpHCoryoLL8cVkdCCP6lG5QD0BdEszwovHnuu6X1kPCe/85mpvlueAMAcr3Wh
sSZA7vot2fdmAqwje/64fADpW2pI3muEixUfmNSMsjXFzGSFT2tWJ1XNfFAI9EYK
j0nmiw==
-----END CERTIFICATE-----

subject=/C=US/O=Test Certificates/CN=Invalid Missing basicConstraints EE Certificate Test1
issuer=/C=US/O=Test Certificates/CN=Missing basicConstraints CA
-----BEGIN CERTIFICATE-----
MIICmTCCAgKgAwIBAgIBATANBgkqhkiG9w0BAQUFADBPMQswCQYDVQQGEwJVUzEa
MBgGA1UEChMRVGVzdCBDZXJ0aWZpY2F0ZXMxJDAiBgNVBAMTG01pc3NpbmcgYmFz
aWNDb25zdHJhaW50cyBDQTAeFw0wMTA0MTkxNDU3MjBaFw0xMTA0MTkxNDU3MjBa
MGkxCzAJBgNVBAYTAlVTMRowGAYDVQQKExFUZXN0IENlcnRpZmljYXRlczE+MDwG
A1UEAxM1SW52YWxpZCBNaXNzaW5nIGJhc2ljQ29uc3RyYWludHMgRUUgQ2VydGlm
aWNhdGUgVGVzdDEwgZ8wDQYJKoZIhvcNAQEBBQADgY0AMIGJAoGBAIu/B3NsTKFd
3NwujgznvY/HGzG+YIVddeXJ/bIUYqj0gIh6FNebF1p5DnC4tljBvuux5UMrmGOi
6/MoDmiVL8VyVr87z69Hx4DKUjwmHa8KOQ8L5KcklyNCiqovL+IWvl/ifcvU3tQ2
olOq4vjYRupu8NdmpY4IZl6UQScR5P6lAgMBAAGjazBpMB8GA1UdIwQYMBaAFEag
XTfSqQURk0Ws7Vwx580XAfYBMB0GA1UdDgQWBBT7lvAQxDdV8M61puLxGf+ZGq5u
WDAOBgNVHQ8BAf8EBAMCBPAwFwYDVR0gBBAwDjAMBgpghkgBZQMCATABMA0GCSqG
SIb3DQEBBQUAA4GBALqhV3pig7Li1sMxfgarLLYB4xxjsbFinx7EtEDlju0sTe3j
F7e9rh62n7fnZqZ8KSyRCikPu3r3qBCLx2TV+i31inM/GqvU2yrBGdVm9HUi2CSp
YUePLjOyojWECk+rYNq3vVYFVKJkonzfR3533mruAKakqDJ0PQLTEx84ugv9
-----END CERTIFICATE-----

Certificate Revocation List (CRL):
        Version 2 (0x1)
        Signature Algorithm: sha1WithRSAEncryption
        Issuer: /C=US/O=Test Certificates/CN=Missing basicConstraints CA
        Last Update: Apr 19 14:57:20 2001 GMT
        Next Update: Apr 19 14:57:20 2011 GMT
        CRL extensions:
            X509v3 Authority Key Identifier: 
                keyid:46:A0:5D:37:D2:A9:05:11:93:45:AC:ED:5C:31:E7:CD:17:01:F6:01

            X509v3 CRL Number: 
                1
No Revoked Certificates.
    Signature Algorithm: sha1WithRSAEncryption
        94:49:47:9b:06:de:66:8d:df:13:40:35:7f:95:83:f5:1c:92:
        da:0d:33:78:99:cd:9c:34:02:32:14:17:ea:86:48:3a:9e:ba:
        c6:5a:de:0e:5b:68:0d:1e:9c:f5:07:b6:81:e3:47:fe:29:45:
        aa:c4:51:01:21:b6:70:ed:1b:28:cd:c1:81:f2:43:e7:12:00:
        48:78:7b:6e:28:5f:71:8f:f9:56:2a:22:8f:3a:7c:8b:8b:7c:
        8a:f4:2c:23:67:c7:b6:b4:85:02:99:d9:48:01:29:c8:6c:ad:
        be:24:a7:3a:8e:56:ea:92:4b:e4:8d:d8:9b:f7:17:b3:e9:b5:
        87:fa
-----BEGIN X509 CRL-----
MIIBSDCBsgIBATANBgkqhkiG9w0BAQUFADBPMQswCQYDVQQGEwJVUzEaMBgGA1UE
ChMRVGVzdCBDZXJ0aWZpY2F0ZXMxJDAiBgNVBAMTG01pc3NpbmcgYmFzaWNDb25z
dHJhaW50cyBDQRcNMDEwNDE5MTQ1NzIwWhcNMTEwNDE5MTQ1NzIwWqAvMC0wHwYD
VR0jBBgwFoAURqBdN9KpBRGTRaztXDHnzRcB9gEwCgYDVR0UBAMCAQEwDQYJKoZI
hvcNAQEFBQADgYEAlElHmwbeZo3fE0A1f5WD9RyS2g0zeJnNnDQCMhQX6oZIOp66
xlreDltoDR6c9Qe2geNH/ilFqsRRASG2cO0bKM3BgfJD5xIASHh7bihfcY/5Vioi
jzp8i4t8ivQsI2fHtrSFApnZSAEpyGytviSnOo5W6pJL5I3Ym/cXs+m1h/o=
-----END X509 CRL-----

Certificate Revocation List (CRL):
        Version 2 (0x1)
        Signature Algorithm: sha1WithRSAEncryption
        Issuer: /C=US/O=Test Certificates/CN=Trust Anchor
        Last Update: Apr 19 14:57:20 2001 GMT
        Next Update: Apr 19 14:57:20 2011 GMT
        CRL extensions:
            X509v3 Authority Key Identifier: 
                keyid:FB:6C:D4:2D:81:9E:CA:27:7A:9E:0D:B0:3C:EA:9A:BC:87:FF:49:EA

            X509v3 CRL Number: 
                1
Revoked Certificates:
    Serial Number: 68
        Revocation Date: Apr 19 14:57:20 2001 GMT
        CRL entry extensions:
            X509v3 CRL Reason Code: 
                Key Compromise
    Signature Algorithm: sha1WithRSAEncryption
        92:12:c4:34:b4:92:ab:ba:71:6b:74:31:16:ce:ed:25:d6:4b:
        1e:fa:f8:20:1e:9d:d7:7f:30:ed:15:f7:8b:5d:64:9b:dd:31:
        40:e4:55:0f:0c:5f:82:69:63:00:76:a5:cf:9e:c4:5f:f2:53:
        9b:9b:7d:f5:69:1d:74:57:38:70:e5:fb:5b:76:58:c9:ec:31:
        dc:94:1b:02:ee:9d:33:9c:38:4b:29:1d:e1:0c:29:8b:6e:c7:
        bf:a0:e8:40:34:83:cf:ff:9f:cd:b5:f7:d9:4d:a7:9f:2e:bf:
        44:98:6b:f2:d3:fe:a8:20:31:c1:33:76:b7:1c:19:65:4d:b9:
        14:39
-----BEGIN X509 CRL-----
MIIBXTCBxwIBATANBgkqhkiG9w0BAQUFADBAMQswCQYDVQQGEwJVUzEaMBgGA1UE
ChMRVGVzdCBDZXJ0aWZpY2F0ZXMxFTATBgNVBAMTDFRydXN0IEFuY2hvchcNMDEw
NDE5MTQ1NzIwWhcNMTEwNDE5MTQ1NzIwWjAiMCACAWgXDTAxMDQxOTE0NTcyMFow
DDAKBgNVHRUEAwoBAaAvMC0wHwYDVR0jBBgwFoAU+2zULYGeyid6ng2wPOqavIf/
SeowCgYDVR0UBAMCAQEwDQYJKoZIhvcNAQEFBQADgYEAkhLENLSSq7pxa3QxFs7t
JdZLHvr4IB6d138w7RX3i11km90xQORVDwxfgmljAHalz57EX/JTm5t99WkddFc4
cOX7W3ZYyewx3JQbAu6dM5w4Sykd4Qwpi27Hv6DoQDSDz/+fzbX32U2nny6/RJhr
8tP+qCAxwTN2txwZZU25FDk=
-----END X509 CRL-----

