subject=/C=US/O=Test Certificates/CN=Negative Serial Number CA
issuer=/C=US/O=Test Certificates/CN=Trust Anchor
-----BEGIN CERTIFICATE-----
MIICfzCCAeigAwIBAgIBETANBgkqhkiG9w0BAQUFADBAMQswCQYDVQQGEwJVUzEa
MBgGA1UEChMRVGVzdCBDZXJ0aWZpY2F0ZXMxFTATBgNVBAMTDFRydXN0IEFuY2hv
cjAeFw0wMTA0MTkxNDU3MjBaFw0xMTA0MTkxNDU3MjBaME0xCzAJBgNVBAYTAlVT
MRowGAYDVQQKExFUZXN0IENlcnRpZmljYXRlczEiMCAGA1UEAxMZTmVnYXRpdmUg
U2VyaWFsIE51bWJlciBDQTCBnzANBgkqhkiG9w0BAQEFAAOBjQAwgYkCgYEAw5yD
rVmP3dVETqSrKKVXvXWAnpc5K5Xh6mhHBvy/YpoERigE1MP8A/6eE3mY6OnMJVAh
QJRWniYBrIDg5zR873cTAbn1O7MwSfs3LLxEO81iAf2k4nFFxAGtQp5AUwx0cQVK
8oMVty8BEcAkazVA87HQgpycQySqDLmklHNqkncCAwEAAaN8MHowHwYDVR0jBBgw
FoAU+2zULYGeyid6ng2wPOqavIf/SeowHQYDVR0OBBYEFJCMpyNNS/fqobISh7nA
0w4zWMuCMA4GA1UdDwEB/wQEAwIBBjAXBgNVHSAEEDAOMAwGCmCGSAFlAwIBMAEw
DwYDVR0TAQH/BAUwAwEB/zANBgkqhkiG9w0BAQUFAAOBgQBYz9xXPhMcniA6W0RG
0A59JbhJJpAZmnLBusWQjWYIZsVit1M1OXc/zDGAP/ik3blednL+t+wbdJc1qg9m
4bgoXS14lg+6IGMF2VWcoKkDJDIHpkVrdQc9WGNm0qqPyHGW0ggbi5VrBv1potkF
xBtl1WkY3ZTLuI71pJ15ebGZ/A==
-----END CERTIFICATE-----

subject=/C=US/O=Test Certificates/CN=Invalid Negative Serial Number EE Certificate Test15
issuer=/C=US/O=Test Certificates/CN=Negative Serial Number CA
-----BEGIN CERTIFICATE-----
MIICljCCAf+gAwIBAgIB/zANBgkqhkiG9w0BAQUFADBNMQswCQYDVQQGEwJVUzEa
MBgGA1UEChMRVGVzdCBDZXJ0aWZpY2F0ZXMxIjAgBgNVBAMTGU5lZ2F0aXZlIFNl
cmlhbCBOdW1iZXIgQ0EwHhcNMDEwNDE5MTQ1NzIwWhcNMTEwNDE5MTQ1NzIwWjBo
MQswCQYDVQQGEwJVUzEaMBgGA1UEChMRVGVzdCBDZXJ0aWZpY2F0ZXMxPTA7BgNV
BAMTNEludmFsaWQgTmVnYXRpdmUgU2VyaWFsIE51bWJlciBFRSBDZXJ0aWZpY2F0
ZSBUZXN0MTUwgZ8wDQYJKoZIhvcNAQEBBQADgY0AMIGJAoGBANKczL4/N4jrniwj
6tO7tR683qVrEG+1DB4XcrWL4wENZS5O2qkppGZD7cOXkGuOemheT0QGmaEtQjOa
yRVw86jvq4n3iQdSEvRb6C2GtYQ7hFASTBsQn4qKbcldkhv+XQAzLMc65GcFv0l6
n0xR1miZq8E0mDxBLg9J5iv6abyHAgMBAAGjazBpMB8GA1UdIwQYMBaAFJCMpyNN
S/fqobISh7nA0w4zWMuCMB0GA1UdDgQWBBR1iOR4fH+ykQ1KqxHgeC1Wl2TuQzAO
BgNVHQ8BAf8EBAMCBPAwFwYDVR0gBBAwDjAMBgpghkgBZQMCATABMA0GCSqGSIb3
DQEBBQUAA4GBAAAfyUd30ByRjggXgiu4vNE7KBbaY6fbiYYugGriPx/HPPIJM3M9
3W2m85AhLW9Qt/dpaXQGeICkDfrLrpTCV8MWnedoVwQMBla8v5QNs4pUdkTXuV7R
9LZqxgeDvUTEadGrNLjZ4WumiFApRA+DRjJE0LsnS58wWtklsYDoHJtH
-----END CERTIFICATE-----

Certificate Revocation List (CRL):
        Version 2 (0x1)
        Signature Algorithm: sha1WithRSAEncryption
        Issuer: /C=US/O=Test Certificates/CN=Trust Anchor
        Last Update: Apr 19 14:57:20 2001 GMT
        Next Update: Apr 19 14:57:20 2011 GMT
        CRL extensions:
            X509v3 Authority Key Identifier: 
                keyid:FB:6C:D4:2D:81:9E:CA:27:7A:9E:0D:B0:3C:EA:9A:BC:87:FF:49:EA

            X509v3 CRL Number: 
                1
Revoked Certificates:
    Serial Number: 68
        Revocation Date: Apr 19 14:57:20 2001 GMT
        CRL entry extensions:
            X509v3 CRL Reason Code: 
                Key Compromise
    Signature Algorithm: sha1WithRSAEncryption
        92:12:c4:34:b4:92:ab:ba:71:6b:74:31:16:ce:ed:25:d6:4b:
        1e:fa:f8:20:1e:9d:d7:7f:30:ed:15:f7:8b:5d:64:9b:dd:31:
        40:e4:55:0f:0c:5f:82:69:63:00:76:a5:cf:9e:c4:5f:f2:53:
        9b:9b:7d:f5:69:1d:74:57:38:70:e5:fb:5b:76:58:c9:ec:31:
        dc:94:1b:02:ee:9d:33:9c:38:4b:29:1d:e1:0c:29:8b:6e:c7:
        bf:a0:e8:40:34:83:cf:ff:9f:cd:b5:f7:d9:4d:a7:9f:2e:bf:
        44:98:6b:f2:d3:fe:a8:20:31:c1:33:76:b7:1c:19:65:4d:b9:
        14:39
-----BEGIN X509 CRL-----
MIIBXTCBxwIBATANBgkqhkiG9w0BAQUFADBAMQswCQYDVQQGEwJVUzEaMBgGA1UE
ChMRVGVzdCBDZXJ0aWZpY2F0ZXMxFTATBgNVBAMTDFRydXN0IEFuY2hvchcNMDEw
NDE5MTQ1NzIwWhcNMTEwNDE5MTQ1NzIwWjAiMCACAWgXDTAxMDQxOTE0NTcyMFow
DDAKBgNVHRUEAwoBAaAvMC0wHwYDVR0jBBgwFoAU+2zULYGeyid6ng2wPOqavIf/
SeowCgYDVR0UBAMCAQEwDQYJKoZIhvcNAQEFBQADgYEAkhLENLSSq7pxa3QxFs7t
JdZLHvr4IB6d138w7RX3i11km90xQORVDwxfgmljAHalz57EX/JTm5t99WkddFc4
cOX7W3ZYyewx3JQbAu6dM5w4Sykd4Qwpi27Hv6DoQDSDz/+fzbX32U2nny6/RJhr
8tP+qCAxwTN2txwZZU25FDk=
-----END X509 CRL-----

Certificate Revocation List (CRL):
        Version 2 (0x1)
        Signature Algorithm: sha1WithRSAEncryption
        Issuer: /C=US/O=Test Certificates/CN=Negative Serial Number CA
        Last Update: Apr 19 14:57:20 2001 GMT
        Next Update: Apr 19 14:57:20 2011 GMT
        CRL extensions:
            X509v3 Authority Key Identifier: 
                keyid:90:8C:A7:23:4D:4B:F7:EA:A1:B2:12:87:B9:C0:D3:0E:33:58:CB:82

            X509v3 CRL Number: 
                1
Revoked Certificates:
    Serial Number: -01
        Revocation Date: Apr 19 14:57:20 2001 GMT
        CRL entry extensions:
            X509v3 CRL Reason Code: 
                Key Compromise
    Signature Algorithm: sha1WithRSAEncryption
        7d:55:77:de:74:f8:ae:25:02:35:ad:53:74:92:6f:89:f9:ed:
        b3:4c:bf:a7:70:b1:0e:20:4a:c3:03:7f:a9:99:01:5b:5a:a0:
        67:df:cd:74:08:d6:80:2d:ca:f7:c0:be:9e:68:35:d3:79:89:
        45:a7:6e:f2:75:86:e5:28:d0:00:2c:96:14:03:96:eb:75:d0:
        fa:a7:78:f8:50:e7:70:6b:cc:1a:9d:8a:30:1e:c5:5d:22:a9:
        ef:dd:07:48:85:87:d6:2f:15:02:d0:07:81:2c:bf:fa:c6:ce:
        49:03:44:08:37:f3:f3:79:b1:61:ab:c7:f9:21:29:3f:4f:cb:
        36:c0
-----BEGIN X509 CRL-----
MIIBajCB1AIBATANBgkqhkiG9w0BAQUFADBNMQswCQYDVQQGEwJVUzEaMBgGA1UE
ChMRVGVzdCBDZXJ0aWZpY2F0ZXMxIjAgBgNVBAMTGU5lZ2F0aXZlIFNlcmlhbCBO
dW1iZXIgQ0EXDTAxMDQxOTE0NTcyMFoXDTExMDQxOTE0NTcyMFowIjAgAgH/Fw0w
MTA0MTkxNDU3MjBaMAwwCgYDVR0VBAMKAQGgLzAtMB8GA1UdIwQYMBaAFJCMpyNN
S/fqobISh7nA0w4zWMuCMAoGA1UdFAQDAgEBMA0GCSqGSIb3DQEBBQUAA4GBAH1V
d950+K4lAjWtU3SSb4n57bNMv6dwsQ4gSsMDf6mZAVtaoGffzXQI1oAtyvfAvp5o
NdN5iUWnbvJ1huUo0AAslhQDlut10PqnePhQ53BrzBqdijAexV0iqe/dB0iFh9Yv
FQLQB4Esv/rGzkkDRAg38/N5sWGrx/khKT9PyzbA
-----END X509 CRL-----

