subject=/C=US/O=Test Certificates/OU=indirectCRL CA5
issuer=/C=US/O=Test Certificates/CN=Trust Anchor
-----BEGIN CERTIFICATE-----
MIICdTCCAd6gAwIBAgIBWDANBgkqhkiG9w0BAQUFADBAMQswCQYDVQQGEwJVUzEa
MBgGA1UEChMRVGVzdCBDZXJ0aWZpY2F0ZXMxFTATBgNVBAMTDFRydXN0IEFuY2hv
cjAeFw0wMTA0MTkxNDU3MjBaFw0xMTA0MTkxNDU3MjBaMEMxCzAJBgNVBAYTAlVT
MRowGAYDVQQKExFUZXN0IENlcnRpZmljYXRlczEYMBYGA1UECxMPaW5kaXJlY3RD
UkwgQ0E1MIGfMA0GCSqGSIb3DQEBAQUAA4GNADCBiQKBgQCx678FWV/yNhQZJRyI
iaMmsrcrL1oSrYNu6oCM7kFCgk9PSYQRh+4SVNGyvyuQQ74+C4MLKd+GgMPRtHok
km0S1dv/hLd6qZcVzhL+XHQ+ufLEbZqs1ZXSUfqTJFJpAgu4qLqMS8iZxijRGaDM
6cQdbVcLMhxTC6sYFzuYtl78gwIDAQABo3wwejAfBgNVHSMEGDAWgBT7bNQtgZ7K
J3qeDbA86pq8h/9J6jAdBgNVHQ4EFgQUlK0S0eEOfsO7N0tBPW1ZgD9EV20wDgYD
VR0PAQH/BAQDAgEGMBcGA1UdIAQQMA4wDAYKYIZIAWUDAgEwATAPBgNVHRMBAf8E
BTADAQH/MA0GCSqGSIb3DQEBBQUAA4GBALAhR+3HUAbz9RiSD7M2UTI/CO2tE7dn
6zSaQvkfm/UVsDvNLmSaeXS/29C8sHeoEVpmDdGbgCPcMwB3lTNt2pKI5jhr9f7J
7BE1W43gZMR2YFRrkMX8AhQKVRN5LVpQIKjGMm8CkTPH9ecvH8kGwYcB3qLZwD3H
sN+wLRApTQTr
-----END CERTIFICATE-----

subject=/C=US/O=Test Certificates/CN=Invalid cRLIssuer EE Certificate Test35
issuer=/C=US/O=Test Certificates/OU=indirectCRL CA5
-----BEGIN CERTIFICATE-----
MIIDSzCCArSgAwIBAgIBDDANBgkqhkiG9w0BAQUFADBDMQswCQYDVQQGEwJVUzEa
MBgGA1UEChMRVGVzdCBDZXJ0aWZpY2F0ZXMxGDAWBgNVBAsTD2luZGlyZWN0Q1JM
IENBNTAeFw0wMTA0MTkxNDU3MjBaFw0xMTA0MTkxNDU3MjBaMFsxCzAJBgNVBAYT
AlVTMRowGAYDVQQKExFUZXN0IENlcnRpZmljYXRlczEwMC4GA1UEAxMnSW52YWxp
ZCBjUkxJc3N1ZXIgRUUgQ2VydGlmaWNhdGUgVGVzdDM1MIGfMA0GCSqGSIb3DQEB
AQUAA4GNADCBiQKBgQDcad27MapNxZI8cHsmcsbc69H6JrfyxEdrb8jo4H7kREvw
Ysye/I+06+hyhrY2ziYjoPjk5qwOT6MZoD6a8nysxt+wJwTtwWP7qrrHUrTTM4wZ
825zHunib1GDGS6NDkRGi3ZZyHgwYGJIpNFvpZ2tYbnQ1YCd+82ApJ/pVK7luwID
AQABo4IBNTCCATEwHwYDVR0jBBgwFoAUlK0S0eEOfsO7N0tBPW1ZgD9EV20wHQYD
VR0OBBYEFHF/hceoUsXQv3cfdoCyVLgI9NqMMA4GA1UdDwEB/wQEAwIE8DAXBgNV
HSAEEDAOMAwGCmCGSAFlAwIBMAEwgcUGA1UdHwSBvTCBujCBt6BsoGqkaDBmMQsw
CQYDVQQGEwJVUzEaMBgGA1UEChMRVGVzdCBDZXJ0aWZpY2F0ZXMxGDAWBgNVBAsT
D2luZGlyZWN0Q1JMIENBNTEhMB8GA1UEAxMYQ1JMMSBmb3IgaW5kaXJlY3RDUkwg
Q0E1okekRTBDMQswCQYDVQQGEwJVUzEaMBgGA1UEChMRVGVzdCBDZXJ0aWZpY2F0
ZXMxGDAWBgNVBAMTD2luZGlyZWN0Q1JMIENBNjANBgkqhkiG9w0BAQUFAAOBgQAH
2pRXjertT5rd9nPU9I5ZthZL8EBhTAfMObbfi8/CYJ+Cftct++cBQATBDBr6ho3Z
TNjd6Qkd1wPPR2EgMk1HWJ6QS4/eQooeTsqstbgz6n/KcMB/+gQeYZbEyFoVu5e6
C13SPmHSsdy1dtEVVELLreIOhfgSjoMBBQYMCJwffw==
-----END CERTIFICATE-----

Certificate Revocation List (CRL):
        Version 2 (0x1)
        Signature Algorithm: sha1WithRSAEncryption
        Issuer: /C=US/O=Test Certificates/CN=Trust Anchor
        Last Update: Apr 19 14:57:20 2001 GMT
        Next Update: Apr 19 14:57:20 2011 GMT
        CRL extensions:
            X509v3 Authority Key Identifier: 
                keyid:FB:6C:D4:2D:81:9E:CA:27:7A:9E:0D:B0:3C:EA:9A:BC:87:FF:49:EA

            X509v3 CRL Number: 
                1
Revoked Certificates:
    Serial Number: 68
        Revocation Date: Apr 19 14:57:20 2001 GMT
        CRL entry extensions:
            X509v3 CRL Reason Code: 
                Key Compromise
    Signature Algorithm: sha1WithRSAEncryption
        92:12:c4:34:b4:92:ab:ba:71:6b:74:31:16:ce:ed:25:d6:4b:
        1e:fa:f8:20:1e:9d:d7:7f:30:ed:15:f7:8b:5d:64:9b:dd:31:
        40:e4:55:0f:0c:5f:82:69:63:00:76:a5:cf:9e:c4:5f:f2:53:
        9b:9b:7d:f5:69:1d:74:57:38:70:e5:fb:5b:76:58:c9:ec:31:
        dc:94:1b:02:ee:9d:33:9c:38:4b:29:1d:e1:0c:29:8b:6e:c7:
        bf:a0:e8:40:34:83:cf:ff:9f:cd:b5:f7:d9:4d:a7:9f:2e:bf:
        44:98:6b:f2:d3:fe:a8:20:31:c1:33:76:b7:1c:19:65:4d:b9:
        14:39
-----BEGIN X509 CRL-----
MIIBXTCBxwIBATANBgkqhkiG9w0BAQUFADBAMQswCQYDVQQGEwJVUzEaMBgGA1UE
ChMRVGVzdCBDZXJ0aWZpY2F0ZXMxFTATBgNVBAMTDFRydXN0IEFuY2hvchcNMDEw
NDE5MTQ1NzIwWhcNMTEwNDE5MTQ1NzIwWjAiMCACAWgXDTAxMDQxOTE0NTcyMFow
DDAKBgNVHRUEAwoBAaAvMC0wHwYDVR0jBBgwFoAU+2zULYGeyid6ng2wPOqavIf/
SeowCgYDVR0UBAMCAQEwDQYJKoZIhvcNAQEFBQADgYEAkhLENLSSq7pxa3QxFs7t
JdZLHvr4IB6d138w7RX3i11km90xQORVDwxfgmljAHalz57EX/JTm5t99WkddFc4
cOX7W3ZYyewx3JQbAu6dM5w4Sykd4Qwpi27Hv6DoQDSDz/+fzbX32U2nny6/RJhr
8tP+qCAxwTN2txwZZU25FDk=
-----END X509 CRL-----

Certificate Revocation List (CRL):
        Version 2 (0x1)
        Signature Algorithm: sha1WithRSAEncryption
        Issuer: /C=US/O=Test Certificates/OU=indirectCRL CA5
        Last Update: Apr 19 14:57:20 2001 GMT
        Next Update: Apr 19 14:57:20 2011 GMT
        CRL extensions:
            X509v3 Authority Key Identifier: 
                keyid:94:AD:12:D1:E1:0E:7E:C3:BB:37:4B:41:3D:6D:59:80:3F:44:57:6D

            X509v3 CRL Number: 
                1
            2.5.29.28: critical
                0..Y...R...N.p0n1.0...U....US1.0...U.
..Test Certificates1.0...U....indirectCRL CA51)0'..U... indirect CRL for indirectCRL CA6.p0n1.0...U....US1.0...U.
..Test Certificates1.0...U....indirectCRL CA51)0'..U... indirect CRL for indirectCRL CA7.h0f1.0...U....US1.0...U.
..Test Certificates1.0...U....indirectCRL CA51!0...U....CRL1 for indirectCRL CA5...
Revoked Certificates:
    Serial Number: 01
        Revocation Date: Apr 19 14:57:20 2001 GMT
        CRL entry extensions:
            X509v3 CRL Reason Code: 
                Key Compromise
    Serial Number: 02
        Revocation Date: Apr 19 14:57:20 2001 GMT
        CRL entry extensions:
            X509v3 CRL Reason Code: 
                Key Compromise
            2.5.29.29: critical
                0G.E0C1.0...U....US1.0...U.
..Test Certificates1.0...U....indirectCRL CA6
    Serial Number: 03
        Revocation Date: Apr 19 14:57:20 2001 GMT
        CRL entry extensions:
            X509v3 CRL Reason Code: 
                Key Compromise
    Serial Number: 04
        Revocation Date: Apr 19 14:57:20 2001 GMT
        CRL entry extensions:
            X509v3 CRL Reason Code: 
                Key Compromise
    Serial Number: 05
        Revocation Date: Apr 19 14:57:20 2001 GMT
        CRL entry extensions:
            X509v3 CRL Reason Code: 
                Key Compromise
            2.5.29.29: critical
                0G.E0C1.0...U....US1.0...U.
..Test Certificates1.0...U....indirectCRL CA7
    Serial Number: 06
        Revocation Date: Apr 19 14:57:20 2001 GMT
        CRL entry extensions:
            X509v3 CRL Reason Code: 
                Key Compromise
    Serial Number: 07
        Revocation Date: Apr 19 14:57:20 2001 GMT
        CRL entry extensions:
            X509v3 CRL Reason Code: 
                Key Compromise
    Serial Number: 08
        Revocation Date: Apr 19 14:57:20 2001 GMT
        CRL entry extensions:
            X509v3 CRL Reason Code: 
                Key Compromise
            2.5.29.29: critical
                0G.E0C1.0...U....US1.0...U.
..Test Certificates1.0...U....indirectCRL CA6
    Serial Number: 09
        Revocation Date: Apr 19 14:57:20 2001 GMT
        CRL entry extensions:
            X509v3 CRL Reason Code: 
                Key Compromise
    Serial Number: 0A
        Revocation Date: Apr 19 14:57:20 2001 GMT
        CRL entry extensions:
            X509v3 CRL Reason Code: 
                Key Compromise
            2.5.29.29: critical
                0G.E0C1.0...U....US1.0...U.
..Test Certificates1.0...U....indirectCRL CA5
    Serial Number: 0B
        Revocation Date: Apr 19 14:57:20 2001 GMT
        CRL entry extensions:
            X509v3 CRL Reason Code: 
                Key Compromise
    Signature Algorithm: sha1WithRSAEncryption
        05:49:47:a1:74:fb:1b:35:e7:63:c3:18:3f:ff:34:5b:ba:1c:
        d3:05:5c:a5:3f:2e:d1:1b:fe:d9:91:8b:25:a9:b1:e2:42:9c:
        f0:f9:98:c2:ae:94:da:1e:da:b8:38:51:6b:42:c1:6e:c5:9e:
        44:bc:3a:b4:36:57:f8:56:a1:ae:4c:04:ca:b6:67:2e:da:ce:
        51:b3:17:b7:9e:1d:12:af:54:9d:37:88:d2:58:9f:c1:a6:53:
        79:c8:aa:90:45:b2:ff:61:63:e9:5e:2c:7b:4c:6e:a8:71:ab:
        7b:10:11:aa:c4:bd:45:ce:9a:09:d5:f7:ac:0d:83:7c:62:3c:
        c7:af
-----BEGIN X509 CRL-----
MIIFfDCCBOUCAQEwDQYJKoZIhvcNAQEFBQAwQzELMAkGA1UEBhMCVVMxGjAYBgNV
BAoTEVRlc3QgQ2VydGlmaWNhdGVzMRgwFgYDVQQLEw9pbmRpcmVjdENSTCBDQTUX
DTAxMDQxOTE0NTcyMFoXDTExMDQxOTE0NTcyMFowggLKMCACAQEXDTAxMDQxOTE0
NTcyMFowDDAKBgNVHRUEAwoBATB1AgECFw0wMTA0MTkxNDU3MjBaMGEwCgYDVR0V
BAMKAQEwUwYDVR0dAQH/BEkwR6RFMEMxCzAJBgNVBAYTAlVTMRowGAYDVQQKExFU
ZXN0IENlcnRpZmljYXRlczEYMBYGA1UEAxMPaW5kaXJlY3RDUkwgQ0E2MCACAQMX
DTAxMDQxOTE0NTcyMFowDDAKBgNVHRUEAwoBATAgAgEEFw0wMTA0MTkxNDU3MjBa
MAwwCgYDVR0VBAMKAQEwdQIBBRcNMDEwNDE5MTQ1NzIwWjBhMAoGA1UdFQQDCgEB
MFMGA1UdHQEB/wRJMEekRTBDMQswCQYDVQQGEwJVUzEaMBgGA1UEChMRVGVzdCBD
ZXJ0aWZpY2F0ZXMxGDAWBgNVBAMTD2luZGlyZWN0Q1JMIENBNzAgAgEGFw0wMTA0
MTkxNDU3MjBaMAwwCgYDVR0VBAMKAQEwIAIBBxcNMDEwNDE5MTQ1NzIwWjAMMAoG
A1UdFQQDCgEBMHUCAQgXDTAxMDQxOTE0NTcyMFowYTAKBgNVHRUEAwoBATBTBgNV
HR0BAf8ESTBHpEUwQzELMAkGA1UEBhMCVVMxGjAYBgNVBAoTEVRlc3QgQ2VydGlm
aWNhdGVzMRgwFgYDVQQDEw9pbmRpcmVjdENSTCBDQTYwIAIBCRcNMDEwNDE5MTQ1
NzIwWjAMMAoGA1UdFQQDCgEBMHUCAQoXDTAxMDQxOTE0NTcyMFowYTAKBgNVHRUE
AwoBATBTBgNVHR0BAf8ESTBHpEUwQzELMAkGA1UEBhMCVVMxGjAYBgNVBAoTEVRl
c3QgQ2VydGlmaWNhdGVzMRgwFgYDVQQLEw9pbmRpcmVjdENSTCBDQTUwIAIBCxcN
MDEwNDE5MTQ1NzIwWjAMMAoGA1UdFQQDCgEBoIIBnjCCAZowHwYDVR0jBBgwFoAU
lK0S0eEOfsO7N0tBPW1ZgD9EV20wCgYDVR0UBAMCAQEwggFpBgNVHRwBAf8EggFd
MIIBWaCCAVKgggFOpHAwbjELMAkGA1UEBhMCVVMxGjAYBgNVBAoTEVRlc3QgQ2Vy
dGlmaWNhdGVzMRgwFgYDVQQLEw9pbmRpcmVjdENSTCBDQTUxKTAnBgNVBAMTIGlu
ZGlyZWN0IENSTCBmb3IgaW5kaXJlY3RDUkwgQ0E2pHAwbjELMAkGA1UEBhMCVVMx
GjAYBgNVBAoTEVRlc3QgQ2VydGlmaWNhdGVzMRgwFgYDVQQLEw9pbmRpcmVjdENS
TCBDQTUxKTAnBgNVBAMTIGluZGlyZWN0IENSTCBmb3IgaW5kaXJlY3RDUkwgQ0E3
pGgwZjELMAkGA1UEBhMCVVMxGjAYBgNVBAoTEVRlc3QgQ2VydGlmaWNhdGVzMRgw
FgYDVQQLEw9pbmRpcmVjdENSTCBDQTUxITAfBgNVBAMTGENSTDEgZm9yIGluZGly
ZWN0Q1JMIENBNYQB/zANBgkqhkiG9w0BAQUFAAOBgQAFSUehdPsbNedjwxg//zRb
uhzTBVylPy7RG/7ZkYslqbHiQpzw+ZjCrpTaHtq4OFFrQsFuxZ5EvDq0Nlf4VqGu
TATKtmcu2s5Rsxe3nh0Sr1SdN4jSWJ/BplN5yKqQRbL/YWPpXix7TG6ocat7EBGq
xL1FzpoJ1fesDYN8YjzHrw==
-----END X509 CRL-----

