subject=/C=US/O=Test Certificates/CN=Bad notAfter Date CA
issuer=/C=US/O=Test Certificates/CN=Trust Anchor
-----BEGIN CERTIFICATE-----
MIICejCCAeOgAwIBAgIBBTANBgkqhkiG9w0BAQUFADBAMQswCQYDVQQGEwJVUzEa
MBgGA1UEChMRVGVzdCBDZXJ0aWZpY2F0ZXMxFTATBgNVBAMTDFRydXN0IEFuY2hv
cjAeFw0wMTA0MTkxNDU3MjBaFw0wMjAxMDExMjAxMDBaMEgxCzAJBgNVBAYTAlVT
MRowGAYDVQQKExFUZXN0IENlcnRpZmljYXRlczEdMBsGA1UEAxMUQmFkIG5vdEFm
dGVyIERhdGUgQ0EwgZ8wDQYJKoZIhvcNAQEBBQADgY0AMIGJAoGBAO8t6F1gCSiD
eAh0EXEEP1RGW1G+zM3TmSeKbm0GLmH4SJp7HbsjBab4wtNEVlOrYMG5phm3dro3
P6YEmVt0q2yzDo8OkpfbYwJEy6e/vdjF9itss2yajms7qA6xPbggpdYElK4y/1Ei
o0+nUli6dZQpEz7/V5tSk8S3zvh+lJ+jAgMBAAGjfDB6MB8GA1UdIwQYMBaAFPts
1C2Bnsonep4NsDzqmryH/0nqMB0GA1UdDgQWBBQtDCY+YSMuNxOnyukyqVHgELUF
MjAOBgNVHQ8BAf8EBAMCAQYwFwYDVR0gBBAwDjAMBgpghkgBZQMCATABMA8GA1Ud
EwEB/wQFMAMBAf8wDQYJKoZIhvcNAQEFBQADgYEAMDkUbWtYhitXM+mGr3TBaTgM
IlnMLUMsqxka0EQ7fiEaLtVsOD8CjMRKeNcWo6ZwVfJk7EDOnV4+E1TlAzNp1m9z
rHB+fc97XJlIaQwOF1WMnjaZl96TO5Tb8FIaebsIeknz2m8IhfZ/EuWPfqs37ZxQ
b0YPNilIGsUSrT3rTBk=
-----END CERTIFICATE-----

subject=/C=US/O=Test Certificates/CN=Invalid CA notAfter Date EE Certificate Test5
issuer=/C=US/O=Test Certificates/CN=Bad notAfter Date CA
-----BEGIN CERTIFICATE-----
MIICijCCAfOgAwIBAgIBATANBgkqhkiG9w0BAQUFADBIMQswCQYDVQQGEwJVUzEa
MBgGA1UEChMRVGVzdCBDZXJ0aWZpY2F0ZXMxHTAbBgNVBAMTFEJhZCBub3RBZnRl
ciBEYXRlIENBMB4XDTAxMDQxOTE0NTcyMFoXDTExMDQxOTE0NTcyMFowYTELMAkG
A1UEBhMCVVMxGjAYBgNVBAoTEVRlc3QgQ2VydGlmaWNhdGVzMTYwNAYDVQQDEy1J
bnZhbGlkIENBIG5vdEFmdGVyIERhdGUgRUUgQ2VydGlmaWNhdGUgVGVzdDUwgZ8w
DQYJKoZIhvcNAQEBBQADgY0AMIGJAoGBAOhmxDd5kdaDqSlvran3+R64X7ilMaOb
DINojoBxIW3XAxrXD3TFdV/twdn97GoxEkeh14g1W9IV7RTwfDoVf95tjNli7Zsg
ye+NVj1gYVV+DdMpxy44biOW6s9l2wRqNqoeE1AFSj2su1PgamWIHiGo4BQkcE5F
bMwHbJCR8znNAgMBAAGjazBpMB8GA1UdIwQYMBaAFC0MJj5hIy43E6fK6TKpUeAQ
tQUyMB0GA1UdDgQWBBRsW4S+GLLshXYDAKY/yVcV2NlPtjAOBgNVHQ8BAf8EBAMC
BPAwFwYDVR0gBBAwDjAMBgpghkgBZQMCATABMA0GCSqGSIb3DQEBBQUAA4GBANJW
FdT2Ss72xFAtOuGm5EoRp7tP32SI2iyLmeLRi7YeIo/95FVK6xVzjZ8zT3pjyKvx
7qe2O/cF9SyQssnebmTqLJQxCeWHWzt0BpbI4U9GZJF0vEeqTU/psLhr6p+20T6R
XmeWECYyRGe0Wmndt5GJ74PBYrUjR5mtDojhKn/o
-----END CERTIFICATE-----

Certificate Revocation List (CRL):
        Version 2 (0x1)
        Signature Algorithm: sha1WithRSAEncryption
        Issuer: /C=US/O=Test Certificates/CN=Bad notAfter Date CA
        Last Update: Apr 19 14:57:20 2001 GMT
        Next Update: Apr 19 14:57:20 2011 GMT
        CRL extensions:
            X509v3 Authority Key Identifier: 
                keyid:2D:0C:26:3E:61:23:2E:37:13:A7:CA:E9:32:A9:51:E0:10:B5:05:32

            X509v3 CRL Number: 
                1
No Revoked Certificates.
    Signature Algorithm: sha1WithRSAEncryption
        a6:dd:d9:bd:87:0d:1d:95:02:a5:1f:92:e9:dd:bc:1f:16:df:
        b4:5d:31:d9:76:6f:06:90:cf:da:09:6e:f8:15:1e:bd:41:d6:
        4f:a3:f4:78:a8:67:96:1d:ef:8a:c1:77:e8:b2:83:81:5e:d0:
        f3:53:36:a8:78:39:d2:cf:eb:b7:57:e6:13:ac:33:87:9c:19:
        64:08:a3:14:5d:71:79:b7:10:88:93:44:a5:32:79:85:fc:fa:
        a5:a5:81:d6:99:60:2e:a5:2e:2e:6a:60:41:29:70:2a:27:b7:
        9b:52:75:fd:9e:06:e2:80:f6:6e:0e:19:39:75:9e:a8:70:b3:
        ca:d7
-----BEGIN X509 CRL-----
MIIBQTCBqwIBATANBgkqhkiG9w0BAQUFADBIMQswCQYDVQQGEwJVUzEaMBgGA1UE
ChMRVGVzdCBDZXJ0aWZpY2F0ZXMxHTAbBgNVBAMTFEJhZCBub3RBZnRlciBEYXRl
IENBFw0wMTA0MTkxNDU3MjBaFw0xMTA0MTkxNDU3MjBaoC8wLTAfBgNVHSMEGDAW
gBQtDCY+YSMuNxOnyukyqVHgELUFMjAKBgNVHRQEAwIBATANBgkqhkiG9w0BAQUF
AAOBgQCm3dm9hw0dlQKlH5Lp3bwfFt+0XTHZdm8GkM/aCW74FR69QdZPo/R4qGeW
He+KwXfosoOBXtDzUzaoeDnSz+u3V+YTrDOHnBlkCKMUXXF5txCIk0SlMnmF/Pql
pYHWmWAupS4uamBBKXAqJ7ebUnX9ngbigPZuDhk5dZ6ocLPK1w==
-----END X509 CRL-----

Certificate Revocation List (CRL):
        Version 2 (0x1)
        Signature Algorithm: sha1WithRSAEncryption
        Issuer: /C=US/O=Test Certificates/CN=Trust Anchor
        Last Update: Apr 19 14:57:20 2001 GMT
        Next Update: Apr 19 14:57:20 2011 GMT
        CRL extensions:
            X509v3 Authority Key Identifier: 
                keyid:FB:6C:D4:2D:81:9E:CA:27:7A:9E:0D:B0:3C:EA:9A:BC:87:FF:49:EA

            X509v3 CRL Number: 
                1
Revoked Certificates:
    Serial Number: 68
        Revocation Date: Apr 19 14:57:20 2001 GMT
        CRL entry extensions:
            X509v3 CRL Reason Code: 
                Key Compromise
    Signature Algorithm: sha1WithRSAEncryption
        92:12:c4:34:b4:92:ab:ba:71:6b:74:31:16:ce:ed:25:d6:4b:
        1e:fa:f8:20:1e:9d:d7:7f:30:ed:15:f7:8b:5d:64:9b:dd:31:
        40:e4:55:0f:0c:5f:82:69:63:00:76:a5:cf:9e:c4:5f:f2:53:
        9b:9b:7d:f5:69:1d:74:57:38:70:e5:fb:5b:76:58:c9:ec:31:
        dc:94:1b:02:ee:9d:33:9c:38:4b:29:1d:e1:0c:29:8b:6e:c7:
        bf:a0:e8:40:34:83:cf:ff:9f:cd:b5:f7:d9:4d:a7:9f:2e:bf:
        44:98:6b:f2:d3:fe:a8:20:31:c1:33:76:b7:1c:19:65:4d:b9:
        14:39
-----BEGIN X509 CRL-----
MIIBXTCBxwIBATANBgkqhkiG9w0BAQUFADBAMQswCQYDVQQGEwJVUzEaMBgGA1UE
ChMRVGVzdCBDZXJ0aWZpY2F0ZXMxFTATBgNVBAMTDFRydXN0IEFuY2hvchcNMDEw
NDE5MTQ1NzIwWhcNMTEwNDE5MTQ1NzIwWjAiMCACAWgXDTAxMDQxOTE0NTcyMFow
DDAKBgNVHRUEAwoBAaAvMC0wHwYDVR0jBBgwFoAU+2zULYGeyid6ng2wPOqavIf/
SeowCgYDVR0UBAMCAQEwDQYJKoZIhvcNAQEFBQADgYEAkhLENLSSq7pxa3QxFs7t
JdZLHvr4IB6d138w7RX3i11km90xQORVDwxfgmljAHalz57EX/JTm5t99WkddFc4
cOX7W3ZYyewx3JQbAu6dM5w4Sykd4Qwpi27Hv6DoQDSDz/+fzbX32U2nny6/RJhr
8tP+qCAxwTN2txwZZU25FDk=
-----END X509 CRL-----

