subject=/C=US/O=Test Certificates/CN=basicConstraints Not Critical cA False CA
issuer=/C=US/O=Test Certificates/CN=Trust Anchor
-----BEGIN CERTIFICATE-----
MIICiTCCAfKgAwIBAgIBGDANBgkqhkiG9w0BAQUFADBAMQswCQYDVQQGEwJVUzEa
MBgGA1UEChMRVGVzdCBDZXJ0aWZpY2F0ZXMxFTATBgNVBAMTDFRydXN0IEFuY2hv
cjAeFw0wMTA0MTkxNDU3MjBaFw0xMTA0MTkxNDU3MjBaMF0xCzAJBgNVBAYTAlVT
MRowGAYDVQQKExFUZXN0IENlcnRpZmljYXRlczEyMDAGA1UEAxMpYmFzaWNDb25z
dHJhaW50cyBOb3QgQ3JpdGljYWwgY0EgRmFsc2UgQ0EwgZ8wDQYJKoZIhvcNAQEB
BQADgY0AMIGJAoGBALebKuy5EJW95AkM4MZ0p12UxwWQqlclzW+C7Ntov96ejAjA
ciH9FrTh8IzXl99nnQnHHO8O+pZ1jzh8hQx+kAGx6ENV87E9ByTgcNUwSgHgEHX+
59fIr8RTbdUtF2T1U8iyFM88FkpI682I0GvNDuej65588/P/OAHTmZbqcWrfAgMB
AAGjdjB0MB8GA1UdIwQYMBaAFPts1C2Bnsonep4NsDzqmryH/0nqMB0GA1UdDgQW
BBTEleK6dmzd47tLaP1CRfgUVOxbzTAOBgNVHQ8BAf8EBAMCAQYwFwYDVR0gBBAw
DjAMBgpghkgBZQMCATABMAkGA1UdEwQCMAAwDQYJKoZIhvcNAQEFBQADgYEAhjgF
Diuvic63KpOvuZxczWMf0K//uMCtUxtXXRTI3/Wm4ryKa+yI52FUGhUcNB5wRAES
R1tJSuphGx6rdcSHZTE95gLo24lnyc+oTZQ3gcK2xouTy3F3CvhmPs9QMMjaqtfn
NDJKzUyBvAasUQ9SZxk+bifeeSQ/RDzmQxNKHr8=
-----END CERTIFICATE-----

subject=/C=US/O=Test Certificates/CN=Invalid cA False EE Certificate Test3
issuer=/C=US/O=Test Certificates/CN=basicConstraints Not Critical cA False CA
-----BEGIN CERTIFICATE-----
MIIClzCCAgCgAwIBAgIBATANBgkqhkiG9w0BAQUFADBdMQswCQYDVQQGEwJVUzEa
MBgGA1UEChMRVGVzdCBDZXJ0aWZpY2F0ZXMxMjAwBgNVBAMTKWJhc2ljQ29uc3Ry
YWludHMgTm90IENyaXRpY2FsIGNBIEZhbHNlIENBMB4XDTAxMDQxOTE0NTcyMFoX
DTExMDQxOTE0NTcyMFowWTELMAkGA1UEBhMCVVMxGjAYBgNVBAoTEVRlc3QgQ2Vy
dGlmaWNhdGVzMS4wLAYDVQQDEyVJbnZhbGlkIGNBIEZhbHNlIEVFIENlcnRpZmlj
YXRlIFRlc3QzMIGfMA0GCSqGSIb3DQEBAQUAA4GNADCBiQKBgQC5JEpPUEhR94hD
geH4nu6tuBiM/sUvTffvOfzdSftTXOQ/4pHuZPXKDz7SrM5gAimRZMXlC0ZngP7z
9Q7StXqOqMvZI75GjHGYr3S3W56vvCxfDh639L/x3UlhfKqEzn3rMLMDC52lJzcH
npMqMRIYWdedIvqg6OaxMDj30va12wIDAQABo2swaTAfBgNVHSMEGDAWgBTEleK6
dmzd47tLaP1CRfgUVOxbzTAdBgNVHQ4EFgQUxBUts6LKOH9HITo2TnmeY1hdGNsw
DgYDVR0PAQH/BAQDAgTwMBcGA1UdIAQQMA4wDAYKYIZIAWUDAgEwATANBgkqhkiG
9w0BAQUFAAOBgQAnnZ9Y8fdKeA3cdodXsQqz302mCLQLH1jhcE7UnfAYrTdecJ5s
8xxE7AKdNEG7/KUAoSwKDsGw0HBIQDPD62kblZEWKViT4+e4isf4Dy3G31BRbkiu
bcJsDKzOOdCeCdXJvGXAJ18su8P+4srOddrQuINqRy2YgDG5Rka2WArY2g==
-----END CERTIFICATE-----

Certificate Revocation List (CRL):
        Version 2 (0x1)
        Signature Algorithm: sha1WithRSAEncryption
        Issuer: /C=US/O=Test Certificates/CN=basicConstraints Not Critical cA False CA
        Last Update: Apr 19 14:57:20 2001 GMT
        Next Update: Apr 19 14:57:20 2011 GMT
        CRL extensions:
            X509v3 Authority Key Identifier: 
                keyid:C4:95:E2:BA:76:6C:DD:E3:BB:4B:68:FD:42:45:F8:14:54:EC:5B:CD

            X509v3 CRL Number: 
                1
No Revoked Certificates.
    Signature Algorithm: sha1WithRSAEncryption
        a4:53:e8:4c:ac:c5:d6:66:9f:c8:a6:4c:ad:d2:6f:2e:31:b6:
        48:37:6b:9e:e8:76:8a:ff:23:80:3a:49:a2:91:d4:94:0a:bd:
        9b:2c:0b:cd:c3:9f:e8:a4:7e:b1:ce:37:ea:23:5c:ff:c2:76:
        6e:c4:84:d3:21:2a:ef:7d:2e:fd:71:54:2d:8a:ef:f5:96:73:
        f1:7a:c9:1a:7c:77:86:b4:df:0c:47:a3:8b:9b:b1:f7:bc:21:
        64:6d:19:97:ca:b2:1b:e8:4d:f7:66:c4:78:75:5d:76:b8:7c:
        5d:88:f4:ae:b8:6c:27:11:c4:96:09:b2:35:fb:6a:da:f8:fe:
        73:df
-----BEGIN X509 CRL-----
MIIBVjCBwAIBATANBgkqhkiG9w0BAQUFADBdMQswCQYDVQQGEwJVUzEaMBgGA1UE
ChMRVGVzdCBDZXJ0aWZpY2F0ZXMxMjAwBgNVBAMTKWJhc2ljQ29uc3RyYWludHMg
Tm90IENyaXRpY2FsIGNBIEZhbHNlIENBFw0wMTA0MTkxNDU3MjBaFw0xMTA0MTkx
NDU3MjBaoC8wLTAfBgNVHSMEGDAWgBTEleK6dmzd47tLaP1CRfgUVOxbzTAKBgNV
HRQEAwIBATANBgkqhkiG9w0BAQUFAAOBgQCkU+hMrMXWZp/Ipkyt0m8uMbZIN2ue
6HaK/yOAOkmikdSUCr2bLAvNw5/opH6xzjfqI1z/wnZuxITTISrvfS79cVQtiu/1
lnPxeskafHeGtN8MR6OLm7H3vCFkbRmXyrIb6E33ZsR4dV12uHxdiPSuuGwnEcSW
CbI1+2ra+P5z3w==
-----END X509 CRL-----

Certificate Revocation List (CRL):
        Version 2 (0x1)
        Signature Algorithm: sha1WithRSAEncryption
        Issuer: /C=US/O=Test Certificates/CN=Trust Anchor
        Last Update: Apr 19 14:57:20 2001 GMT
        Next Update: Apr 19 14:57:20 2011 GMT
        CRL extensions:
            X509v3 Authority Key Identifier: 
                keyid:FB:6C:D4:2D:81:9E:CA:27:7A:9E:0D:B0:3C:EA:9A:BC:87:FF:49:EA

            X509v3 CRL Number: 
                1
Revoked Certificates:
    Serial Number: 68
        Revocation Date: Apr 19 14:57:20 2001 GMT
        CRL entry extensions:
            X509v3 CRL Reason Code: 
                Key Compromise
    Signature Algorithm: sha1WithRSAEncryption
        92:12:c4:34:b4:92:ab:ba:71:6b:74:31:16:ce:ed:25:d6:4b:
        1e:fa:f8:20:1e:9d:d7:7f:30:ed:15:f7:8b:5d:64:9b:dd:31:
        40:e4:55:0f:0c:5f:82:69:63:00:76:a5:cf:9e:c4:5f:f2:53:
        9b:9b:7d:f5:69:1d:74:57:38:70:e5:fb:5b:76:58:c9:ec:31:
        dc:94:1b:02:ee:9d:33:9c:38:4b:29:1d:e1:0c:29:8b:6e:c7:
        bf:a0:e8:40:34:83:cf:ff:9f:cd:b5:f7:d9:4d:a7:9f:2e:bf:
        44:98:6b:f2:d3:fe:a8:20:31:c1:33:76:b7:1c:19:65:4d:b9:
        14:39
-----BEGIN X509 CRL-----
MIIBXTCBxwIBATANBgkqhkiG9w0BAQUFADBAMQswCQYDVQQGEwJVUzEaMBgGA1UE
ChMRVGVzdCBDZXJ0aWZpY2F0ZXMxFTATBgNVBAMTDFRydXN0IEFuY2hvchcNMDEw
NDE5MTQ1NzIwWhcNMTEwNDE5MTQ1NzIwWjAiMCACAWgXDTAxMDQxOTE0NTcyMFow
DDAKBgNVHRUEAwoBAaAvMC0wHwYDVR0jBBgwFoAU+2zULYGeyid6ng2wPOqavIf/
SeowCgYDVR0UBAMCAQEwDQYJKoZIhvcNAQEFBQADgYEAkhLENLSSq7pxa3QxFs7t
JdZLHvr4IB6d138w7RX3i11km90xQORVDwxfgmljAHalz57EX/JTm5t99WkddFc4
cOX7W3ZYyewx3JQbAu6dM5w4Sykd4Qwpi27Hv6DoQDSDz/+fzbX32U2nny6/RJhr
8tP+qCAxwTN2txwZZU25FDk=
-----END X509 CRL-----

