subject=/C=US/O=Test Certificates/CN=pre2000 CRL nextUpdate CA
issuer=/C=US/O=Test Certificates/CN=Trust Anchor
-----BEGIN CERTIFICATE-----
MIICfzCCAeigAwIBAgIBDzANBgkqhkiG9w0BAQUFADBAMQswCQYDVQQGEwJVUzEa
MBgGA1UEChMRVGVzdCBDZXJ0aWZpY2F0ZXMxFTATBgNVBAMTDFRydXN0IEFuY2hv
cjAeFw0wMTA0MTkxNDU3MjBaFw0xMTA0MTkxNDU3MjBaME0xCzAJBgNVBAYTAlVT
MRowGAYDVQQKExFUZXN0IENlcnRpZmljYXRlczEiMCAGA1UEAxMZcHJlMjAwMCBD
UkwgbmV4dFVwZGF0ZSBDQTCBnzANBgkqhkiG9w0BAQEFAAOBjQAwgYkCgYEAlMZQ
vRTxm+l3FRtimp7Exo1NygL3qQsF8cpvpQMmM4S+vWWIQcZPBAGfTi4eW4ubaKOh
UqzxbVtY6R97mA0Ng6GHXIclN5ozja/xJdqdIOz9CsB38IvgyXTTQv3kF7nch9Ir
xAN+7Bf5oWOdRbN6Y+i5iDHb3j7f3r8EFtXX+EcCAwEAAaN8MHowHwYDVR0jBBgw
FoAU+2zULYGeyid6ng2wPOqavIf/SeowHQYDVR0OBBYEFL16NgTVXQmVv12uq+yk
UWCNJq9WMA4GA1UdDwEB/wQEAwIBBjAXBgNVHSAEEDAOMAwGCmCGSAFlAwIBMAEw
DwYDVR0TAQH/BAUwAwEB/zANBgkqhkiG9w0BAQUFAAOBgQB9/jemk5S7bYWeZC4Y
bzwXzQEjfRTlrJ5xIj/cOAWG+BvCzeSkaoi3hw+Ltt/T571j6NoAQu84Mx/Jwbt/
zNBwu4iMmeaeU5GM+9oTVU8JTOog2ZPGR2Yn1luPQv5LwbPE+mysPaEsM/mTl5cM
OMB0yUOD5/jo/76IJhN/M48tvw==
-----END CERTIFICATE-----

subject=/C=US/O=Test Certificates/CN=Invalid pre2000 CRL nextUpdate EE Certificate Test12
issuer=/C=US/O=Test Certificates/CN=pre2000 CRL nextUpdate CA
-----BEGIN CERTIFICATE-----
MIICljCCAf+gAwIBAgIBATANBgkqhkiG9w0BAQUFADBNMQswCQYDVQQGEwJVUzEa
MBgGA1UEChMRVGVzdCBDZXJ0aWZpY2F0ZXMxIjAgBgNVBAMTGXByZTIwMDAgQ1JM
IG5leHRVcGRhdGUgQ0EwHhcNMDEwNDE5MTQ1NzIwWhcNMTEwNDE5MTQ1NzIwWjBo
MQswCQYDVQQGEwJVUzEaMBgGA1UEChMRVGVzdCBDZXJ0aWZpY2F0ZXMxPTA7BgNV
BAMTNEludmFsaWQgcHJlMjAwMCBDUkwgbmV4dFVwZGF0ZSBFRSBDZXJ0aWZpY2F0
ZSBUZXN0MTIwgZ8wDQYJKoZIhvcNAQEBBQADgY0AMIGJAoGBANBocZCE1yNSbZiU
rcH9R8bB0cZERzxNK6g7d9v0tUsmbo0Gk2JgSaKG9vBnOpxJhJ3hhSxNmpGpp61Q
QlGo9louMi1AzibkrqOllW+FgXQImr89cxEicI9taSS9QRSIIKPW3kF4EhuZp4vR
SksCSxXsghAsSWeDqx9CQG772BiRAgMBAAGjazBpMB8GA1UdIwQYMBaAFL16NgTV
XQmVv12uq+ykUWCNJq9WMB0GA1UdDgQWBBRtKwIpcpf5JIosL9wN9VKKwAiAWzAO
BgNVHQ8BAf8EBAMCBPAwFwYDVR0gBBAwDjAMBgpghkgBZQMCATABMA0GCSqGSIb3
DQEBBQUAA4GBAIk3Dg2P1RArTBrVZ/kPeRAld8oPoTdmer7YAloo1Zavmcm5Fcvn
WmJfONAye0p7jsYSkv6HMK3DL2b4/KEnEDB/Ok9CLOdvoTtptk04CiSXOcQcP9uK
NY3uZgZoTo2O/lBe6KwA2apKitWtaHf/2Ig9AGhPvMBWtiDmgvpWE4T7
-----END CERTIFICATE-----

Certificate Revocation List (CRL):
        Version 2 (0x1)
        Signature Algorithm: sha1WithRSAEncryption
        Issuer: /C=US/O=Test Certificates/CN=pre2000 CRL nextUpdate CA
        Last Update: Jan  1 12:01:00 1998 GMT
        Next Update: Jan  1 12:01:00 1999 GMT
        CRL extensions:
            X509v3 Authority Key Identifier: 
                keyid:BD:7A:36:04:D5:5D:09:95:BF:5D:AE:AB:EC:A4:51:60:8D:26:AF:56

            X509v3 CRL Number: 
                1
No Revoked Certificates.
    Signature Algorithm: sha1WithRSAEncryption
        3f:41:4b:5b:b5:47:1a:77:7e:2a:87:63:65:06:9e:f7:18:96:
        8c:41:41:e6:9a:4f:45:91:ed:dd:8c:b1:d6:1f:e3:41:71:70:
        ed:98:51:35:e2:24:bb:cd:26:8a:c9:43:f1:4c:58:43:2a:31:
        5e:94:a5:5e:09:93:dd:a0:f9:d0:1a:c7:fd:d6:8b:4d:4c:6f:
        3c:d7:43:6b:b9:87:8d:c0:fd:f6:5a:a7:4b:f0:74:01:23:fc:
        61:24:fb:3d:32:5e:f7:fd:86:de:52:3f:09:2e:b2:f9:b5:99:
        a2:2d:96:83:2e:b9:a9:99:58:fa:c0:e5:5b:8b:15:fc:0e:d0:
        53:32
-----BEGIN X509 CRL-----
MIIBRjCBsAIBATANBgkqhkiG9w0BAQUFADBNMQswCQYDVQQGEwJVUzEaMBgGA1UE
ChMRVGVzdCBDZXJ0aWZpY2F0ZXMxIjAgBgNVBAMTGXByZTIwMDAgQ1JMIG5leHRV
cGRhdGUgQ0EXDTk4MDEwMTEyMDEwMFoXDTk5MDEwMTEyMDEwMFqgLzAtMB8GA1Ud
IwQYMBaAFL16NgTVXQmVv12uq+ykUWCNJq9WMAoGA1UdFAQDAgEBMA0GCSqGSIb3
DQEBBQUAA4GBAD9BS1u1Rxp3fiqHY2UGnvcYloxBQeaaT0WR7d2MsdYf40FxcO2Y
UTXiJLvNJorJQ/FMWEMqMV6UpV4Jk92g+dAax/3Wi01MbzzXQ2u5h43A/fZap0vw
dAEj/GEk+z0yXvf9ht5SPwkusvm1maItloMuuamZWPrA5VuLFfwO0FMy
-----END X509 CRL-----

Certificate Revocation List (CRL):
        Version 2 (0x1)
        Signature Algorithm: sha1WithRSAEncryption
        Issuer: /C=US/O=Test Certificates/CN=Trust Anchor
        Last Update: Apr 19 14:57:20 2001 GMT
        Next Update: Apr 19 14:57:20 2011 GMT
        CRL extensions:
            X509v3 Authority Key Identifier: 
                keyid:FB:6C:D4:2D:81:9E:CA:27:7A:9E:0D:B0:3C:EA:9A:BC:87:FF:49:EA

            X509v3 CRL Number: 
                1
Revoked Certificates:
    Serial Number: 68
        Revocation Date: Apr 19 14:57:20 2001 GMT
        CRL entry extensions:
            X509v3 CRL Reason Code: 
                Key Compromise
    Signature Algorithm: sha1WithRSAEncryption
        92:12:c4:34:b4:92:ab:ba:71:6b:74:31:16:ce:ed:25:d6:4b:
        1e:fa:f8:20:1e:9d:d7:7f:30:ed:15:f7:8b:5d:64:9b:dd:31:
        40:e4:55:0f:0c:5f:82:69:63:00:76:a5:cf:9e:c4:5f:f2:53:
        9b:9b:7d:f5:69:1d:74:57:38:70:e5:fb:5b:76:58:c9:ec:31:
        dc:94:1b:02:ee:9d:33:9c:38:4b:29:1d:e1:0c:29:8b:6e:c7:
        bf:a0:e8:40:34:83:cf:ff:9f:cd:b5:f7:d9:4d:a7:9f:2e:bf:
        44:98:6b:f2:d3:fe:a8:20:31:c1:33:76:b7:1c:19:65:4d:b9:
        14:39
-----BEGIN X509 CRL-----
MIIBXTCBxwIBATANBgkqhkiG9w0BAQUFADBAMQswCQYDVQQGEwJVUzEaMBgGA1UE
ChMRVGVzdCBDZXJ0aWZpY2F0ZXMxFTATBgNVBAMTDFRydXN0IEFuY2hvchcNMDEw
NDE5MTQ1NzIwWhcNMTEwNDE5MTQ1NzIwWjAiMCACAWgXDTAxMDQxOTE0NTcyMFow
DDAKBgNVHRUEAwoBAaAvMC0wHwYDVR0jBBgwFoAU+2zULYGeyid6ng2wPOqavIf/
SeowCgYDVR0UBAMCAQEwDQYJKoZIhvcNAQEFBQADgYEAkhLENLSSq7pxa3QxFs7t
JdZLHvr4IB6d138w7RX3i11km90xQORVDwxfgmljAHalz57EX/JTm5t99WkddFc4
cOX7W3ZYyewx3JQbAu6dM5w4Sykd4Qwpi27Hv6DoQDSDz/+fzbX32U2nny6/RJhr
8tP+qCAxwTN2txwZZU25FDk=
-----END X509 CRL-----

