subject=/C=US/O=Test Certificates/OU=distributionPoint2 CA
issuer=/C=US/O=Test Certificates/CN=Trust Anchor
-----BEGIN CERTIFICATE-----
MIICezCCAeSgAwIBAgIBSzANBgkqhkiG9w0BAQUFADBAMQswCQYDVQQGEwJVUzEa
MBgGA1UEChMRVGVzdCBDZXJ0aWZpY2F0ZXMxFTATBgNVBAMTDFRydXN0IEFuY2hv
cjAeFw0wMTA0MTkxNDU3MjBaFw0xMTA0MTkxNDU3MjBaMEkxCzAJBgNVBAYTAlVT
MRowGAYDVQQKExFUZXN0IENlcnRpZmljYXRlczEeMBwGA1UECxMVZGlzdHJpYnV0
aW9uUG9pbnQyIENBMIGfMA0GCSqGSIb3DQEBAQUAA4GNADCBiQKBgQCs1jD9UP9Z
XFXO9pXlwQaq3g11cXEADTlDc+W2RuUiBJXRjOhbt9pBqMwI7EhS41KMALd8ISna
SAp5DDvmtp2z4X95eoizwZ9O5vtIw6XA7d5EwFr2c89INmIXFw2OA0K2Xj9K7eKK
u95rUFjJM7qfZueTDyR8/qrUEUUhq+7gtQIDAQABo3wwejAfBgNVHSMEGDAWgBT7
bNQtgZ7KJ3qeDbA86pq8h/9J6jAdBgNVHQ4EFgQUOjSLBeN2WFjEhwSYfX4djKxd
uU4wDgYDVR0PAQH/BAQDAgEGMBcGA1UdIAQQMA4wDAYKYIZIAWUDAgEwATAPBgNV
HRMBAf8EBTADAQH/MA0GCSqGSIb3DQEBBQUAA4GBAMagar2d/lP05a6g8iDgAc4i
8GOkbbNIOguMdW9fwv9DvIJyDO/ruRnKgZJdY9osVBqR8pVP1qErhwboe+dIBgLA
p1yRVbcPKEd/1xXrFhjoH9Wlp6CK6Al0LIJ7iQMoufcUzay6Bux5caNEH06+BnJF
nhKgwK6jkVuYAf9HHtVh
-----END CERTIFICATE-----

subject=/C=US/O=Test Certificates/CN=Invalid distributionPoint EE Certificate Test6
issuer=/C=US/O=Test Certificates/OU=distributionPoint2 CA
-----BEGIN CERTIFICATE-----
MIICxTCCAi6gAwIBAgIBAjANBgkqhkiG9w0BAQUFADBJMQswCQYDVQQGEwJVUzEa
MBgGA1UEChMRVGVzdCBDZXJ0aWZpY2F0ZXMxHjAcBgNVBAsTFWRpc3RyaWJ1dGlv
blBvaW50MiBDQTAeFw0wMTA0MTkxNDU3MjBaFw0xMTA0MTkxNDU3MjBaMGIxCzAJ
BgNVBAYTAlVTMRowGAYDVQQKExFUZXN0IENlcnRpZmljYXRlczE3MDUGA1UEAxMu
SW52YWxpZCBkaXN0cmlidXRpb25Qb2ludCBFRSBDZXJ0aWZpY2F0ZSBUZXN0NjCB
nzANBgkqhkiG9w0BAQEFAAOBjQAwgYkCgYEAwbnDywy9lvaPs3ihfyfLPtBoMo+v
C+fBtx91KNEmBz2ACO825iLx9Cyq+vbSLMDPiBbEbBpUtXDAXuaa6omJ1BnyVp+4
dDmnpIB7IZm6z2mwQ1/xp1Nse1vb1zxkbDnMVVpkSJTqaTqMUnR5s9ht0XI62DgL
ZEFlpTiBkCVCWFsCAwEAAaOBozCBoDAfBgNVHSMEGDAWgBQ6NIsF43ZYWMSHBJh9
fh2MrF25TjAdBgNVHQ4EFgQUNTlA81m7xBu1FOhMV8hYWiP2hpIwDgYDVR0PAQH/
BAQDAgTwMBcGA1UdIAQQMA4wDAYKYIZIAWUDAgEwATA1BgNVHR8ELjAsMCqgKKEm
MCQGA1UEAxMdQ1JMMSBvZiBkaXN0cmlidXRpb25Qb2ludDIgQ0EwDQYJKoZIhvcN
AQEFBQADgYEANn9ezG9vEUyKzHQDQt0yQTrF9KcG5PUqzKQiaIIzKvEBLX9d/nj5
N0wEpklLq//fxWFFPlhZS7qsDal+jjkPnccIlgIDLNAYYOXEm05+6eeXXKMKwC9I
TdJghmMFwSDvbp2s/dnQvjOrHIexlatSbbCEDS9XnSeMmHVJ0lx7aZ8=
-----END CERTIFICATE-----

Certificate Revocation List (CRL):
        Version 2 (0x1)
        Signature Algorithm: sha1WithRSAEncryption
        Issuer: /C=US/O=Test Certificates/CN=Trust Anchor
        Last Update: Apr 19 14:57:20 2001 GMT
        Next Update: Apr 19 14:57:20 2011 GMT
        CRL extensions:
            X509v3 Authority Key Identifier: 
                keyid:FB:6C:D4:2D:81:9E:CA:27:7A:9E:0D:B0:3C:EA:9A:BC:87:FF:49:EA

            X509v3 CRL Number: 
                1
Revoked Certificates:
    Serial Number: 68
        Revocation Date: Apr 19 14:57:20 2001 GMT
        CRL entry extensions:
            X509v3 CRL Reason Code: 
                Key Compromise
    Signature Algorithm: sha1WithRSAEncryption
        92:12:c4:34:b4:92:ab:ba:71:6b:74:31:16:ce:ed:25:d6:4b:
        1e:fa:f8:20:1e:9d:d7:7f:30:ed:15:f7:8b:5d:64:9b:dd:31:
        40:e4:55:0f:0c:5f:82:69:63:00:76:a5:cf:9e:c4:5f:f2:53:
        9b:9b:7d:f5:69:1d:74:57:38:70:e5:fb:5b:76:58:c9:ec:31:
        dc:94:1b:02:ee:9d:33:9c:38:4b:29:1d:e1:0c:29:8b:6e:c7:
        bf:a0:e8:40:34:83:cf:ff:9f:cd:b5:f7:d9:4d:a7:9f:2e:bf:
        44:98:6b:f2:d3:fe:a8:20:31:c1:33:76:b7:1c:19:65:4d:b9:
        14:39
-----BEGIN X509 CRL-----
MIIBXTCBxwIBATANBgkqhkiG9w0BAQUFADBAMQswCQYDVQQGEwJVUzEaMBgGA1UE
ChMRVGVzdCBDZXJ0aWZpY2F0ZXMxFTATBgNVBAMTDFRydXN0IEFuY2hvchcNMDEw
NDE5MTQ1NzIwWhcNMTEwNDE5MTQ1NzIwWjAiMCACAWgXDTAxMDQxOTE0NTcyMFow
DDAKBgNVHRUEAwoBAaAvMC0wHwYDVR0jBBgwFoAU+2zULYGeyid6ng2wPOqavIf/
SeowCgYDVR0UBAMCAQEwDQYJKoZIhvcNAQEFBQADgYEAkhLENLSSq7pxa3QxFs7t
JdZLHvr4IB6d138w7RX3i11km90xQORVDwxfgmljAHalz57EX/JTm5t99WkddFc4
cOX7W3ZYyewx3JQbAu6dM5w4Sykd4Qwpi27Hv6DoQDSDz/+fzbX32U2nny6/RJhr
8tP+qCAxwTN2txwZZU25FDk=
-----END X509 CRL-----

Certificate Revocation List (CRL):
        Version 2 (0x1)
        Signature Algorithm: sha1WithRSAEncryption
        Issuer: /C=US/O=Test Certificates/OU=distributionPoint2 CA
        Last Update: Apr 19 14:57:20 2001 GMT
        Next Update: Apr 19 14:57:20 2011 GMT
        CRL extensions:
            X509v3 Authority Key Identifier: 
                keyid:3A:34:8B:05:E3:76:58:58:C4:87:04:98:7D:7E:1D:8C:AC:5D:B9:4E

            X509v3 CRL Number: 
                1
            2.5.29.28: critical
                0*.(.&0$..U....CRL1 of distributionPoint2 CA
Revoked Certificates:
    Serial Number: 02
        Revocation Date: Apr 19 14:57:20 2001 GMT
        CRL entry extensions:
            X509v3 CRL Reason Code: 
                Key Compromise
    Signature Algorithm: sha1WithRSAEncryption
        8c:94:d4:ed:c7:a8:0e:9d:16:d2:aa:4d:3e:d5:a4:72:af:7f:
        e7:9e:83:e9:93:a6:92:a3:0e:48:39:60:27:0c:6e:75:4f:e0:
        1d:84:89:17:3e:09:85:f8:ac:32:b5:76:76:ab:09:64:95:4e:
        ef:01:2f:34:69:4e:3d:53:96:7b:05:5e:c9:b4:84:62:a2:06:
        bd:5f:6e:6f:c8:08:be:8e:d1:4f:33:72:5e:8c:0e:e1:2e:f3:
        fb:23:7a:3a:34:3e:69:3f:6a:44:e1:a5:fe:cc:5d:60:23:95:
        a3:48:97:bf:72:dd:2f:ab:fd:59:5c:d2:11:c1:4c:e1:f7:ad:
        d9:03
-----BEGIN X509 CRL-----
MIIBnzCCAQgCAQEwDQYJKoZIhvcNAQEFBQAwSTELMAkGA1UEBhMCVVMxGjAYBgNV
BAoTEVRlc3QgQ2VydGlmaWNhdGVzMR4wHAYDVQQLExVkaXN0cmlidXRpb25Qb2lu
dDIgQ0EXDTAxMDQxOTE0NTcyMFoXDTExMDQxOTE0NTcyMFowIjAgAgECFw0wMTA0
MTkxNDU3MjBaMAwwCgYDVR0VBAMKAQGgZzBlMB8GA1UdIwQYMBaAFDo0iwXjdlhY
xIcEmH1+HYysXblOMAoGA1UdFAQDAgEBMDYGA1UdHAEB/wQsMCqgKKEmMCQGA1UE
AxMdQ1JMMSBvZiBkaXN0cmlidXRpb25Qb2ludDIgQ0EwDQYJKoZIhvcNAQEFBQAD
gYEAjJTU7ceoDp0W0qpNPtWkcq9/556D6ZOmkqMOSDlgJwxudU/gHYSJFz4Jhfis
MrV2dqsJZJVO7wEvNGlOPVOWewVeybSEYqIGvV9ub8gIvo7RTzNyXowO4S7z+yN6
OjQ+aT9qROGl/sxdYCOVo0iXv3LdL6v9WVzSEcFM4fet2QM=
-----END X509 CRL-----

