subject=/C=US/O=Test Certificates/CN=Invalid DSA Signature EE Certificate Test6
issuer=/C=US/O=Test Certificates/CN=DSA CA
-----BEGIN CERTIFICATE-----
MIIDNzCCAvagAwIBAgIBAzAJBgcqhkjOOAQDMDoxCzAJBgNVBAYTAlVTMRowGAYD
VQQKExFUZXN0IENlcnRpZmljYXRlczEPMA0GA1UEAxMGRFNBIENBMB4XDTAxMDQx
OTE0NTcyMFoXDTExMDQxOTE0NTcyMFowXjELMAkGA1UEBhMCVVMxGjAYBgNVBAoT
EVRlc3QgQ2VydGlmaWNhdGVzMTMwMQYDVQQDEypJbnZhbGlkIERTQSBTaWduYXR1
cmUgRUUgQ2VydGlmaWNhdGUgVGVzdDYwggG2MIIBKwYHKoZIzjgEATCCAR4CgYEA
vbB6Gzy0SX2N5smRzWMqz0VoZRd5JR2pZblQy69qF7L9wXPemawRZc4n8w8GB+4+
IDHq2L8Uex+2KP9lRuXNnaUp+C/BCIB1cHBBJwA2Wzqhe0uyoVb9qvDOQuU27zRU
dymarmOqSfc+ruHC+faJMv+ZaHv5zjRd8XwpZHs0ZK0CFQCXYwgNQsqfF7gNfgA6
5QUzpC5bwwKBgGBfbUNGPILwforCRr06QOuBEKduLdWEZngS7RkwrK5N12jxDw34
bvbzjzqlldmdKRu8kUG2bhSV9aF/EzvyppEkVBZ0j4NmnQtO/kvigCL12hmSucnN
3Ir4+32prJX4ycxuECJYsbU5LPfHicJT9x5o8Yy4IcxJkzfkL/O3WE1KA4GEAAKB
gC1pr90wK1tDu2BegyCB0M5MOerDtoYTJ+js/5N0yrMApqjdguHSRoq6nyc/33dn
gAlOKsmYuClo4V9v5sQ1rPYYa4Pt9DL105oCu3uZAlASTSqiUc6FV1IYlEEyErXp
JM5sYFEtet0LoIq2QvmcbHx3OZXrTS7ZgvKCNwNFBQ3Qo2swaTAdBgNVHQ4EFgQU
3GZpOXKnsDrffRsT0zC/TrR+oPEwHwYDVR0jBBgwFoAUdBXVJBy9XmWIH+GLCX5/
6hlITmEwFwYDVR0gBBAwDjAMBgpghkgBZQMCATABMA4GA1UdDwEB/wQEAwIGwDAJ
BgcqhkjOOAQDAzAAMC0CFQC8jW6jJtLFOVb/3gB8Ud6zDADC1AIUXggJS+znTQfq
yuMe+SHndjnV3Gw=
-----END CERTIFICATE-----

subject=/C=US/O=Test Certificates/CN=DSA CA
issuer=/C=US/O=Test Certificates/CN=Trust Anchor
-----BEGIN CERTIFICATE-----
MIIDhjCCAu+gAwIBAgICB9EwDQYJKoZIhvcNAQEFBQAwQDELMAkGA1UEBhMCVVMx
GjAYBgNVBAoTEVRlc3QgQ2VydGlmaWNhdGVzMRUwEwYDVQQDEwxUcnVzdCBBbmNo
b3IwHhcNMDEwNDE5MTQ1NzIwWhcNMTEwNDE5MTQ1NzIwWjA6MQswCQYDVQQGEwJV
UzEaMBgGA1UEChMRVGVzdCBDZXJ0aWZpY2F0ZXMxDzANBgNVBAMTBkRTQSBDQTCC
AbcwggEsBgcqhkjOOAQBMIIBHwKBgQDf5RE+2um2bhDW6p3inTqwR71EAMdWyMxu
0DOEVkc1PfZUyOPCrbu6dfMvMwym+THsZ+PlmW38KW6qV4hyNOKOAJDgo6xkjsD2
PB2PtMhKSDBef6qcdiYL2xNzM4OXwMWz5jf1Pv8VDdShLrox+KuH2AvMd5hCbqyT
mMK9Lns0CwIVAM8GBNj/i+sA6fZcB5Zz/ZZlOi8HAoGBAMzhfLDOkl9j7Di7RLrd
kjS2Xr5le9hxdwSd7GZ8OwTOtvNS/g+SVQLvThKrXZouL25W83Dsau2bIrioE8sM
nBbqwQqOISZEpQz5oOxi4HAxzGj1C4WkShtuefTB+TZaOG9O74RT32f9zPdZYo+c
nM0Qj1ykD5y3B+xg876vfjmYA4GEAAKBgBHyudi+QivFhL6RAhz8jDJyi6hsIdeI
ihS6MGV1wBw9gmllp6yQehQdhXvlU8Jg/LHPZ6/B8i4IMmo4x5FOO7w8CdD5cW0I
3ydJjQV02L1G0NtRpVO6h/P6XSWDT38KdeWp44mnQXdjQF8rLITSwXF4CttrVxnh
5xQMnsT2MjkOo3wwejAdBgNVHQ4EFgQUdBXVJBy9XmWIH+GLCX5/6hlITmEwHwYD
VR0jBBgwFoAU+2zULYGeyid6ng2wPOqavIf/SeowFwYDVR0gBBAwDjAMBgpghkgB
ZQMCATABMA4GA1UdDwEB/wQEAwIBBjAPBgNVHRMBAf8EBTADAQH/MA0GCSqGSIb3
DQEBBQUAA4GBADo7ch93LLrc7PUdW0XOP3+kP+Sywfqf2ApcmOLufmM60siw4rzA
1ssoITB2Rs3TPQKBiJzMdFKrq8tQ+8TcpXJ9M4SVfbAFB0P0vB4UC2Eg6iSnVJbB
tsZFj12gpqv5Gawo3yUTw34h3opDGSX1pz6eZUIZBFKpAX5gyIpiEBI2
-----END CERTIFICATE-----

Certificate Revocation List (CRL):
        Version 2 (0x1)
        Signature Algorithm: sha1WithRSAEncryption
        Issuer: /C=US/O=Test Certificates/CN=Trust Anchor
        Last Update: Apr 19 14:57:20 2001 GMT
        Next Update: Apr 19 14:57:20 2011 GMT
        CRL extensions:
            X509v3 Authority Key Identifier: 
                keyid:FB:6C:D4:2D:81:9E:CA:27:7A:9E:0D:B0:3C:EA:9A:BC:87:FF:49:EA

            X509v3 CRL Number: 
                1
No Revoked Certificates.
    Signature Algorithm: sha1WithRSAEncryption
        c7:32:ea:21:ff:7d:01:d4:f3:d9:c5:a9:ea:04:35:21:81:d2:
        13:f2:35:d3:e4:53:c5:03:93:de:a1:2d:25:56:64:bc:52:20:
        81:53:69:6a:a6:90:26:38:bd:ed:31:7f:a9:7b:c1:e8:a9:e5:
        07:97:82:bb:3e:8a:f9:79:ec:2e:bd:16:4c:31:6b:b6:80:ca:
        ba:ba:0c:35:0a:d6:08:3c:31:78:fe:d3:3d:06:69:6c:3a:e4:
        07:4d:6e:84:21:d3:c3:90:60:8f:99:90:62:a9:16:38:25:2f:
        7e:08:5f:2f:cc:59:d7:7d:9b:2f:d8:0b:e7:70:d9:64:f7:01:
        38:8d
-----BEGIN X509 CRL-----
MIIBOTCBowIBATANBgkqhkiG9w0BAQUFADBAMQswCQYDVQQGEwJVUzEaMBgGA1UE
ChMRVGVzdCBDZXJ0aWZpY2F0ZXMxFTATBgNVBAMTDFRydXN0IEFuY2hvchcNMDEw
NDE5MTQ1NzIwWhcNMTEwNDE5MTQ1NzIwWqAvMC0wHwYDVR0jBBgwFoAU+2zULYGe
yid6ng2wPOqavIf/SeowCgYDVR0UBAMCAQEwDQYJKoZIhvcNAQEFBQADgYEAxzLq
If99AdTz2cWp6gQ1IYHSE/I10+RTxQOT3qEtJVZkvFIggVNpaqaQJji97TF/qXvB
6KnlB5eCuz6K+XnsLr0WTDFrtoDKuroMNQrWCDwxeP7TPQZpbDrkB01uhCHTw5Bg
j5mQYqkWOCUvfghfL8xZ132bL9gL53DZZPcBOI0=
-----END X509 CRL-----

Certificate Revocation List (CRL):
        Version 2 (0x1)
        Signature Algorithm: dsaWithSHA1
        Issuer: /C=US/O=Test Certificates/CN=DSA CA
        Last Update: Apr 19 14:57:20 2001 GMT
        Next Update: Apr 19 14:57:20 2011 GMT
        CRL extensions:
            X509v3 Authority Key Identifier: 
                keyid:74:15:D5:24:1C:BD:5E:65:88:1F:E1:8B:09:7E:7F:EA:19:48:4E:61

            X509v3 CRL Number: 
                1
No Revoked Certificates.
    Signature Algorithm: dsaWithSHA1
        30:2c:02:14:46:20:d2:4b:f9:cd:91:09:e9:71:6a:bf:d2:3e:
        88:5d:d0:47:ee:aa:02:14:25:ae:d3:6a:ca:3f:a4:54:41:d9:
        a3:57:74:b3:48:ab:c5:9f:01:f9
-----BEGIN X509 CRL-----
MIHYMIGZAgEBMAkGByqGSM44BAMwOjELMAkGA1UEBhMCVVMxGjAYBgNVBAoTEVRl
c3QgQ2VydGlmaWNhdGVzMQ8wDQYDVQQDEwZEU0EgQ0EXDTAxMDQxOTE0NTcyMFoX
DTExMDQxOTE0NTcyMFqgLzAtMB8GA1UdIwQYMBaAFHQV1SQcvV5liB/hiwl+f+oZ
SE5hMAoGA1UdFAQDAgEBMAkGByqGSM44BAMDLwAwLAIURiDSS/nNkQnpcWq/0j6I
XdBH7qoCFCWu02rKP6RUQdmjV3SzSKvFnwH5
-----END X509 CRL-----

