subject=/C=US/O=Test Certificates/CN=Unknown CRL Extension CA
issuer=/C=US/O=Test Certificates/CN=Trust Anchor
-----BEGIN CERTIFICATE-----
MIICfjCCAeegAwIBAgIBDTANBgkqhkiG9w0BAQUFADBAMQswCQYDVQQGEwJVUzEa
MBgGA1UEChMRVGVzdCBDZXJ0aWZpY2F0ZXMxFTATBgNVBAMTDFRydXN0IEFuY2hv
cjAeFw0wMTA0MTkxNDU3MjBaFw0xMTA0MTkxNDU3MjBaMEwxCzAJBgNVBAYTAlVT
MRowGAYDVQQKExFUZXN0IENlcnRpZmljYXRlczEhMB8GA1UEAxMYVW5rbm93biBD
UkwgRXh0ZW5zaW9uIENBMIGfMA0GCSqGSIb3DQEBAQUAA4GNADCBiQKBgQCytAs/
JAs2Ja8c89As83uwUulH9T9tQPZcA7nYHvlyElO2ck8TAyHsxyTJEX3dSXo5IOhG
VD2Onq3BDeRFf6pu5OMpoQ3OGJbb4q22/qZtN6etR0haIBvS2ftAIPX1mJHU48rv
TuMEQ0hoVtFxKdyYSeFaw9iBTbcaZdPUCMbnIwIDAQABo3wwejAfBgNVHSMEGDAW
gBT7bNQtgZ7KJ3qeDbA86pq8h/9J6jAdBgNVHQ4EFgQUao8V/5j0N/1M9CcF3W7o
YaFVtKswDgYDVR0PAQH/BAQDAgEGMBcGA1UdIAQQMA4wDAYKYIZIAWUDAgEwATAP
BgNVHRMBAf8EBTADAQH/MA0GCSqGSIb3DQEBBQUAA4GBAFoi3BNwtKmwgQu7YVgw
RJCuLiqFCNPny8zbrLdJOyTSB1MqnPBzrnx0E2U6i+5RTiuIUrD5V54/46OcAenb
ABT5jTygyoV5M03Iy6ZRQ71ZqeX2hc8LeHetvMTN1fZiNOtwt6Qn4LtWGyw5KH34
KMAytthglbz5meZVb+cbK820
-----END CERTIFICATE-----

subject=/C=US/O=Test Certificates/CN=Invalid Unknown CRL Extension EE Certificate Test10
issuer=/C=US/O=Test Certificates/CN=Unknown CRL Extension CA
-----BEGIN CERTIFICATE-----
MIIClDCCAf2gAwIBAgIBAjANBgkqhkiG9w0BAQUFADBMMQswCQYDVQQGEwJVUzEa
MBgGA1UEChMRVGVzdCBDZXJ0aWZpY2F0ZXMxITAfBgNVBAMTGFVua25vd24gQ1JM
IEV4dGVuc2lvbiBDQTAeFw0wMTA0MTkxNDU3MjBaFw0xMTA0MTkxNDU3MjBaMGcx
CzAJBgNVBAYTAlVTMRowGAYDVQQKExFUZXN0IENlcnRpZmljYXRlczE8MDoGA1UE
AxMzSW52YWxpZCBVbmtub3duIENSTCBFeHRlbnNpb24gRUUgQ2VydGlmaWNhdGUg
VGVzdDEwMIGfMA0GCSqGSIb3DQEBAQUAA4GNADCBiQKBgQCi6/iZeRoibZWIgFQb
pVXsmxIdt4k56SpvzvPgJPyoxkehfaVCNpZQ9udynRLZaogzk1Js85Xmf+O3MBul
a/xJq4BU0Mit5jPBDcfqEpOu4ovFBfX7i+nBDbBiS+2v+QkqntokkwaDKKCnDRV2
qjQdAnTFbFNpkpyO3yhWJ6ASOwIDAQABo2swaTAfBgNVHSMEGDAWgBRqjxX/mPQ3
/Uz0JwXdbuhhoVW0qzAdBgNVHQ4EFgQUkm2zSID0l7fhHwrbvsB+O9PRHtkwDgYD
VR0PAQH/BAQDAgTwMBcGA1UdIAQQMA4wDAYKYIZIAWUDAgEwATANBgkqhkiG9w0B
AQUFAAOBgQCMYaiiImk6MCNreccITRisfSs0mHnXu7opjgpXuD6GcKnQtOhN/52T
12dfAZMp+ROHHg2hZ1xWY7Uvn5IWbWEepjY0SpyGDsuzLgEO2xXg7DU5n1yxZpao
mnsYHYHJPrTQK7jpsbutOP27RSNid2jQNfnyDoYsn2uCl6zen1aoCw==
-----END CERTIFICATE-----

Certificate Revocation List (CRL):
        Version 2 (0x1)
        Signature Algorithm: sha1WithRSAEncryption
        Issuer: /C=US/O=Test Certificates/CN=Trust Anchor
        Last Update: Apr 19 14:57:20 2001 GMT
        Next Update: Apr 19 14:57:20 2011 GMT
        CRL extensions:
            X509v3 Authority Key Identifier: 
                keyid:FB:6C:D4:2D:81:9E:CA:27:7A:9E:0D:B0:3C:EA:9A:BC:87:FF:49:EA

            X509v3 CRL Number: 
                1
Revoked Certificates:
    Serial Number: 68
        Revocation Date: Apr 19 14:57:20 2001 GMT
        CRL entry extensions:
            X509v3 CRL Reason Code: 
                Key Compromise
    Signature Algorithm: sha1WithRSAEncryption
        92:12:c4:34:b4:92:ab:ba:71:6b:74:31:16:ce:ed:25:d6:4b:
        1e:fa:f8:20:1e:9d:d7:7f:30:ed:15:f7:8b:5d:64:9b:dd:31:
        40:e4:55:0f:0c:5f:82:69:63:00:76:a5:cf:9e:c4:5f:f2:53:
        9b:9b:7d:f5:69:1d:74:57:38:70:e5:fb:5b:76:58:c9:ec:31:
        dc:94:1b:02:ee:9d:33:9c:38:4b:29:1d:e1:0c:29:8b:6e:c7:
        bf:a0:e8:40:34:83:cf:ff:9f:cd:b5:f7:d9:4d:a7:9f:2e:bf:
        44:98:6b:f2:d3:fe:a8:20:31:c1:33:76:b7:1c:19:65:4d:b9:
        14:39
-----BEGIN X509 CRL-----
MIIBXTCBxwIBATANBgkqhkiG9w0BAQUFADBAMQswCQYDVQQGEwJVUzEaMBgGA1UE
ChMRVGVzdCBDZXJ0aWZpY2F0ZXMxFTATBgNVBAMTDFRydXN0IEFuY2hvchcNMDEw
NDE5MTQ1NzIwWhcNMTEwNDE5MTQ1NzIwWjAiMCACAWgXDTAxMDQxOTE0NTcyMFow
DDAKBgNVHRUEAwoBAaAvMC0wHwYDVR0jBBgwFoAU+2zULYGeyid6ng2wPOqavIf/
SeowCgYDVR0UBAMCAQEwDQYJKoZIhvcNAQEFBQADgYEAkhLENLSSq7pxa3QxFs7t
JdZLHvr4IB6d138w7RX3i11km90xQORVDwxfgmljAHalz57EX/JTm5t99WkddFc4
cOX7W3ZYyewx3JQbAu6dM5w4Sykd4Qwpi27Hv6DoQDSDz/+fzbX32U2nny6/RJhr
8tP+qCAxwTN2txwZZU25FDk=
-----END X509 CRL-----

Certificate Revocation List (CRL):
        Version 2 (0x1)
        Signature Algorithm: sha1WithRSAEncryption
        Issuer: /C=US/O=Test Certificates/CN=Unknown CRL Extension CA
        Last Update: Apr 19 14:57:20 2001 GMT
        Next Update: Apr 19 14:57:20 2011 GMT
        CRL extensions:
            X509v3 Authority Key Identifier: 
                keyid:6A:8F:15:FF:98:F4:37:FD:4C:F4:27:05:DD:6E:E8:61:A1:55:B4:AB

            X509v3 CRL Number: 
                1
            2.16.840.1.101.2.1.12.2: critical
                ...
Revoked Certificates:
    Serial Number: 01
        Revocation Date: Apr 19 14:57:20 2001 GMT
        CRL entry extensions:
            X509v3 CRL Reason Code: 
                Key Compromise
    Signature Algorithm: sha1WithRSAEncryption
        87:83:34:a5:84:cb:5a:ea:95:df:cf:c0:15:aa:4a:32:5a:e7:
        29:82:92:af:40:f0:c1:5b:0f:f8:4f:c5:ba:af:bf:12:16:85:
        b2:d9:df:d5:f3:5a:da:bd:15:8a:ec:d3:a1:af:e7:8f:80:48:
        54:1f:22:c2:8a:74:9e:c1:c8:5b:33:a4:8f:6a:30:43:91:35:
        0b:08:c2:87:c5:5a:b0:b4:30:6c:f4:f7:22:7b:71:b6:ff:7e:
        3f:ae:da:aa:b7:d2:4a:a7:10:7c:70:b7:6a:10:85:d1:9f:d1:
        5d:bc:36:44:30:32:6c:bc:a6:8e:24:96:62:d6:68:c0:24:13:
        55:3a
-----BEGIN X509 CRL-----
MIIBfjCB6AIBATANBgkqhkiG9w0BAQUFADBMMQswCQYDVQQGEwJVUzEaMBgGA1UE
ChMRVGVzdCBDZXJ0aWZpY2F0ZXMxITAfBgNVBAMTGFVua25vd24gQ1JMIEV4dGVu
c2lvbiBDQRcNMDEwNDE5MTQ1NzIwWhcNMTEwNDE5MTQ1NzIwWjAiMCACAQEXDTAx
MDQxOTE0NTcyMFowDDAKBgNVHRUEAwoBAaBEMEIwHwYDVR0jBBgwFoAUao8V/5j0
N/1M9CcF3W7oYaFVtKswCgYDVR0UBAMCAQEwEwYJYIZIAWUCAQwCAQH/BAMCAQAw
DQYJKoZIhvcNAQEFBQADgYEAh4M0pYTLWuqV38/AFapKMlrnKYKSr0DwwVsP+E/F
uq+/EhaFstnf1fNa2r0ViuzToa/nj4BIVB8iwop0nsHIWzOkj2owQ5E1CwjCh8Va
sLQwbPT3Intxtv9+P67aqrfSSqcQfHC3ahCF0Z/RXbw2RDAybLymjiSWYtZowCQT
VTo=
-----END X509 CRL-----

