subject=/C=US/O=Test Certificates/CN=Wrong CRL CA
issuer=/C=US/O=Test Certificates/CN=Trust Anchor
-----BEGIN CERTIFICATE-----
MIICcjCCAdugAwIBAgIBCjANBgkqhkiG9w0BAQUFADBAMQswCQYDVQQGEwJVUzEa
MBgGA1UEChMRVGVzdCBDZXJ0aWZpY2F0ZXMxFTATBgNVBAMTDFRydXN0IEFuY2hv
cjAeFw0wMTA0MTkxNDU3MjBaFw0xMTA0MTkxNDU3MjBaMEAxCzAJBgNVBAYTAlVT
MRowGAYDVQQKExFUZXN0IENlcnRpZmljYXRlczEVMBMGA1UEAxMMV3JvbmcgQ1JM
IENBMIGfMA0GCSqGSIb3DQEBAQUAA4GNADCBiQKBgQDrjpkZYUtNf/4W6weCyaK0
JDUtJyXxK8YEL9R2hpnPnGceXRXEkq7XPWyNBAC+lpGPd+mWjvX4A/MAsGHsOiY3
I35sJHR0ViNoDDIpACYBuNhtFTQ0JHS34zOZR+jG0BYSib4h+svHctlVWGOY3l8F
lp8EWSm8YZ3kt7kycshWzQIDAQABo3wwejAfBgNVHSMEGDAWgBT7bNQtgZ7KJ3qe
DbA86pq8h/9J6jAdBgNVHQ4EFgQU1G3jwp/Wffea3VwN0SfwS1Rpd6gwDgYDVR0P
AQH/BAQDAgEGMBcGA1UdIAQQMA4wDAYKYIZIAWUDAgEwATAPBgNVHRMBAf8EBTAD
AQH/MA0GCSqGSIb3DQEBBQUAA4GBAI844RkGSuDIY9HF+gW3Nd6C3sILutA0Zsqw
Ih0wWh/y9VOV6TNvPd8BlF1i0WkAMcswgqhrODgySpG7fdDlgMTSI/Tz0ObYbsA/
Dcd3OplmCfRKi8biDWnBn6LdZysZ9uiIOBFyOFr5cfWGlgSctiXxtZc15sju+TTA
EwWcPVar
-----END CERTIFICATE-----

subject=/C=US/O=Test Certificates/CN=Invalid Wrong CRL EE Certificate Test6
issuer=/C=US/O=Test Certificates/CN=Wrong CRL CA
-----BEGIN CERTIFICATE-----
MIICezCCAeSgAwIBAgIBATANBgkqhkiG9w0BAQUFADBAMQswCQYDVQQGEwJVUzEa
MBgGA1UEChMRVGVzdCBDZXJ0aWZpY2F0ZXMxFTATBgNVBAMTDFdyb25nIENSTCBD
QTAeFw0wMTA0MTkxNDU3MjBaFw0xMTA0MTkxNDU3MjBaMFoxCzAJBgNVBAYTAlVT
MRowGAYDVQQKExFUZXN0IENlcnRpZmljYXRlczEvMC0GA1UEAxMmSW52YWxpZCBX
cm9uZyBDUkwgRUUgQ2VydGlmaWNhdGUgVGVzdDYwgZ8wDQYJKoZIhvcNAQEBBQAD
gY0AMIGJAoGBALC3wWGmw5/yOOPg3RNvStJ9JJIfBz6CyFWksquf/4icnW/wL4rx
hCxN1vNOSiH+IrOgWYTpkpGPiMvbvn4h9I2Ytzimw1O0EPTXFAE6CdJagxdcsFHA
1UJMR/+666NEypeYmyaFMPduqmcR7rED7TZZgQGhltY2+06s0SghWO1fAgMBAAGj
azBpMB8GA1UdIwQYMBaAFNRt48Kf1n33mt1cDdEn8EtUaXeoMB0GA1UdDgQWBBTI
T2I2nkS+ARaPkr3QPXOlb30emTAOBgNVHQ8BAf8EBAMCBPAwFwYDVR0gBBAwDjAM
BgpghkgBZQMCATABMA0GCSqGSIb3DQEBBQUAA4GBAKM9XsZ6SDRWXHk1nyBsa28P
ItsxtO1B0ZnK4Aboih9fOPg14udmRCVjgc7Z3UCl+F8YXFWKkisitt55o74MCv60
2vlEaBrRBPMvTpHwqyNIWCcuDYBT4JrfC+iF8RwHtts9c0KUUn/bwXAuvDclEg79
XUWTzrxsqFVOnMEktZUm
-----END CERTIFICATE-----

Certificate Revocation List (CRL):
        Version 2 (0x1)
        Signature Algorithm: sha1WithRSAEncryption
        Issuer: /C=US/O=Test Certificates/CN=Trust Anchor
        Last Update: Apr 19 14:57:20 2001 GMT
        Next Update: Apr 19 14:57:20 2011 GMT
        CRL extensions:
            X509v3 Authority Key Identifier: 
                keyid:FB:6C:D4:2D:81:9E:CA:27:7A:9E:0D:B0:3C:EA:9A:BC:87:FF:49:EA

            X509v3 CRL Number: 
                1
No Revoked Certificates.
    Signature Algorithm: sha1WithRSAEncryption
        c7:32:ea:21:ff:7d:01:d4:f3:d9:c5:a9:ea:04:35:21:81:d2:
        13:f2:35:d3:e4:53:c5:03:93:de:a1:2d:25:56:64:bc:52:20:
        81:53:69:6a:a6:90:26:38:bd:ed:31:7f:a9:7b:c1:e8:a9:e5:
        07:97:82:bb:3e:8a:f9:79:ec:2e:bd:16:4c:31:6b:b6:80:ca:
        ba:ba:0c:35:0a:d6:08:3c:31:78:fe:d3:3d:06:69:6c:3a:e4:
        07:4d:6e:84:21:d3:c3:90:60:8f:99:90:62:a9:16:38:25:2f:
        7e:08:5f:2f:cc:59:d7:7d:9b:2f:d8:0b:e7:70:d9:64:f7:01:
        38:8d
-----BEGIN X509 CRL-----
MIIBOTCBowIBATANBgkqhkiG9w0BAQUFADBAMQswCQYDVQQGEwJVUzEaMBgGA1UE
ChMRVGVzdCBDZXJ0aWZpY2F0ZXMxFTATBgNVBAMTDFRydXN0IEFuY2hvchcNMDEw
NDE5MTQ1NzIwWhcNMTEwNDE5MTQ1NzIwWqAvMC0wHwYDVR0jBBgwFoAU+2zULYGe
yid6ng2wPOqavIf/SeowCgYDVR0UBAMCAQEwDQYJKoZIhvcNAQEFBQADgYEAxzLq
If99AdTz2cWp6gQ1IYHSE/I10+RTxQOT3qEtJVZkvFIggVNpaqaQJji97TF/qXvB
6KnlB5eCuz6K+XnsLr0WTDFrtoDKuroMNQrWCDwxeP7TPQZpbDrkB01uhCHTw5Bg
j5mQYqkWOCUvfghfL8xZ132bL9gL53DZZPcBOI0=
-----END X509 CRL-----

Certificate Revocation List (CRL):
        Version 2 (0x1)
        Signature Algorithm: sha1WithRSAEncryption
        Issuer: /C=US/O=Test Certificates/CN=Trust Anchor
        Last Update: Apr 19 14:57:20 2001 GMT
        Next Update: Apr 19 14:57:20 2011 GMT
        CRL extensions:
            X509v3 Authority Key Identifier: 
                keyid:FB:6C:D4:2D:81:9E:CA:27:7A:9E:0D:B0:3C:EA:9A:BC:87:FF:49:EA

            X509v3 CRL Number: 
                1
Revoked Certificates:
    Serial Number: 68
        Revocation Date: Apr 19 14:57:20 2001 GMT
        CRL entry extensions:
            X509v3 CRL Reason Code: 
                Key Compromise
    Signature Algorithm: sha1WithRSAEncryption
        92:12:c4:34:b4:92:ab:ba:71:6b:74:31:16:ce:ed:25:d6:4b:
        1e:fa:f8:20:1e:9d:d7:7f:30:ed:15:f7:8b:5d:64:9b:dd:31:
        40:e4:55:0f:0c:5f:82:69:63:00:76:a5:cf:9e:c4:5f:f2:53:
        9b:9b:7d:f5:69:1d:74:57:38:70:e5:fb:5b:76:58:c9:ec:31:
        dc:94:1b:02:ee:9d:33:9c:38:4b:29:1d:e1:0c:29:8b:6e:c7:
        bf:a0:e8:40:34:83:cf:ff:9f:cd:b5:f7:d9:4d:a7:9f:2e:bf:
        44:98:6b:f2:d3:fe:a8:20:31:c1:33:76:b7:1c:19:65:4d:b9:
        14:39
-----BEGIN X509 CRL-----
MIIBXTCBxwIBATANBgkqhkiG9w0BAQUFADBAMQswCQYDVQQGEwJVUzEaMBgGA1UE
ChMRVGVzdCBDZXJ0aWZpY2F0ZXMxFTATBgNVBAMTDFRydXN0IEFuY2hvchcNMDEw
NDE5MTQ1NzIwWhcNMTEwNDE5MTQ1NzIwWjAiMCACAWgXDTAxMDQxOTE0NTcyMFow
DDAKBgNVHRUEAwoBAaAvMC0wHwYDVR0jBBgwFoAU+2zULYGeyid6ng2wPOqavIf/
SeowCgYDVR0UBAMCAQEwDQYJKoZIhvcNAQEFBQADgYEAkhLENLSSq7pxa3QxFs7t
JdZLHvr4IB6d138w7RX3i11km90xQORVDwxfgmljAHalz57EX/JTm5t99WkddFc4
cOX7W3ZYyewx3JQbAu6dM5w4Sykd4Qwpi27Hv6DoQDSDz/+fzbX32U2nny6/RJhr
8tP+qCAxwTN2txwZZU25FDk=
-----END X509 CRL-----

