subject=/C=US/O=Test Certificates/CN=basicConstraints Critical cA False CA
issuer=/C=US/O=Test Certificates/CN=Trust Anchor
-----BEGIN CERTIFICATE-----
MIICiDCCAfGgAwIBAgIBFzANBgkqhkiG9w0BAQUFADBAMQswCQYDVQQGEwJVUzEa
MBgGA1UEChMRVGVzdCBDZXJ0aWZpY2F0ZXMxFTATBgNVBAMTDFRydXN0IEFuY2hv
cjAeFw0wMTA0MTkxNDU3MjBaFw0xMTA0MTkxNDU3MjBaMFkxCzAJBgNVBAYTAlVT
MRowGAYDVQQKExFUZXN0IENlcnRpZmljYXRlczEuMCwGA1UEAxMlYmFzaWNDb25z
dHJhaW50cyBDcml0aWNhbCBjQSBGYWxzZSBDQTCBnzANBgkqhkiG9w0BAQEFAAOB
jQAwgYkCgYEAsmocvHtIhy06xoGU8RgpDv0nBGXIPSXRG6Poy/+IGxarpbG06NmC
maF9YsRYKMKl35fIYgRSJXsZQNbNdFp+OP0unEc2gkWnRFkd5UYXaUYUw+1joRBQ
rv66WNwMkTSpFnzmb0Pvvxw+5Yy8MMzvfYTwnw4GIgLtTrffpS9B4V8CAwEAAaN5
MHcwHwYDVR0jBBgwFoAU+2zULYGeyid6ng2wPOqavIf/SeowHQYDVR0OBBYEFMdH
T3Qigo2QmpSYRbO1Q8N1GDbOMA4GA1UdDwEB/wQEAwIBBjAXBgNVHSAEEDAOMAwG
CmCGSAFlAwIBMAEwDAYDVR0TAQH/BAIwADANBgkqhkiG9w0BAQUFAAOBgQCYmJK2
5OMOWxlviglY0yKGvQpDwTyJ4CJmsGGI/rtSjvfFiqHPmq2c/QGm+pAdKMqkhGXN
FjVPKm8pLqrFbAnWXSG5OeWq5wEMckNe1Qjp91ag5gmWEVwdq86eNxkkA6w/+hjp
BxoCAT74c74EqPpOX8c6NGlI3VyN0hODzePSHA==
-----END CERTIFICATE-----

subject=/C=US/O=Test Certificates/CN=Invalid cA False EE Certificate Test2
issuer=/C=US/O=Test Certificates/CN=basicConstraints Critical cA False CA
-----BEGIN CERTIFICATE-----
MIICkzCCAfygAwIBAgIBATANBgkqhkiG9w0BAQUFADBZMQswCQYDVQQGEwJVUzEa
MBgGA1UEChMRVGVzdCBDZXJ0aWZpY2F0ZXMxLjAsBgNVBAMTJWJhc2ljQ29uc3Ry
YWludHMgQ3JpdGljYWwgY0EgRmFsc2UgQ0EwHhcNMDEwNDE5MTQ1NzIwWhcNMTEw
NDE5MTQ1NzIwWjBZMQswCQYDVQQGEwJVUzEaMBgGA1UEChMRVGVzdCBDZXJ0aWZp
Y2F0ZXMxLjAsBgNVBAMTJUludmFsaWQgY0EgRmFsc2UgRUUgQ2VydGlmaWNhdGUg
VGVzdDIwgZ8wDQYJKoZIhvcNAQEBBQADgY0AMIGJAoGBAKWAnb4eGXIMKqcvxV1N
I1WYOIgPGw0pmor0ePIVaJFQZALxDndu3IUvzZCuK/m5nBAn3qtGItKULZEqeZx1
sqbagMshYrHDkntnRShl1luH40b/RdWn0SnkWcYiA+ZTmcUYTV4t0OmgeUzQMtMj
LRQ76i3JymtkR6MDgbJ6NWQzAgMBAAGjazBpMB8GA1UdIwQYMBaAFMdHT3Qigo2Q
mpSYRbO1Q8N1GDbOMB0GA1UdDgQWBBTQ3jc8Qy+MJLvnf+0PWJpzZUdgHzAOBgNV
HQ8BAf8EBAMCBPAwFwYDVR0gBBAwDjAMBgpghkgBZQMCATABMA0GCSqGSIb3DQEB
BQUAA4GBAKhCguYapRZdH/DcOaj9Mtc/x8+/QbXwwWTyETUNHItDAWqwXgCbEHKN
tbgWB6IZnzhzWvLcNk0HJrqf8jnYEC3EWj9ruOl7oaCWRuq5uLwtnf6MCI32zjzT
yJDh7QLWt2STzMDmppGt84nl3PjN8MaQhp2qTJyP9f8ue+n+Ng0D
-----END CERTIFICATE-----

Certificate Revocation List (CRL):
        Version 2 (0x1)
        Signature Algorithm: sha1WithRSAEncryption
        Issuer: /C=US/O=Test Certificates/CN=basicConstraints Critical cA False CA
        Last Update: Apr 19 14:57:20 2001 GMT
        Next Update: Apr 19 14:57:20 2011 GMT
        CRL extensions:
            X509v3 Authority Key Identifier: 
                keyid:C7:47:4F:74:22:82:8D:90:9A:94:98:45:B3:B5:43:C3:75:18:36:CE

            X509v3 CRL Number: 
                1
No Revoked Certificates.
    Signature Algorithm: sha1WithRSAEncryption
        32:bc:12:1f:84:d0:b6:3e:72:a0:fb:d9:75:99:ca:e5:2a:05:
        09:e6:c8:27:74:47:1c:dc:0c:d4:9f:bc:9f:b2:62:25:b4:6d:
        5b:e5:0b:e8:2a:8e:07:eb:3e:6b:c5:1e:9a:d2:14:fd:89:5b:
        c3:10:bf:19:77:67:0a:33:45:1b:bc:6c:ed:af:84:30:59:fb:
        7c:71:95:63:60:31:9b:9b:0a:ea:77:f1:70:f1:b9:2e:d1:a9:
        04:42:66:94:b9:54:48:db:44:56:56:1a:57:5a:01:0e:7c:4d:
        d7:c0:1f:5c:6f:13:f5:a3:57:88:6a:9a:71:cd:d5:ae:c3:00:
        b1:28
-----BEGIN X509 CRL-----
MIIBUjCBvAIBATANBgkqhkiG9w0BAQUFADBZMQswCQYDVQQGEwJVUzEaMBgGA1UE
ChMRVGVzdCBDZXJ0aWZpY2F0ZXMxLjAsBgNVBAMTJWJhc2ljQ29uc3RyYWludHMg
Q3JpdGljYWwgY0EgRmFsc2UgQ0EXDTAxMDQxOTE0NTcyMFoXDTExMDQxOTE0NTcy
MFqgLzAtMB8GA1UdIwQYMBaAFMdHT3Qigo2QmpSYRbO1Q8N1GDbOMAoGA1UdFAQD
AgEBMA0GCSqGSIb3DQEBBQUAA4GBADK8Eh+E0LY+cqD72XWZyuUqBQnmyCd0Rxzc
DNSfvJ+yYiW0bVvlC+gqjgfrPmvFHprSFP2JW8MQvxl3ZwozRRu8bO2vhDBZ+3xx
lWNgMZubCup38XDxuS7RqQRCZpS5VEjbRFZWGldaAQ58TdfAH1xvE/WjV4hqmnHN
1a7DALEo
-----END X509 CRL-----

Certificate Revocation List (CRL):
        Version 2 (0x1)
        Signature Algorithm: sha1WithRSAEncryption
        Issuer: /C=US/O=Test Certificates/CN=Trust Anchor
        Last Update: Apr 19 14:57:20 2001 GMT
        Next Update: Apr 19 14:57:20 2011 GMT
        CRL extensions:
            X509v3 Authority Key Identifier: 
                keyid:FB:6C:D4:2D:81:9E:CA:27:7A:9E:0D:B0:3C:EA:9A:BC:87:FF:49:EA

            X509v3 CRL Number: 
                1
Revoked Certificates:
    Serial Number: 68
        Revocation Date: Apr 19 14:57:20 2001 GMT
        CRL entry extensions:
            X509v3 CRL Reason Code: 
                Key Compromise
    Signature Algorithm: sha1WithRSAEncryption
        92:12:c4:34:b4:92:ab:ba:71:6b:74:31:16:ce:ed:25:d6:4b:
        1e:fa:f8:20:1e:9d:d7:7f:30:ed:15:f7:8b:5d:64:9b:dd:31:
        40:e4:55:0f:0c:5f:82:69:63:00:76:a5:cf:9e:c4:5f:f2:53:
        9b:9b:7d:f5:69:1d:74:57:38:70:e5:fb:5b:76:58:c9:ec:31:
        dc:94:1b:02:ee:9d:33:9c:38:4b:29:1d:e1:0c:29:8b:6e:c7:
        bf:a0:e8:40:34:83:cf:ff:9f:cd:b5:f7:d9:4d:a7:9f:2e:bf:
        44:98:6b:f2:d3:fe:a8:20:31:c1:33:76:b7:1c:19:65:4d:b9:
        14:39
-----BEGIN X509 CRL-----
MIIBXTCBxwIBATANBgkqhkiG9w0BAQUFADBAMQswCQYDVQQGEwJVUzEaMBgGA1UE
ChMRVGVzdCBDZXJ0aWZpY2F0ZXMxFTATBgNVBAMTDFRydXN0IEFuY2hvchcNMDEw
NDE5MTQ1NzIwWhcNMTEwNDE5MTQ1NzIwWjAiMCACAWgXDTAxMDQxOTE0NTcyMFow
DDAKBgNVHRUEAwoBAaAvMC0wHwYDVR0jBBgwFoAU+2zULYGeyid6ng2wPOqavIf/
SeowCgYDVR0UBAMCAQEwDQYJKoZIhvcNAQEFBQADgYEAkhLENLSSq7pxa3QxFs7t
JdZLHvr4IB6d138w7RX3i11km90xQORVDwxfgmljAHalz57EX/JTm5t99WkddFc4
cOX7W3ZYyewx3JQbAu6dM5w4Sykd4Qwpi27Hv6DoQDSDz/+fzbX32U2nny6/RJhr
8tP+qCAxwTN2txwZZU25FDk=
-----END X509 CRL-----

