subject=/C=US/O=Test Certificates/CN=Bad CRL Issuer Name CA
issuer=/C=US/O=Test Certificates/CN=Trust Anchor
-----BEGIN CERTIFICATE-----
MIICfDCCAeWgAwIBAgIBCTANBgkqhkiG9w0BAQUFADBAMQswCQYDVQQGEwJVUzEa
MBgGA1UEChMRVGVzdCBDZXJ0aWZpY2F0ZXMxFTATBgNVBAMTDFRydXN0IEFuY2hv
cjAeFw0wMTA0MTkxNDU3MjBaFw0xMTA0MTkxNDU3MjBaMEoxCzAJBgNVBAYTAlVT
MRowGAYDVQQKExFUZXN0IENlcnRpZmljYXRlczEfMB0GA1UEAxMWQmFkIENSTCBJ
c3N1ZXIgTmFtZSBDQTCBnzANBgkqhkiG9w0BAQEFAAOBjQAwgYkCgYEA8VTZxnGg
pV60/E3F2RBR9N0VgI/w8ZdVENnRoqcpmY276I2t0UaRM95qNori4u/6Rb6RI6Jy
BL5dPaJuS4hoVphnqLjMMF+huDF61ov49vcOtMo9Qw7NJYgeoINC4KcUrxvn5O33
IjvyvGkMbrzczslZh1IaGrquWlS9DQDv3jECAwEAAaN8MHowHwYDVR0jBBgwFoAU
+2zULYGeyid6ng2wPOqavIf/SeowHQYDVR0OBBYEFMg02+C1YxZR0VCkMtLFWfhD
jOBnMA4GA1UdDwEB/wQEAwIBBjAXBgNVHSAEEDAOMAwGCmCGSAFlAwIBMAEwDwYD
VR0TAQH/BAUwAwEB/zANBgkqhkiG9w0BAQUFAAOBgQCYg+l+IX369jmWSOMWB2Gw
tuancmzEylYvy1g4di3sVNNOTRaST6hG6M0QkyVJDpr5wYwDCAu1me4CkJlaRHT9
RZB8rW2LK9ydBJG5peFQa8QPQv9phrb4Hc7/2xjr0Eq6sUAQOBsCL09IY5pi2jxH
o4m0vETRDlhl/Lqsc3dLTQ==
-----END CERTIFICATE-----

subject=/C=US/O=Test Certificates/CN=Invalid Bad CRL Issuer Name EE Certificate Test5
issuer=/C=US/O=Test Certificates/CN=Bad CRL Issuer Name CA
-----BEGIN CERTIFICATE-----
MIICjzCCAfigAwIBAgIBATANBgkqhkiG9w0BAQUFADBKMQswCQYDVQQGEwJVUzEa
MBgGA1UEChMRVGVzdCBDZXJ0aWZpY2F0ZXMxHzAdBgNVBAMTFkJhZCBDUkwgSXNz
dWVyIE5hbWUgQ0EwHhcNMDEwNDE5MTQ1NzIwWhcNMTEwNDE5MTQ1NzIwWjBkMQsw
CQYDVQQGEwJVUzEaMBgGA1UEChMRVGVzdCBDZXJ0aWZpY2F0ZXMxOTA3BgNVBAMT
MEludmFsaWQgQmFkIENSTCBJc3N1ZXIgTmFtZSBFRSBDZXJ0aWZpY2F0ZSBUZXN0
NTCBnzANBgkqhkiG9w0BAQEFAAOBjQAwgYkCgYEAmWwjDb3FCLH56CnXApSXwVHB
KUEdYLsDL5afA0uwYq3CutM9nFTfpI4wfWoh8z8rbcyzMhNU/b90XnkcJeUlLe4R
GVC87g/Oh67ONY431E5nS0t2mU3gA5A+QJwCJ5GgkoRJy4aZS7IhIVayya97aITa
eeInMge1hpOIbhG4RWMCAwEAAaNrMGkwHwYDVR0jBBgwFoAUyDTb4LVjFlHRUKQy
0sVZ+EOM4GcwHQYDVR0OBBYEFLIo4xfziwpQ8zkzEpaYHC7RAmffMA4GA1UdDwEB
/wQEAwIE8DAXBgNVHSAEEDAOMAwGCmCGSAFlAwIBMAEwDQYJKoZIhvcNAQEFBQAD
gYEAYRbr0XdXa3sve8krgu8sJ/Dj90/LJexPg4kRViyO7965tP3sBCNUAIO1Q8QW
n27WeL4IjVXDSrspE/72yM2b8MNWJ4phd+PJMkQb+ioBbC8qPrNvnesSKPbqNcDR
qLz/G2oPMHBWA5zuzG1O2ecxU1MLUV3tY4QxY1oNRuMunPo=
-----END CERTIFICATE-----

Certificate Revocation List (CRL):
        Version 2 (0x1)
        Signature Algorithm: sha1WithRSAEncryption
        Issuer: /C=US/O=Test Certificates/CN=Incorrect CRL Issuer Name
        Last Update: Apr 19 14:57:20 2001 GMT
        Next Update: Apr 19 14:57:20 2011 GMT
        CRL extensions:
            X509v3 Authority Key Identifier: 
                keyid:C8:34:DB:E0:B5:63:16:51:D1:50:A4:32:D2:C5:59:F8:43:8C:E0:67

            X509v3 CRL Number: 
                1
No Revoked Certificates.
    Signature Algorithm: sha1WithRSAEncryption
        2a:95:96:bc:9d:a1:bc:e9:8b:10:db:0c:3a:19:c0:f6:b3:bc:
        a0:15:ef:97:6c:c5:83:6b:e6:ee:c3:8b:fa:54:c7:86:7b:ba:
        e8:73:c0:9d:d6:e5:1a:90:74:4c:8c:71:bf:ce:81:e7:36:df:
        95:4a:d8:6a:71:e6:16:6a:20:ab:9b:7b:de:eb:c6:ec:2e:83:
        e9:0d:61:4f:62:df:3b:5f:02:28:98:01:04:5b:d7:19:18:1a:
        f9:18:63:83:62:2f:de:0b:9f:a8:5a:d4:8b:91:5b:94:cf:bf:
        44:d8:18:71:89:fd:99:14:c9:92:7a:a0:6b:ed:15:13:5d:37:
        91:fd
-----BEGIN X509 CRL-----
MIIBRjCBsAIBATANBgkqhkiG9w0BAQUFADBNMQswCQYDVQQGEwJVUzEaMBgGA1UE
ChMRVGVzdCBDZXJ0aWZpY2F0ZXMxIjAgBgNVBAMTGUluY29ycmVjdCBDUkwgSXNz
dWVyIE5hbWUXDTAxMDQxOTE0NTcyMFoXDTExMDQxOTE0NTcyMFqgLzAtMB8GA1Ud
IwQYMBaAFMg02+C1YxZR0VCkMtLFWfhDjOBnMAoGA1UdFAQDAgEBMA0GCSqGSIb3
DQEBBQUAA4GBACqVlrydobzpixDbDDoZwPazvKAV75dsxYNr5u7Di/pUx4Z7uuhz
wJ3W5RqQdEyMcb/Ogec235VK2Gpx5hZqIKube97rxuwug+kNYU9i3ztfAiiYAQRb
1xkYGvkYY4NiL94Ln6ha1IuRW5TPv0TYGHGJ/ZkUyZJ6oGvtFRNdN5H9
-----END X509 CRL-----

Certificate Revocation List (CRL):
        Version 2 (0x1)
        Signature Algorithm: sha1WithRSAEncryption
        Issuer: /C=US/O=Test Certificates/CN=Trust Anchor
        Last Update: Apr 19 14:57:20 2001 GMT
        Next Update: Apr 19 14:57:20 2011 GMT
        CRL extensions:
            X509v3 Authority Key Identifier: 
                keyid:FB:6C:D4:2D:81:9E:CA:27:7A:9E:0D:B0:3C:EA:9A:BC:87:FF:49:EA

            X509v3 CRL Number: 
                1
Revoked Certificates:
    Serial Number: 68
        Revocation Date: Apr 19 14:57:20 2001 GMT
        CRL entry extensions:
            X509v3 CRL Reason Code: 
                Key Compromise
    Signature Algorithm: sha1WithRSAEncryption
        92:12:c4:34:b4:92:ab:ba:71:6b:74:31:16:ce:ed:25:d6:4b:
        1e:fa:f8:20:1e:9d:d7:7f:30:ed:15:f7:8b:5d:64:9b:dd:31:
        40:e4:55:0f:0c:5f:82:69:63:00:76:a5:cf:9e:c4:5f:f2:53:
        9b:9b:7d:f5:69:1d:74:57:38:70:e5:fb:5b:76:58:c9:ec:31:
        dc:94:1b:02:ee:9d:33:9c:38:4b:29:1d:e1:0c:29:8b:6e:c7:
        bf:a0:e8:40:34:83:cf:ff:9f:cd:b5:f7:d9:4d:a7:9f:2e:bf:
        44:98:6b:f2:d3:fe:a8:20:31:c1:33:76:b7:1c:19:65:4d:b9:
        14:39
-----BEGIN X509 CRL-----
MIIBXTCBxwIBATANBgkqhkiG9w0BAQUFADBAMQswCQYDVQQGEwJVUzEaMBgGA1UE
ChMRVGVzdCBDZXJ0aWZpY2F0ZXMxFTATBgNVBAMTDFRydXN0IEFuY2hvchcNMDEw
NDE5MTQ1NzIwWhcNMTEwNDE5MTQ1NzIwWjAiMCACAWgXDTAxMDQxOTE0NTcyMFow
DDAKBgNVHRUEAwoBAaAvMC0wHwYDVR0jBBgwFoAU+2zULYGeyid6ng2wPOqavIf/
SeowCgYDVR0UBAMCAQEwDQYJKoZIhvcNAQEFBQADgYEAkhLENLSSq7pxa3QxFs7t
JdZLHvr4IB6d138w7RX3i11km90xQORVDwxfgmljAHalz57EX/JTm5t99WkddFc4
cOX7W3ZYyewx3JQbAu6dM5w4Sykd4Qwpi27Hv6DoQDSDz/+fzbX32U2nny6/RJhr
8tP+qCAxwTN2txwZZU25FDk=
-----END X509 CRL-----

