subject=/C=US/O=Test Certificates/OU=excludedSubtree1/CN=Invalid DN nameConstraints EE Certificate Test7
issuer=/C=US/O=Test Certificates/CN=nameConstraints DN3 CA
-----BEGIN CERTIFICATE-----
MIICqTCCAhKgAwIBAgIBAjANBgkqhkiG9w0BAQUFADBKMQswCQYDVQQGEwJVUzEa
MBgGA1UEChMRVGVzdCBDZXJ0aWZpY2F0ZXMxHzAdBgNVBAMTFm5hbWVDb25zdHJh
aW50cyBETjMgQ0EwHhcNMDEwNDE5MTQ1NzIwWhcNMTEwNDE5MTQ1NzIwWjB+MQsw
CQYDVQQGEwJVUzEaMBgGA1UEChMRVGVzdCBDZXJ0aWZpY2F0ZXMxGTAXBgNVBAsT
EGV4Y2x1ZGVkU3VidHJlZTExODA2BgNVBAMTL0ludmFsaWQgRE4gbmFtZUNvbnN0
cmFpbnRzIEVFIENlcnRpZmljYXRlIFRlc3Q3MIGfMA0GCSqGSIb3DQEBAQUAA4GN
ADCBiQKBgQCTL1HBt+N66tLKmFW98QfimYn+8h4asDqh1Q919/M7TSNyoUAS9y3U
ZCRVwviSwB78P1HReztqDDX7dkKHazvtXY28fVhPwv1lCxj8sh+U3QoprauZoukz
wx6J56XR40wEckL6qf6l2qNeVTuPEQW21ZRBgPEKIqikZYLjl1c/jQIDAQABo2sw
aTAfBgNVHSMEGDAWgBSL47hYVp8Dat892Ac7swc24cu2yjAdBgNVHQ4EFgQU8nNR
dG/7HQqs2Y/HH+yF2vQ6QYUwDgYDVR0PAQH/BAQDAgTwMBcGA1UdIAQQMA4wDAYK
YIZIAWUDAgEwATANBgkqhkiG9w0BAQUFAAOBgQA4Lj7z67AHCPqJNPK30vJT6DzO
BIMzF5uXn1uLFPibVYwzith0bxt+lS6X+XY0D8JVcCoGvQXIajaOz6SQW1Rjl9d4
/ZtQK/Fa4aWO/SNJ/mUev7+CaFuSpzVNwU6TyY8mBs3THbFis9zVbllRK8ejAkZz
CrLUsdP7tsReU49LLA==
-----END CERTIFICATE-----

subject=/C=US/O=Test Certificates/CN=nameConstraints DN3 CA
issuer=/C=US/O=Test Certificates/CN=Trust Anchor
-----BEGIN CERTIFICATE-----
MIIC2DCCAkGgAwIBAgIBQDANBgkqhkiG9w0BAQUFADBAMQswCQYDVQQGEwJVUzEa
MBgGA1UEChMRVGVzdCBDZXJ0aWZpY2F0ZXMxFTATBgNVBAMTDFRydXN0IEFuY2hv
cjAeFw0wMTA0MTkxNDU3MjBaFw0xMTA0MTkxNDU3MjBaMEoxCzAJBgNVBAYTAlVT
MRowGAYDVQQKExFUZXN0IENlcnRpZmljYXRlczEfMB0GA1UEAxMWbmFtZUNvbnN0
cmFpbnRzIEROMyBDQTCBnzANBgkqhkiG9w0BAQEFAAOBjQAwgYkCgYEAti5Odfo3
pSf6p8iGjNMBwSlKozpyyMbXSxEjpiDvuZpllmjLqoXe6tiWiee19xCly8MnbxXl
4Pc6BglZNZd+adRIlPrFUPIVmBM51RJLvzQKjiTRPwrPwsJnizD9KLcr0Kf+e9Gi
LHBlqZM41/0oBCVuAX/5Y5zNNiFhFeOnkNECAwEAAaOB1zCB1DAfBgNVHSMEGDAW
gBT7bNQtgZ7KJ3qeDbA86pq8h/9J6jAdBgNVHQ4EFgQUi+O4WFafA2rfPdgHO7MH
NuHLtsowDgYDVR0PAQH/BAQDAgEGMBcGA1UdIAQQMA4wDAYKYIZIAWUDAgEwATAP
BgNVHRMBAf8EBTADAQH/MFgGA1UdHgEB/wROMEyhSjBIpEYwRDELMAkGA1UEBhMC
VVMxGjAYBgNVBAoTEVRlc3QgQ2VydGlmaWNhdGVzMRkwFwYDVQQLExBleGNsdWRl
ZFN1YnRyZWUxMA0GCSqGSIb3DQEBBQUAA4GBALkukW5Jb4GxdEYN7MeIVxnZX8fn
4Ulh/l6uDFKi+R8UZyMWYp0oi5F0sYQrrsjBwpg/ivfpJtxLh1uMEAWp98vMQPFZ
Hoo+ma1Ulfh6qAGv8C6EgA5sxWuNO0VrZsMbNsQeqVLXKvkBsYxrUAHXBd5ufqEA
Wofw3VBcFpqgolnA
-----END CERTIFICATE-----

Certificate Revocation List (CRL):
        Version 2 (0x1)
        Signature Algorithm: sha1WithRSAEncryption
        Issuer: /C=US/O=Test Certificates/CN=nameConstraints DN3 CA
        Last Update: Apr 19 14:57:20 2001 GMT
        Next Update: Apr 19 14:57:20 2011 GMT
        CRL extensions:
            X509v3 Authority Key Identifier: 
                keyid:8B:E3:B8:58:56:9F:03:6A:DF:3D:D8:07:3B:B3:07:36:E1:CB:B6:CA

            X509v3 CRL Number: 
                1
No Revoked Certificates.
    Signature Algorithm: sha1WithRSAEncryption
        a9:3e:f9:c3:5c:b0:eb:85:59:db:c9:72:3e:b4:2b:30:6d:22:
        dc:9c:9f:fc:8a:ad:9b:1d:48:b0:19:9f:47:3e:d2:44:6c:3d:
        c4:6c:03:bb:82:6c:26:85:eb:7f:1d:9c:48:93:a0:9c:66:25:
        85:b1:5e:fe:71:a3:d6:2d:4d:c0:cb:3f:1a:46:fe:ea:31:8a:
        db:d2:1d:f5:0f:b3:48:ad:0b:48:0a:b4:19:cd:e9:c5:5d:17:
        6a:3f:f8:bc:99:39:5b:29:88:2d:7d:0f:b4:be:94:e6:8e:a1:
        7e:12:31:2a:46:f9:3c:1f:d1:c2:69:c3:be:62:f4:bb:b0:6b:
        16:a2
-----BEGIN X509 CRL-----
MIIBQzCBrQIBATANBgkqhkiG9w0BAQUFADBKMQswCQYDVQQGEwJVUzEaMBgGA1UE
ChMRVGVzdCBDZXJ0aWZpY2F0ZXMxHzAdBgNVBAMTFm5hbWVDb25zdHJhaW50cyBE
TjMgQ0EXDTAxMDQxOTE0NTcyMFoXDTExMDQxOTE0NTcyMFqgLzAtMB8GA1UdIwQY
MBaAFIvjuFhWnwNq3z3YBzuzBzbhy7bKMAoGA1UdFAQDAgEBMA0GCSqGSIb3DQEB
BQUAA4GBAKk++cNcsOuFWdvJcj60KzBtItycn/yKrZsdSLAZn0c+0kRsPcRsA7uC
bCaF638dnEiToJxmJYWxXv5xo9YtTcDLPxpG/uoxitvSHfUPs0itC0gKtBnN6cVd
F2o/+LyZOVspiC19D7S+lOaOoX4SMSpG+Twf0cJpw75i9Luwaxai
-----END X509 CRL-----

Certificate Revocation List (CRL):
        Version 2 (0x1)
        Signature Algorithm: sha1WithRSAEncryption
        Issuer: /C=US/O=Test Certificates/CN=Trust Anchor
        Last Update: Apr 19 14:57:20 2001 GMT
        Next Update: Apr 19 14:57:20 2011 GMT
        CRL extensions:
            X509v3 Authority Key Identifier: 
                keyid:FB:6C:D4:2D:81:9E:CA:27:7A:9E:0D:B0:3C:EA:9A:BC:87:FF:49:EA

            X509v3 CRL Number: 
                1
Revoked Certificates:
    Serial Number: 68
        Revocation Date: Apr 19 14:57:20 2001 GMT
        CRL entry extensions:
            X509v3 CRL Reason Code: 
                Key Compromise
    Signature Algorithm: sha1WithRSAEncryption
        92:12:c4:34:b4:92:ab:ba:71:6b:74:31:16:ce:ed:25:d6:4b:
        1e:fa:f8:20:1e:9d:d7:7f:30:ed:15:f7:8b:5d:64:9b:dd:31:
        40:e4:55:0f:0c:5f:82:69:63:00:76:a5:cf:9e:c4:5f:f2:53:
        9b:9b:7d:f5:69:1d:74:57:38:70:e5:fb:5b:76:58:c9:ec:31:
        dc:94:1b:02:ee:9d:33:9c:38:4b:29:1d:e1:0c:29:8b:6e:c7:
        bf:a0:e8:40:34:83:cf:ff:9f:cd:b5:f7:d9:4d:a7:9f:2e:bf:
        44:98:6b:f2:d3:fe:a8:20:31:c1:33:76:b7:1c:19:65:4d:b9:
        14:39
-----BEGIN X509 CRL-----
MIIBXTCBxwIBATANBgkqhkiG9w0BAQUFADBAMQswCQYDVQQGEwJVUzEaMBgGA1UE
ChMRVGVzdCBDZXJ0aWZpY2F0ZXMxFTATBgNVBAMTDFRydXN0IEFuY2hvchcNMDEw
NDE5MTQ1NzIwWhcNMTEwNDE5MTQ1NzIwWjAiMCACAWgXDTAxMDQxOTE0NTcyMFow
DDAKBgNVHRUEAwoBAaAvMC0wHwYDVR0jBBgwFoAU+2zULYGeyid6ng2wPOqavIf/
SeowCgYDVR0UBAMCAQEwDQYJKoZIhvcNAQEFBQADgYEAkhLENLSSq7pxa3QxFs7t
JdZLHvr4IB6d138w7RX3i11km90xQORVDwxfgmljAHalz57EX/JTm5t99WkddFc4
cOX7W3ZYyewx3JQbAu6dM5w4Sykd4Qwpi27Hv6DoQDSDz/+fzbX32U2nny6/RJhr
8tP+qCAxwTN2txwZZU25FDk=
-----END X509 CRL-----

