subject=/C=US/O=Test Certificates/CN=indirectCRL CA1
issuer=/C=US/O=Test Certificates/CN=Trust Anchor
-----BEGIN CERTIFICATE-----
MIICdTCCAd6gAwIBAgIBVDANBgkqhkiG9w0BAQUFADBAMQswCQYDVQQGEwJVUzEa
MBgGA1UEChMRVGVzdCBDZXJ0aWZpY2F0ZXMxFTATBgNVBAMTDFRydXN0IEFuY2hv
cjAeFw0wMTA0MTkxNDU3MjBaFw0xMTA0MTkxNDU3MjBaMEMxCzAJBgNVBAYTAlVT
MRowGAYDVQQKExFUZXN0IENlcnRpZmljYXRlczEYMBYGA1UEAxMPaW5kaXJlY3RD
UkwgQ0ExMIGfMA0GCSqGSIb3DQEBAQUAA4GNADCBiQKBgQDKnNvKCUbOkr4mNPrV
EBeh0vWaSj7DMTMuBhMM4N5zT6XkBdghaAMQis36dJASxXYtGiiAY0Wv3oicc66t
vag7yMp7Iy71oHzCSrw+YF6oBOV+krjeaNIg/5/CGLkMr5KXC3egPap4fv/EQbAD
ZbMw+Qndc+mnj7AAnfb8i2AJPQIDAQABo3wwejAfBgNVHSMEGDAWgBT7bNQtgZ7K
J3qeDbA86pq8h/9J6jAdBgNVHQ4EFgQUbMEUX9inLeCGkxlcC/BJuSVb6BwwDgYD
VR0PAQH/BAQDAgEGMBcGA1UdIAQQMA4wDAYKYIZIAWUDAgEwATAPBgNVHRMBAf8E
BTADAQH/MA0GCSqGSIb3DQEBBQUAA4GBABA2o025rmbJVizdycoV/q2zarMz87Ki
QJimcOjKcZTSmDiAxKCTYzBFWeUZWZqVDm0QbhOThmX5nkaYjiz3vLAgdDDUr6zA
tYmNsP2oA7ajpSmcze5/VwkBgMKt7Al5w6xT91R0tCltLcppOPJhE85jMd724jTc
XHLxTJCox/SL
-----END CERTIFICATE-----

subject=/C=US/O=Test Certificates/CN=Invalid IDP with indirectCRL EE Certificate Test23
issuer=/C=US/O=Test Certificates/CN=indirectCRL CA1
-----BEGIN CERTIFICATE-----
MIICijCCAfOgAwIBAgIBAjANBgkqhkiG9w0BAQUFADBDMQswCQYDVQQGEwJVUzEa
MBgGA1UEChMRVGVzdCBDZXJ0aWZpY2F0ZXMxGDAWBgNVBAMTD2luZGlyZWN0Q1JM
IENBMTAeFw0wMTA0MTkxNDU3MjBaFw0xMTA0MTkxNDU3MjBaMGYxCzAJBgNVBAYT
AlVTMRowGAYDVQQKExFUZXN0IENlcnRpZmljYXRlczE7MDkGA1UEAxMySW52YWxp
ZCBJRFAgd2l0aCBpbmRpcmVjdENSTCBFRSBDZXJ0aWZpY2F0ZSBUZXN0MjMwgZ8w
DQYJKoZIhvcNAQEBBQADgY0AMIGJAoGBAJR1Ogq33bnWdnMPT8T7u4psSBkPFbwr
6mSgwNE1ZPPI3wkF66/zJAKMPK8LTskPhZ9QVaKvAt2MnLz004Yv+rS2N5H+cvTL
oeXp0h0SbIgwRsgHWNBoOLACifcpIqR+dGuSakGD7dHG+NClC6jVJp8mf9EzxW84
bjJvdhmADg7LAgMBAAGjazBpMB8GA1UdIwQYMBaAFGzBFF/Ypy3ghpMZXAvwSbkl
W+gcMB0GA1UdDgQWBBTbRhIag+0VzAQ6Vki6uTqYN+IjxzAOBgNVHQ8BAf8EBAMC
BPAwFwYDVR0gBBAwDjAMBgpghkgBZQMCATABMA0GCSqGSIb3DQEBBQUAA4GBAGxw
5QQhnpLypGVABOGVcbBYU+WO8Wkdo3htkGA1XHJSVggDQSbnHzX+1V/ETnAicQrh
6ktOuzBTCLOG5TjmgKKcnS5y7rIndkGZ/3lo3DJydBzVGoLVUs5FWAvuWjIikQZO
BEymYFtHwJh7iV0ma8n5No+re9BhnsQuWIfS7YXX
-----END CERTIFICATE-----

Certificate Revocation List (CRL):
        Version 2 (0x1)
        Signature Algorithm: sha1WithRSAEncryption
        Issuer: /C=US/O=Test Certificates/CN=Trust Anchor
        Last Update: Apr 19 14:57:20 2001 GMT
        Next Update: Apr 19 14:57:20 2011 GMT
        CRL extensions:
            X509v3 Authority Key Identifier: 
                keyid:FB:6C:D4:2D:81:9E:CA:27:7A:9E:0D:B0:3C:EA:9A:BC:87:FF:49:EA

            X509v3 CRL Number: 
                1
Revoked Certificates:
    Serial Number: 68
        Revocation Date: Apr 19 14:57:20 2001 GMT
        CRL entry extensions:
            X509v3 CRL Reason Code: 
                Key Compromise
    Signature Algorithm: sha1WithRSAEncryption
        92:12:c4:34:b4:92:ab:ba:71:6b:74:31:16:ce:ed:25:d6:4b:
        1e:fa:f8:20:1e:9d:d7:7f:30:ed:15:f7:8b:5d:64:9b:dd:31:
        40:e4:55:0f:0c:5f:82:69:63:00:76:a5:cf:9e:c4:5f:f2:53:
        9b:9b:7d:f5:69:1d:74:57:38:70:e5:fb:5b:76:58:c9:ec:31:
        dc:94:1b:02:ee:9d:33:9c:38:4b:29:1d:e1:0c:29:8b:6e:c7:
        bf:a0:e8:40:34:83:cf:ff:9f:cd:b5:f7:d9:4d:a7:9f:2e:bf:
        44:98:6b:f2:d3:fe:a8:20:31:c1:33:76:b7:1c:19:65:4d:b9:
        14:39
-----BEGIN X509 CRL-----
MIIBXTCBxwIBATANBgkqhkiG9w0BAQUFADBAMQswCQYDVQQGEwJVUzEaMBgGA1UE
ChMRVGVzdCBDZXJ0aWZpY2F0ZXMxFTATBgNVBAMTDFRydXN0IEFuY2hvchcNMDEw
NDE5MTQ1NzIwWhcNMTEwNDE5MTQ1NzIwWjAiMCACAWgXDTAxMDQxOTE0NTcyMFow
DDAKBgNVHRUEAwoBAaAvMC0wHwYDVR0jBBgwFoAU+2zULYGeyid6ng2wPOqavIf/
SeowCgYDVR0UBAMCAQEwDQYJKoZIhvcNAQEFBQADgYEAkhLENLSSq7pxa3QxFs7t
JdZLHvr4IB6d138w7RX3i11km90xQORVDwxfgmljAHalz57EX/JTm5t99WkddFc4
cOX7W3ZYyewx3JQbAu6dM5w4Sykd4Qwpi27Hv6DoQDSDz/+fzbX32U2nny6/RJhr
8tP+qCAxwTN2txwZZU25FDk=
-----END X509 CRL-----

Certificate Revocation List (CRL):
        Version 2 (0x1)
        Signature Algorithm: sha1WithRSAEncryption
        Issuer: /C=US/O=Test Certificates/CN=indirectCRL CA1
        Last Update: Apr 19 14:57:20 2001 GMT
        Next Update: Apr 19 14:57:20 2011 GMT
        CRL extensions:
            X509v3 Authority Key Identifier: 
                keyid:6C:C1:14:5F:D8:A7:2D:E0:86:93:19:5C:0B:F0:49:B9:25:5B:E8:1C

            X509v3 CRL Number: 
                1
            2.5.29.28: critical
                0....
Revoked Certificates:
    Serial Number: 02
        Revocation Date: Apr 19 14:57:20 2001 GMT
        CRL entry extensions:
            X509v3 CRL Reason Code: 
                Key Compromise
    Signature Algorithm: sha1WithRSAEncryption
        6c:ab:91:4b:38:62:8e:f2:48:86:10:a6:b8:b9:c3:c2:28:e5:
        c1:d8:3b:c5:8c:6f:62:44:37:f6:1e:2f:d4:04:be:ff:bb:28:
        a4:3c:71:1f:69:58:85:95:60:3c:cc:f7:65:22:4e:9e:44:e2:
        6b:45:16:9d:67:ae:da:ff:57:e7:d4:ef:34:cf:1e:86:52:13:
        25:77:a7:7d:fc:ec:94:62:bd:b1:76:a9:66:c1:ef:82:bb:3e:
        9b:21:c4:ef:49:9b:2a:e8:5a:ef:39:82:ee:da:97:5f:77:89:
        a6:3e:42:26:77:b2:15:97:c4:db:ee:ca:8c:ad:d2:cf:18:3e:
        87:e8
-----BEGIN X509 CRL-----
MIIBcTCB2wIBATANBgkqhkiG9w0BAQUFADBDMQswCQYDVQQGEwJVUzEaMBgGA1UE
ChMRVGVzdCBDZXJ0aWZpY2F0ZXMxGDAWBgNVBAMTD2luZGlyZWN0Q1JMIENBMRcN
MDEwNDE5MTQ1NzIwWhcNMTEwNDE5MTQ1NzIwWjAiMCACAQIXDTAxMDQxOTE0NTcy
MFowDDAKBgNVHRUEAwoBAaBAMD4wHwYDVR0jBBgwFoAUbMEUX9inLeCGkxlcC/BJ
uSVb6BwwCgYDVR0UBAMCAQEwDwYDVR0cAQH/BAUwA4QB/zANBgkqhkiG9w0BAQUF
AAOBgQBsq5FLOGKO8kiGEKa4ucPCKOXB2DvFjG9iRDf2Hi/UBL7/uyikPHEfaViF
lWA8zPdlIk6eROJrRRadZ67a/1fn1O80zx6GUhMld6d9/OyUYr2xdqlmwe+Cuz6b
IcTvSZsq6FrvOYLu2pdfd4mmPkImd7IVl8Tb7sqMrdLPGD6H6A==
-----END X509 CRL-----

