subject=/C=US/O=Test Certificates/CN=keyUsage Critical cRLSign False CA
issuer=/C=US/O=Test Certificates/CN=Trust Anchor
-----BEGIN CERTIFICATE-----
MIICiDCCAfGgAwIBAgIBIDANBgkqhkiG9w0BAQUFADBAMQswCQYDVQQGEwJVUzEa
MBgGA1UEChMRVGVzdCBDZXJ0aWZpY2F0ZXMxFTATBgNVBAMTDFRydXN0IEFuY2hv
cjAeFw0wMTA0MTkxNDU3MjBaFw0xMTA0MTkxNDU3MjBaMFYxCzAJBgNVBAYTAlVT
MRowGAYDVQQKExFUZXN0IENlcnRpZmljYXRlczErMCkGA1UEAxMia2V5VXNhZ2Ug
Q3JpdGljYWwgY1JMU2lnbiBGYWxzZSBDQTCBnzANBgkqhkiG9w0BAQEFAAOBjQAw
gYkCgYEA4iwG9rt4eJXUwy+UTNrUEq7gFuAYWGYaf0DCMDkLcYPIAwlWow99RTeX
jXir2B5PC/YcGARB1+bLQDTn7C8R2bilNXujkHWU4w10Vt56sONz+0ASNoIXCPn4
EFXAneC3z7q9ZONoU4U3MBxMhuepSqGeBWNgh5KI/ICyYI/P61UCAwEAAaN8MHow
HwYDVR0jBBgwFoAU+2zULYGeyid6ng2wPOqavIf/SeowHQYDVR0OBBYEFJSB6cRQ
9gcgcCaUPO/fMC7eP3TNMA4GA1UdDwEB/wQEAwICBDAXBgNVHSAEEDAOMAwGCmCG
SAFlAwIBMAEwDwYDVR0TAQH/BAUwAwEB/zANBgkqhkiG9w0BAQUFAAOBgQBvUd6L
OoQLwzSqlbFY2JYA5GGxYuAdrT0FxeuRK2wGwiPmNCKn0w8t/wwQTrbPdrENV2Rc
gzeZ9A5RY/Qs6EogNvy0qfC6lw2aUZsjEFjpPvnXmjb23sL2A3twFUWuoZdy8Wtd
PTGWD96vq7KEdsMb3IRwUMk0XxyPZ4MUOqtVyg==
-----END CERTIFICATE-----

subject=/C=US/O=Test Certificates/CN=Invalid keyUsage Critical cRLSign False EE Certificate Test4
issuer=/C=US/O=Test Certificates/CN=keyUsage Critical cRLSign False CA
-----BEGIN CERTIFICATE-----
MIICpzCCAhCgAwIBAgIBATANBgkqhkiG9w0BAQUFADBWMQswCQYDVQQGEwJVUzEa
MBgGA1UEChMRVGVzdCBDZXJ0aWZpY2F0ZXMxKzApBgNVBAMTImtleVVzYWdlIENy
aXRpY2FsIGNSTFNpZ24gRmFsc2UgQ0EwHhcNMDEwNDE5MTQ1NzIwWhcNMTEwNDE5
MTQ1NzIwWjBwMQswCQYDVQQGEwJVUzEaMBgGA1UEChMRVGVzdCBDZXJ0aWZpY2F0
ZXMxRTBDBgNVBAMTPEludmFsaWQga2V5VXNhZ2UgQ3JpdGljYWwgY1JMU2lnbiBG
YWxzZSBFRSBDZXJ0aWZpY2F0ZSBUZXN0NDCBnzANBgkqhkiG9w0BAQEFAAOBjQAw
gYkCgYEAy7qxBfmtCspcqkqi9Slrzqm5Oaxst+HoLMAM77zVMEmIDI2IYsm1+PKV
WNIdR8whYpz9OvVP16/Ujt4D4902/HLCQGcMfprQ4M7S2ba4Ujvig4fe6SFwVCRs
YbCOmVA7rHiPEz2uguVgeAkJolSooUz/QEtakvGSEKGO8zhuQFsCAwEAAaNrMGkw
HwYDVR0jBBgwFoAUlIHpxFD2ByBwJpQ8798wLt4/dM0wHQYDVR0OBBYEFOsTlV2h
OTNSDv1rZhunjIMov0boMA4GA1UdDwEB/wQEAwIE8DAXBgNVHSAEEDAOMAwGCmCG
SAFlAwIBMAEwDQYJKoZIhvcNAQEFBQADgYEAgST/vGwENhUdJayqletDgqTapBVi
mXOpojLaV5Q71AWzCA6oY3D0ATMW3QbzK9OBaDtURLb6zyKPLtx/2jZU3hw1c1Ia
bIIKe8MPc9VVlABo3GW8vYwKucYZValIq4YAV9AbtFYz+5L+7UAsZC3iU9t5UJ9G
GftSrxstYAKAeRg=
-----END CERTIFICATE-----

Certificate Revocation List (CRL):
        Version 2 (0x1)
        Signature Algorithm: sha1WithRSAEncryption
        Issuer: /C=US/O=Test Certificates/CN=keyUsage Critical cRLSign False CA
        Last Update: Apr 19 14:57:20 2001 GMT
        Next Update: Apr 19 14:57:20 2011 GMT
        CRL extensions:
            X509v3 Authority Key Identifier: 
                keyid:94:81:E9:C4:50:F6:07:20:70:26:94:3C:EF:DF:30:2E:DE:3F:74:CD

            X509v3 CRL Number: 
                1
No Revoked Certificates.
    Signature Algorithm: sha1WithRSAEncryption
        df:6c:04:71:99:bd:11:54:35:2e:e7:bb:54:60:3c:46:38:0c:
        cb:d3:e9:06:bd:55:2a:03:35:2b:cf:e5:a3:b6:f1:13:5c:8b:
        43:5e:9b:8c:10:8e:c6:82:83:ee:af:1f:50:3a:14:2c:f3:a4:
        43:00:90:21:f9:59:4b:15:c4:5c:30:1c:86:75:2a:cb:a1:86:
        33:b1:f9:75:46:99:34:07:64:dc:4f:6e:d1:f2:cd:f5:0b:7f:
        00:1d:ca:9e:60:0f:93:8a:c5:22:cd:59:46:e5:21:2d:26:ef:
        98:ff:6d:50:2a:7d:5e:15:81:4c:b8:3c:ca:9a:1a:b5:1b:6f:
        4c:9f
-----BEGIN X509 CRL-----
MIIBTzCBuQIBATANBgkqhkiG9w0BAQUFADBWMQswCQYDVQQGEwJVUzEaMBgGA1UE
ChMRVGVzdCBDZXJ0aWZpY2F0ZXMxKzApBgNVBAMTImtleVVzYWdlIENyaXRpY2Fs
IGNSTFNpZ24gRmFsc2UgQ0EXDTAxMDQxOTE0NTcyMFoXDTExMDQxOTE0NTcyMFqg
LzAtMB8GA1UdIwQYMBaAFJSB6cRQ9gcgcCaUPO/fMC7eP3TNMAoGA1UdFAQDAgEB
MA0GCSqGSIb3DQEBBQUAA4GBAN9sBHGZvRFUNS7nu1RgPEY4DMvT6Qa9VSoDNSvP
5aO28RNci0Nem4wQjsaCg+6vH1A6FCzzpEMAkCH5WUsVxFwwHIZ1KsuhhjOx+XVG
mTQHZNxPbtHyzfULfwAdyp5gD5OKxSLNWUblIS0m75j/bVAqfV4VgUy4PMqaGrUb
b0yf
-----END X509 CRL-----

Certificate Revocation List (CRL):
        Version 2 (0x1)
        Signature Algorithm: sha1WithRSAEncryption
        Issuer: /C=US/O=Test Certificates/CN=Trust Anchor
        Last Update: Apr 19 14:57:20 2001 GMT
        Next Update: Apr 19 14:57:20 2011 GMT
        CRL extensions:
            X509v3 Authority Key Identifier: 
                keyid:FB:6C:D4:2D:81:9E:CA:27:7A:9E:0D:B0:3C:EA:9A:BC:87:FF:49:EA

            X509v3 CRL Number: 
                1
Revoked Certificates:
    Serial Number: 68
        Revocation Date: Apr 19 14:57:20 2001 GMT
        CRL entry extensions:
            X509v3 CRL Reason Code: 
                Key Compromise
    Signature Algorithm: sha1WithRSAEncryption
        92:12:c4:34:b4:92:ab:ba:71:6b:74:31:16:ce:ed:25:d6:4b:
        1e:fa:f8:20:1e:9d:d7:7f:30:ed:15:f7:8b:5d:64:9b:dd:31:
        40:e4:55:0f:0c:5f:82:69:63:00:76:a5:cf:9e:c4:5f:f2:53:
        9b:9b:7d:f5:69:1d:74:57:38:70:e5:fb:5b:76:58:c9:ec:31:
        dc:94:1b:02:ee:9d:33:9c:38:4b:29:1d:e1:0c:29:8b:6e:c7:
        bf:a0:e8:40:34:83:cf:ff:9f:cd:b5:f7:d9:4d:a7:9f:2e:bf:
        44:98:6b:f2:d3:fe:a8:20:31:c1:33:76:b7:1c:19:65:4d:b9:
        14:39
-----BEGIN X509 CRL-----
MIIBXTCBxwIBATANBgkqhkiG9w0BAQUFADBAMQswCQYDVQQGEwJVUzEaMBgGA1UE
ChMRVGVzdCBDZXJ0aWZpY2F0ZXMxFTATBgNVBAMTDFRydXN0IEFuY2hvchcNMDEw
NDE5MTQ1NzIwWhcNMTEwNDE5MTQ1NzIwWjAiMCACAWgXDTAxMDQxOTE0NTcyMFow
DDAKBgNVHRUEAwoBAaAvMC0wHwYDVR0jBBgwFoAU+2zULYGeyid6ng2wPOqavIf/
SeowCgYDVR0UBAMCAQEwDQYJKoZIhvcNAQEFBQADgYEAkhLENLSSq7pxa3QxFs7t
JdZLHvr4IB6d138w7RX3i11km90xQORVDwxfgmljAHalz57EX/JTm5t99WkddFc4
cOX7W3ZYyewx3JQbAu6dM5w4Sykd4Qwpi27Hv6DoQDSDz/+fzbX32U2nny6/RJhr
8tP+qCAxwTN2txwZZU25FDk=
-----END X509 CRL-----

