subject=/C=US/O=Test Certificates/CN=nameConstraints RFC822 CA1
issuer=/C=US/O=Test Certificates/CN=Trust Anchor
-----BEGIN CERTIFICATE-----
MIICqzCCAhSgAwIBAgIBQzANBgkqhkiG9w0BAQUFADBAMQswCQYDVQQGEwJVUzEa
MBgGA1UEChMRVGVzdCBDZXJ0aWZpY2F0ZXMxFTATBgNVBAMTDFRydXN0IEFuY2hv
cjAeFw0wMTA0MTkxNDU3MjBaFw0xMTA0MTkxNDU3MjBaME4xCzAJBgNVBAYTAlVT
MRowGAYDVQQKExFUZXN0IENlcnRpZmljYXRlczEjMCEGA1UEAxMabmFtZUNvbnN0
cmFpbnRzIFJGQzgyMiBDQTEwgZ8wDQYJKoZIhvcNAQEBBQADgY0AMIGJAoGBAOYG
d2HszTJIsVTazKriCUJ/ExxUo4U4HEZN9+/XVXsQVkZYIzWtyCTC3IFmSAyb9ZED
Gu3jmF/evXpfNXmxiURUu6W0bLEpIkZiVpPpTKqoJx2EHj+wXOfe31AD0OmKidXP
66+LVgIJLWGMr3Msbzb4T3gpKb2ynQc2/XnE3RkbAgMBAAGjgaYwgaMwHwYDVR0j
BBgwFoAU+2zULYGeyid6ng2wPOqavIf/SeowHQYDVR0OBBYEFON/hXqOojue7rgS
HXkTqsS9LlmtMA4GA1UdDwEB/wQEAwIBBjAXBgNVHSAEEDAOMAwGCmCGSAFlAwIB
MAEwDwYDVR0TAQH/BAUwAwEB/zAnBgNVHR4BAf8EHTAboBkwF4EVLnRlc3RjZXJ0
aWZpY2F0ZXMuZ292MA0GCSqGSIb3DQEBBQUAA4GBAJjXEGmrQ1/Muud+NZwajR9x
it/32SNVvHI+/O7bopout/RnhJudrmsdqGlcSk0KXfcXI22cJOkAYe1M39znxgba
VitYYLxfsS+3O2pLpMgQMFCZuOJATfAQUlui+dVtPTaIam7jimms5Qam2K2SuZ/t
eJ2J/rIDHCOrIGktQS8H
-----END CERTIFICATE-----

subject=/C=US/O=Test Certificates/CN=Invalid RFC822 nameConstraints EE Certificate Test22
issuer=/C=US/O=Test Certificates/CN=nameConstraints RFC822 CA1
-----BEGIN CERTIFICATE-----
MIICwzCCAiygAwIBAgIBAjANBgkqhkiG9w0BAQUFADBOMQswCQYDVQQGEwJVUzEa
MBgGA1UEChMRVGVzdCBDZXJ0aWZpY2F0ZXMxIzAhBgNVBAMTGm5hbWVDb25zdHJh
aW50cyBSRkM4MjIgQ0ExMB4XDTAxMDQxOTE0NTcyMFoXDTExMDQxOTE0NTcyMFow
aDELMAkGA1UEBhMCVVMxGjAYBgNVBAoTEVRlc3QgQ2VydGlmaWNhdGVzMT0wOwYD
VQQDEzRJbnZhbGlkIFJGQzgyMiBuYW1lQ29uc3RyYWludHMgRUUgQ2VydGlmaWNh
dGUgVGVzdDIyMIGfMA0GCSqGSIb3DQEBAQUAA4GNADCBiQKBgQDZ3Uy3P0KWoLsX
XvhOf4ODgEJBTbtvW+xeevCGrTVdm3mG+1Lobp74rIRSpQShRCN+ltNnmEOHPIeJ
YuV92pX3FQbBX9mz3ZgKznyb9qVBwysiyfX19PBeESDLn+O6Kcvl9XfUu3HdXMQP
KA+UPU6txM1pbhkvRK5OSG/TBaRI+QIDAQABo4GWMIGTMB8GA1UdIwQYMBaAFON/
hXqOojue7rgSHXkTqsS9LlmtMB0GA1UdDgQWBBT4EdpzVCY8SgosOEgawdqBAjYT
5zAOBgNVHQ8BAf8EBAMCBPAwFwYDVR0gBBAwDjAMBgpghkgBZQMCATABMCgGA1Ud
EQQhMB+BHVRlc3QyMkVFQHRlc3RjZXJ0aWZpY2F0ZXMuZ292MA0GCSqGSIb3DQEB
BQUAA4GBAENRegfOIUdgTAhpzFZDtmSaJUrYqkW4ft0v2t+flv6Nf+uAjlYMXThj
7Q4LUtevMKeoFkGX5gnGL7HKo0/QwTPETD0qTCYcQo9uw3SCdVie4kp7X0/w/rHo
sNUMPAPe86k7l98/xN3/zO6P4o82pX4vp5xqgs5koOZKqExh8kzH
-----END CERTIFICATE-----

Certificate Revocation List (CRL):
        Version 2 (0x1)
        Signature Algorithm: sha1WithRSAEncryption
        Issuer: /C=US/O=Test Certificates/CN=nameConstraints RFC822 CA1
        Last Update: Apr 19 14:57:20 2001 GMT
        Next Update: Apr 19 14:57:20 2011 GMT
        CRL extensions:
            X509v3 Authority Key Identifier: 
                keyid:E3:7F:85:7A:8E:A2:3B:9E:EE:B8:12:1D:79:13:AA:C4:BD:2E:59:AD

            X509v3 CRL Number: 
                1
No Revoked Certificates.
    Signature Algorithm: sha1WithRSAEncryption
        b4:77:73:f7:12:e7:d7:20:9a:bd:e1:00:a8:b1:6a:7a:65:1e:
        8e:56:c9:ca:38:33:7e:d5:37:41:c1:e7:95:a4:81:ab:9b:40:
        31:1d:aa:6c:14:f9:19:e4:3f:85:6b:24:ff:d6:bf:cb:fd:27:
        a9:65:35:5c:b7:6b:82:87:b7:e1:c2:4d:34:ca:42:5c:46:66:
        45:11:d2:c0:48:0f:08:8c:b0:a7:58:66:63:9d:ae:0a:68:0a:
        5b:5b:ee:fe:12:93:77:03:90:6e:a4:8d:32:2e:56:56:cf:1f:
        85:b8:95:52:f7:73:78:5e:d0:04:66:2c:8c:ca:78:36:da:43:
        10:07
-----BEGIN X509 CRL-----
MIIBRzCBsQIBATANBgkqhkiG9w0BAQUFADBOMQswCQYDVQQGEwJVUzEaMBgGA1UE
ChMRVGVzdCBDZXJ0aWZpY2F0ZXMxIzAhBgNVBAMTGm5hbWVDb25zdHJhaW50cyBS
RkM4MjIgQ0ExFw0wMTA0MTkxNDU3MjBaFw0xMTA0MTkxNDU3MjBaoC8wLTAfBgNV
HSMEGDAWgBTjf4V6jqI7nu64Eh15E6rEvS5ZrTAKBgNVHRQEAwIBATANBgkqhkiG
9w0BAQUFAAOBgQC0d3P3EufXIJq94QCosWp6ZR6OVsnKODN+1TdBweeVpIGrm0Ax
HapsFPkZ5D+FayT/1r/L/SepZTVct2uCh7fhwk00ykJcRmZFEdLASA8IjLCnWGZj
na4KaApbW+7+EpN3A5BupI0yLlZWzx+FuJVS93N4XtAEZiyMyng22kMQBw==
-----END X509 CRL-----

Certificate Revocation List (CRL):
        Version 2 (0x1)
        Signature Algorithm: sha1WithRSAEncryption
        Issuer: /C=US/O=Test Certificates/CN=Trust Anchor
        Last Update: Apr 19 14:57:20 2001 GMT
        Next Update: Apr 19 14:57:20 2011 GMT
        CRL extensions:
            X509v3 Authority Key Identifier: 
                keyid:FB:6C:D4:2D:81:9E:CA:27:7A:9E:0D:B0:3C:EA:9A:BC:87:FF:49:EA

            X509v3 CRL Number: 
                1
Revoked Certificates:
    Serial Number: 68
        Revocation Date: Apr 19 14:57:20 2001 GMT
        CRL entry extensions:
            X509v3 CRL Reason Code: 
                Key Compromise
    Signature Algorithm: sha1WithRSAEncryption
        92:12:c4:34:b4:92:ab:ba:71:6b:74:31:16:ce:ed:25:d6:4b:
        1e:fa:f8:20:1e:9d:d7:7f:30:ed:15:f7:8b:5d:64:9b:dd:31:
        40:e4:55:0f:0c:5f:82:69:63:00:76:a5:cf:9e:c4:5f:f2:53:
        9b:9b:7d:f5:69:1d:74:57:38:70:e5:fb:5b:76:58:c9:ec:31:
        dc:94:1b:02:ee:9d:33:9c:38:4b:29:1d:e1:0c:29:8b:6e:c7:
        bf:a0:e8:40:34:83:cf:ff:9f:cd:b5:f7:d9:4d:a7:9f:2e:bf:
        44:98:6b:f2:d3:fe:a8:20:31:c1:33:76:b7:1c:19:65:4d:b9:
        14:39
-----BEGIN X509 CRL-----
MIIBXTCBxwIBATANBgkqhkiG9w0BAQUFADBAMQswCQYDVQQGEwJVUzEaMBgGA1UE
ChMRVGVzdCBDZXJ0aWZpY2F0ZXMxFTATBgNVBAMTDFRydXN0IEFuY2hvchcNMDEw
NDE5MTQ1NzIwWhcNMTEwNDE5MTQ1NzIwWjAiMCACAWgXDTAxMDQxOTE0NTcyMFow
DDAKBgNVHRUEAwoBAaAvMC0wHwYDVR0jBBgwFoAU+2zULYGeyid6ng2wPOqavIf/
SeowCgYDVR0UBAMCAQEwDQYJKoZIhvcNAQEFBQADgYEAkhLENLSSq7pxa3QxFs7t
JdZLHvr4IB6d138w7RX3i11km90xQORVDwxfgmljAHalz57EX/JTm5t99WkddFc4
cOX7W3ZYyewx3JQbAu6dM5w4Sykd4Qwpi27Hv6DoQDSDz/+fzbX32U2nny6/RJhr
8tP+qCAxwTN2txwZZU25FDk=
-----END X509 CRL-----

