subject=/C=US/O=Test Certificates/CN=inhibitPolicyMapping0 CA
issuer=/C=US/O=Test Certificates/CN=Trust Anchor
-----BEGIN CERTIFICATE-----
MIIClDCCAf2gAwIBAgIBNzANBgkqhkiG9w0BAQUFADBAMQswCQYDVQQGEwJVUzEa
MBgGA1UEChMRVGVzdCBDZXJ0aWZpY2F0ZXMxFTATBgNVBAMTDFRydXN0IEFuY2hv
cjAeFw0wMTA0MTkxNDU3MjBaFw0xMTA0MTkxNDU3MjBaMEwxCzAJBgNVBAYTAlVT
MRowGAYDVQQKExFUZXN0IENlcnRpZmljYXRlczEhMB8GA1UEAxMYaW5oaWJpdFBv
bGljeU1hcHBpbmcwIENBMIGfMA0GCSqGSIb3DQEBAQUAA4GNADCBiQKBgQDQIzx8
7J8x9DkeOhXlBG/eAUo6B99wk9uPjSwrZ7f+CXzaECXTCOk88n35mahe/lgpBbr8
ujs9D6bCgS+AVciyqJAtZFW45FX6xjb6fcLzebF4HTOpBYVxkqlJ9nLLCkaBHMIq
1U5jR8jDZhgTnMBvNm0yBdNFo6Lh6A5d+Gr5jwIDAQABo4GRMIGOMB8GA1UdIwQY
MBaAFPts1C2Bnsonep4NsDzqmryH/0nqMB0GA1UdDgQWBBRs6ccKAUJAQfXzcI7u
4dFSXtc3WjAOBgNVHQ8BAf8EBAMCAQYwFwYDVR0gBBAwDjAMBgpghkgBZQMCATAB
MA8GA1UdEwEB/wQFMAMBAf8wEgYDVR0kAQH/BAgwBoABAIEBADANBgkqhkiG9w0B
AQUFAAOBgQDR8om42wMsHX434zvF/Yl3Lm4GBdFmFWIiRNpqH5iS8X1lGbi1pEAg
m37Pvvobd5tcsZd2tsz0/DOTvntZhUdX5rmvN4x0i3JUXb9bOPMDs2iJs5oFF6Iq
TSk9wJXUwsPy3ltGGWpU817s4uj8HU3tffkyOyc7j1u3l8x2LJWPvA==
-----END CERTIFICATE-----

subject=/C=US/O=Test Certificates/CN=Invalid inhibitPolicyMapping EE Certificate Test1
issuer=/C=US/O=Test Certificates/CN=inhibitPolicyMapping0 subCA
-----BEGIN CERTIFICATE-----
MIICozCCAgygAwIBAgIBATANBgkqhkiG9w0BAQUFADBPMQswCQYDVQQGEwJVUzEa
MBgGA1UEChMRVGVzdCBDZXJ0aWZpY2F0ZXMxJDAiBgNVBAMTG2luaGliaXRQb2xp
Y3lNYXBwaW5nMCBzdWJDQTAeFw0wMTA0MTkxNDU3MjBaFw0xMTA0MTkxNDU3MjBa
MGUxCzAJBgNVBAYTAlVTMRowGAYDVQQKExFUZXN0IENlcnRpZmljYXRlczE6MDgG
A1UEAxMxSW52YWxpZCBpbmhpYml0UG9saWN5TWFwcGluZyBFRSBDZXJ0aWZpY2F0
ZSBUZXN0MTCBnzANBgkqhkiG9w0BAQEFAAOBjQAwgYkCgYEAsNiBmaKBCN2+twi8
zZHkggWucFtI5ZszQOXjX8ivFQMOkIaUz2HqFIeurNmSEN2Ta8WHJJ/thRgpUF4l
p8ovjgthh7/tScnTlJMN60ros1uQl6+qm/dzqn8kQ42EGLA9n6Ut5LuJ8AGCil+L
9TFs7vbPktHo0h2YcwCvEjyyZRECAwEAAaN5MHcwHwYDVR0jBBgwFoAUMLGv3K7V
MPIMOabjLBUhOK+ii9AwHQYDVR0OBBYEFDO/lIeGch/Q9DaWzigYcWwKxuVBMA4G
A1UdDwEB/wQEAwIE8DAlBgNVHSAEHjAcMAwGCmCGSAFlAwIBMAEwDAYKYIZIAWUD
AgEwAjANBgkqhkiG9w0BAQUFAAOBgQCKhd9JcXnw+W9w7fb+IhKEeepUh2J7y4w6
11+U8Skm7KgNeSHdCzQjFMqGyeoJK+XV1j21mGK1YqXrbLjo+fHbHF68tf2rzWTC
Y2igOFwDQFpFFbqrKbYogBOuqR8TCR3LFH9mypYIqbcfiohQF5XSwMnyNEzDc8WH
hEapxbpusQ==
-----END CERTIFICATE-----

subject=/C=US/O=Test Certificates/CN=inhibitPolicyMapping0 subCA
issuer=/C=US/O=Test Certificates/CN=inhibitPolicyMapping0 CA
-----BEGIN CERTIFICATE-----
MIICtzCCAiCgAwIBAgIBATANBgkqhkiG9w0BAQUFADBMMQswCQYDVQQGEwJVUzEa
MBgGA1UEChMRVGVzdCBDZXJ0aWZpY2F0ZXMxITAfBgNVBAMTGGluaGliaXRQb2xp
Y3lNYXBwaW5nMCBDQTAeFw0wMTA0MTkxNDU3MjBaFw0xMTA0MTkxNDU3MjBaME8x
CzAJBgNVBAYTAlVTMRowGAYDVQQKExFUZXN0IENlcnRpZmljYXRlczEkMCIGA1UE
AxMbaW5oaWJpdFBvbGljeU1hcHBpbmcwIHN1YkNBMIGfMA0GCSqGSIb3DQEBAQUA
A4GNADCBiQKBgQDWkQsHOT5qYxFfYJsGV/LbLwMtr5DBFdB/k19gzvAjYpjlKgVD
MgfJDc/d3WyMB8t5oICqdJDVFEq4JBU+T/J27G89SJusZSRJdmQXogfiXWHSOXtA
f3Z4IcRxAwjoNJaF6n9LR2q5YTDIoiEK3+h1jhOiNoFwYmvTajzcJ15SKQIDAQAB
o4GlMIGiMB8GA1UdIwQYMBaAFGzpxwoBQkBB9fNwju7h0VJe1zdaMB0GA1UdDgQW
BBQwsa/crtUw8gw5puMsFSE4r6KL0DAOBgNVHQ8BAf8EBAMCAQYwFwYDVR0gBBAw
DjAMBgpghkgBZQMCATABMCYGA1UdIQEB/wQcMBowGAYKYIZIAWUDAgEwAQYKYIZI
AWUDAgEwAjAPBgNVHRMBAf8EBTADAQH/MA0GCSqGSIb3DQEBBQUAA4GBAKnjTqcv
cg3JfloLHCOwWWPdk64BNIs0gLMI584sPNdiQR5bCz4KCoKMzvzIEZDL+kVo6RnR
l39fdQ1rIbv5lE6nUVlTJNcj5Mq66NMsdVFsz5plRGUN4YpEDhz30hiwjkoo/B6N
Bs76rDEC1VReVfNcwcglyKXIIEjHTMMsG0GH
-----END CERTIFICATE-----

Certificate Revocation List (CRL):
        Version 2 (0x1)
        Signature Algorithm: sha1WithRSAEncryption
        Issuer: /C=US/O=Test Certificates/CN=inhibitPolicyMapping0 CA
        Last Update: Apr 19 14:57:20 2001 GMT
        Next Update: Apr 19 14:57:20 2011 GMT
        CRL extensions:
            X509v3 Authority Key Identifier: 
                keyid:6C:E9:C7:0A:01:42:40:41:F5:F3:70:8E:EE:E1:D1:52:5E:D7:37:5A

            X509v3 CRL Number: 
                1
No Revoked Certificates.
    Signature Algorithm: sha1WithRSAEncryption
        cc:98:13:01:ea:eb:7a:16:12:f0:2e:66:3a:2e:6b:fd:c4:2a:
        17:89:46:64:18:5a:ca:d2:00:55:3e:bd:00:bc:ce:f4:76:7e:
        68:bf:f2:73:cb:d2:04:b4:e4:b4:21:6b:e0:4e:ea:c5:61:20:
        3d:b8:db:61:e2:d5:27:19:48:65:cb:47:d1:66:3b:29:a9:c7:
        66:f6:11:09:2c:48:9a:c3:37:a9:b0:74:16:91:b3:d4:ea:90:
        2c:af:a8:4a:6a:1f:4e:fb:40:b0:e8:5e:13:58:f6:cb:82:53:
        47:43:79:ef:05:89:6b:5e:e9:99:1c:1e:83:07:10:5d:40:ed:
        f2:06
-----BEGIN X509 CRL-----
MIIBRTCBrwIBATANBgkqhkiG9w0BAQUFADBMMQswCQYDVQQGEwJVUzEaMBgGA1UE
ChMRVGVzdCBDZXJ0aWZpY2F0ZXMxITAfBgNVBAMTGGluaGliaXRQb2xpY3lNYXBw
aW5nMCBDQRcNMDEwNDE5MTQ1NzIwWhcNMTEwNDE5MTQ1NzIwWqAvMC0wHwYDVR0j
BBgwFoAUbOnHCgFCQEH183CO7uHRUl7XN1owCgYDVR0UBAMCAQEwDQYJKoZIhvcN
AQEFBQADgYEAzJgTAerrehYS8C5mOi5r/cQqF4lGZBhaytIAVT69ALzO9HZ+aL/y
c8vSBLTktCFr4E7qxWEgPbjbYeLVJxlIZctH0WY7KanHZvYRCSxImsM3qbB0FpGz
1OqQLK+oSmofTvtAsOheE1j2y4JTR0N57wWJa17pmRwegwcQXUDt8gY=
-----END X509 CRL-----

Certificate Revocation List (CRL):
        Version 2 (0x1)
        Signature Algorithm: sha1WithRSAEncryption
        Issuer: /C=US/O=Test Certificates/CN=inhibitPolicyMapping0 subCA
        Last Update: Apr 19 14:57:20 2001 GMT
        Next Update: Apr 19 14:57:20 2011 GMT
        CRL extensions:
            X509v3 Authority Key Identifier: 
                keyid:30:B1:AF:DC:AE:D5:30:F2:0C:39:A6:E3:2C:15:21:38:AF:A2:8B:D0

            X509v3 CRL Number: 
                1
No Revoked Certificates.
    Signature Algorithm: sha1WithRSAEncryption
        ce:d5:06:91:52:5b:f0:21:b9:9e:d1:3b:5c:d3:17:a9:f1:b7:
        70:51:ab:64:ac:d3:3d:4b:e6:bd:eb:68:fb:0b:45:7e:04:45:
        4b:26:b5:fd:ca:66:7f:39:9b:42:2d:bc:1a:56:92:65:39:2a:
        28:6b:d3:6a:7e:6a:8f:eb:c6:2c:3f:29:1e:73:75:9e:dd:01:
        19:29:e5:d4:5c:fd:d8:ce:15:81:35:f7:8c:45:19:1a:64:35:
        79:e2:00:cb:3c:38:56:63:11:38:05:07:c6:1c:c4:27:61:fb:
        0e:a8:b1:1a:3c:6f:8c:e9:0f:3c:8e:ab:d7:3a:45:bb:15:4b:
        41:60
-----BEGIN X509 CRL-----
MIIBSDCBsgIBATANBgkqhkiG9w0BAQUFADBPMQswCQYDVQQGEwJVUzEaMBgGA1UE
ChMRVGVzdCBDZXJ0aWZpY2F0ZXMxJDAiBgNVBAMTG2luaGliaXRQb2xpY3lNYXBw
aW5nMCBzdWJDQRcNMDEwNDE5MTQ1NzIwWhcNMTEwNDE5MTQ1NzIwWqAvMC0wHwYD
VR0jBBgwFoAUMLGv3K7VMPIMOabjLBUhOK+ii9AwCgYDVR0UBAMCAQEwDQYJKoZI
hvcNAQEFBQADgYEAztUGkVJb8CG5ntE7XNMXqfG3cFGrZKzTPUvmveto+wtFfgRF
Sya1/cpmfzmbQi28GlaSZTkqKGvTan5qj+vGLD8pHnN1nt0BGSnl1Fz92M4VgTX3
jEUZGmQ1eeIAyzw4VmMROAUHxhzEJ2H7DqixGjxvjOkPPI6r1zpFuxVLQWA=
-----END X509 CRL-----

Certificate Revocation List (CRL):
        Version 2 (0x1)
        Signature Algorithm: sha1WithRSAEncryption
        Issuer: /C=US/O=Test Certificates/CN=Trust Anchor
        Last Update: Apr 19 14:57:20 2001 GMT
        Next Update: Apr 19 14:57:20 2011 GMT
        CRL extensions:
            X509v3 Authority Key Identifier: 
                keyid:FB:6C:D4:2D:81:9E:CA:27:7A:9E:0D:B0:3C:EA:9A:BC:87:FF:49:EA

            X509v3 CRL Number: 
                1
Revoked Certificates:
    Serial Number: 68
        Revocation Date: Apr 19 14:57:20 2001 GMT
        CRL entry extensions:
            X509v3 CRL Reason Code: 
                Key Compromise
    Signature Algorithm: sha1WithRSAEncryption
        92:12:c4:34:b4:92:ab:ba:71:6b:74:31:16:ce:ed:25:d6:4b:
        1e:fa:f8:20:1e:9d:d7:7f:30:ed:15:f7:8b:5d:64:9b:dd:31:
        40:e4:55:0f:0c:5f:82:69:63:00:76:a5:cf:9e:c4:5f:f2:53:
        9b:9b:7d:f5:69:1d:74:57:38:70:e5:fb:5b:76:58:c9:ec:31:
        dc:94:1b:02:ee:9d:33:9c:38:4b:29:1d:e1:0c:29:8b:6e:c7:
        bf:a0:e8:40:34:83:cf:ff:9f:cd:b5:f7:d9:4d:a7:9f:2e:bf:
        44:98:6b:f2:d3:fe:a8:20:31:c1:33:76:b7:1c:19:65:4d:b9:
        14:39
-----BEGIN X509 CRL-----
MIIBXTCBxwIBATANBgkqhkiG9w0BAQUFADBAMQswCQYDVQQGEwJVUzEaMBgGA1UE
ChMRVGVzdCBDZXJ0aWZpY2F0ZXMxFTATBgNVBAMTDFRydXN0IEFuY2hvchcNMDEw
NDE5MTQ1NzIwWhcNMTEwNDE5MTQ1NzIwWjAiMCACAWgXDTAxMDQxOTE0NTcyMFow
DDAKBgNVHRUEAwoBAaAvMC0wHwYDVR0jBBgwFoAU+2zULYGeyid6ng2wPOqavIf/
SeowCgYDVR0UBAMCAQEwDQYJKoZIhvcNAQEFBQADgYEAkhLENLSSq7pxa3QxFs7t
JdZLHvr4IB6d138w7RX3i11km90xQORVDwxfgmljAHalz57EX/JTm5t99WkddFc4
cOX7W3ZYyewx3JQbAu6dM5w4Sykd4Qwpi27Hv6DoQDSDz/+fzbX32U2nny6/RJhr
8tP+qCAxwTN2txwZZU25FDk=
-----END X509 CRL-----

