subject=/C=US/O=Test Certificates/CN=nameConstraints URI2 CA
issuer=/C=US/O=Test Certificates/CN=Trust Anchor
-----BEGIN CERTIFICATE-----
MIICqjCCAhOgAwIBAgIBSTANBgkqhkiG9w0BAQUFADBAMQswCQYDVQQGEwJVUzEa
MBgGA1UEChMRVGVzdCBDZXJ0aWZpY2F0ZXMxFTATBgNVBAMTDFRydXN0IEFuY2hv
cjAeFw0wMTA0MTkxNDU3MjBaFw0xMTA0MTkxNDU3MjBaMEsxCzAJBgNVBAYTAlVT
MRowGAYDVQQKExFUZXN0IENlcnRpZmljYXRlczEgMB4GA1UEAxMXbmFtZUNvbnN0
cmFpbnRzIFVSSTIgQ0EwgZ8wDQYJKoZIhvcNAQEBBQADgY0AMIGJAoGBANCu/tVS
XB6TUXM4bU2lQ7EKvQrGMy49TSnHlIwEVZ9UNvbSA/ChnCxPIKWiVWlqdqr0evlL
xdLPxQe6xHuVjkvgFleY6RjA9LqD7YFFvf8AnDD6BV0kIr3itChNI2abON8Dh6IG
+o48bCPAt9bqxCepQbrSn4mYSlcKjyn66Ev7AgMBAAGjgagwgaUwHwYDVR0jBBgw
FoAU+2zULYGeyid6ng2wPOqavIf/SeowHQYDVR0OBBYEFIakVWPxjKAjp6e8y2yq
bdBaxg9aMA4GA1UdDwEB/wQEAwIBBjAXBgNVHSAEEDAOMAwGCmCGSAFlAwIBMAEw
DwYDVR0TAQH/BAUwAwEB/zApBgNVHR4BAf8EHzAdoRswGYYXaW52YWxpZGNlcnRp
ZmljYXRlcy5nb3YwDQYJKoZIhvcNAQEFBQADgYEAXeaQUlCHmmhg1rKHYxVfKaCq
S574GPbDh1QtQoNmVqFF+yGHse9s4hcYcv7VZB74kYKCFUShbBWl1VcmgPbJLDnc
MDjP1B35WdH4IGAxCBLHOiuv/1AWL9EfHUdhX2ZoFpJqNty9lFkahCZ6MARJwtS2
fBh60OItInetzMDECnE=
-----END CERTIFICATE-----

subject=/C=US/O=Test Certificates/CN=Invalid URI nameConstraints EE Certificate Test37
issuer=/C=US/O=Test Certificates/CN=nameConstraints URI2 CA
-----BEGIN CERTIFICATE-----
MIICyDCCAjGgAwIBAgIBAjANBgkqhkiG9w0BAQUFADBLMQswCQYDVQQGEwJVUzEa
MBgGA1UEChMRVGVzdCBDZXJ0aWZpY2F0ZXMxIDAeBgNVBAMTF25hbWVDb25zdHJh
aW50cyBVUkkyIENBMB4XDTAxMDQxOTE0NTcyMFoXDTExMDQxOTE0NTcyMFowZTEL
MAkGA1UEBhMCVVMxGjAYBgNVBAoTEVRlc3QgQ2VydGlmaWNhdGVzMTowOAYDVQQD
EzFJbnZhbGlkIFVSSSBuYW1lQ29uc3RyYWludHMgRUUgQ2VydGlmaWNhdGUgVGVz
dDM3MIGfMA0GCSqGSIb3DQEBAQUAA4GNADCBiQKBgQC7RoVBb6HAXuZfLDEJZHtZ
ZqQoQWTPZt8PsM1IGx7uBWtoC8OpBufVE0QTJZV7uKwsbPCvIAHlsKsoTgxWMPpG
83/daynjox1RbmbI9Vlc+tK/SbwbkIVJ7bO65t52t1SDIfnPSxBa24BxP8wPqbCj
d1alYdvUt+5ERxY6pW+3tQIDAQABo4GhMIGeMB8GA1UdIwQYMBaAFIakVWPxjKAj
p6e8y2yqbdBaxg9aMB0GA1UdDgQWBBQJ/mqtsTQDfDnYag36Bwgfh5EMFDAOBgNV
HQ8BAf8EBAMCBPAwFwYDVR0gBBAwDjAMBgpghkgBZQMCATABMDMGA1UdEQQsMCqG
KGZ0cDovL2ludmFsaWRjZXJ0aWZpY2F0ZXMuZ292OjIxL3Rlc3QzNy8wDQYJKoZI
hvcNAQEFBQADgYEAWfo3+4bDtxvUvo7zJGGkAMWVXpX27OK57XmNG8U6Ge4H9ruL
S3OImTHGFt4EbUhw7OIxtSSCdT9x3SAg+jLVLn5FZYM3tkPk83lLSgSS1kvoRJNN
zf69vibTDpsT9yzeMDt0vFKe/YN4RJwfBWm0ty7yrI6uUu3oxcwLsV7+Wbo=
-----END CERTIFICATE-----

Certificate Revocation List (CRL):
        Version 2 (0x1)
        Signature Algorithm: sha1WithRSAEncryption
        Issuer: /C=US/O=Test Certificates/CN=nameConstraints URI2 CA
        Last Update: Apr 19 14:57:20 2001 GMT
        Next Update: Apr 19 14:57:20 2011 GMT
        CRL extensions:
            X509v3 Authority Key Identifier: 
                keyid:86:A4:55:63:F1:8C:A0:23:A7:A7:BC:CB:6C:AA:6D:D0:5A:C6:0F:5A

            X509v3 CRL Number: 
                1
No Revoked Certificates.
    Signature Algorithm: sha1WithRSAEncryption
        73:1d:ee:ad:1d:21:24:88:c7:70:27:82:cf:68:1d:fa:61:18:
        da:2c:a9:9e:05:0d:b4:7e:e3:ac:49:fc:82:76:d0:6c:80:1c:
        b3:b0:36:4c:44:da:e9:0e:aa:9a:df:66:1e:0a:80:f4:f0:0c:
        84:02:2f:57:47:96:e1:f7:ae:e6:be:85:9e:53:e0:97:1e:9a:
        68:7e:f2:32:8c:d7:89:1e:63:dd:3f:47:06:30:44:e3:42:ee:
        30:c2:d6:ce:3a:46:4f:6c:8c:e2:43:c3:7e:5a:51:ce:5e:73:
        7a:ed:f7:5a:04:a8:0d:f2:f0:67:af:e1:0e:b8:eb:9f:cd:2b:
        24:62
-----BEGIN X509 CRL-----
MIIBRDCBrgIBATANBgkqhkiG9w0BAQUFADBLMQswCQYDVQQGEwJVUzEaMBgGA1UE
ChMRVGVzdCBDZXJ0aWZpY2F0ZXMxIDAeBgNVBAMTF25hbWVDb25zdHJhaW50cyBV
UkkyIENBFw0wMTA0MTkxNDU3MjBaFw0xMTA0MTkxNDU3MjBaoC8wLTAfBgNVHSME
GDAWgBSGpFVj8YygI6envMtsqm3QWsYPWjAKBgNVHRQEAwIBATANBgkqhkiG9w0B
AQUFAAOBgQBzHe6tHSEkiMdwJ4LPaB36YRjaLKmeBQ20fuOsSfyCdtBsgByzsDZM
RNrpDqqa32YeCoD08AyEAi9XR5bh967mvoWeU+CXHppofvIyjNeJHmPdP0cGMETj
Qu4wwtbOOkZPbIziQ8N+WlHOXnN67fdaBKgN8vBnr+EOuOufzSskYg==
-----END X509 CRL-----

Certificate Revocation List (CRL):
        Version 2 (0x1)
        Signature Algorithm: sha1WithRSAEncryption
        Issuer: /C=US/O=Test Certificates/CN=Trust Anchor
        Last Update: Apr 19 14:57:20 2001 GMT
        Next Update: Apr 19 14:57:20 2011 GMT
        CRL extensions:
            X509v3 Authority Key Identifier: 
                keyid:FB:6C:D4:2D:81:9E:CA:27:7A:9E:0D:B0:3C:EA:9A:BC:87:FF:49:EA

            X509v3 CRL Number: 
                1
Revoked Certificates:
    Serial Number: 68
        Revocation Date: Apr 19 14:57:20 2001 GMT
        CRL entry extensions:
            X509v3 CRL Reason Code: 
                Key Compromise
    Signature Algorithm: sha1WithRSAEncryption
        92:12:c4:34:b4:92:ab:ba:71:6b:74:31:16:ce:ed:25:d6:4b:
        1e:fa:f8:20:1e:9d:d7:7f:30:ed:15:f7:8b:5d:64:9b:dd:31:
        40:e4:55:0f:0c:5f:82:69:63:00:76:a5:cf:9e:c4:5f:f2:53:
        9b:9b:7d:f5:69:1d:74:57:38:70:e5:fb:5b:76:58:c9:ec:31:
        dc:94:1b:02:ee:9d:33:9c:38:4b:29:1d:e1:0c:29:8b:6e:c7:
        bf:a0:e8:40:34:83:cf:ff:9f:cd:b5:f7:d9:4d:a7:9f:2e:bf:
        44:98:6b:f2:d3:fe:a8:20:31:c1:33:76:b7:1c:19:65:4d:b9:
        14:39
-----BEGIN X509 CRL-----
MIIBXTCBxwIBATANBgkqhkiG9w0BAQUFADBAMQswCQYDVQQGEwJVUzEaMBgGA1UE
ChMRVGVzdCBDZXJ0aWZpY2F0ZXMxFTATBgNVBAMTDFRydXN0IEFuY2hvchcNMDEw
NDE5MTQ1NzIwWhcNMTEwNDE5MTQ1NzIwWjAiMCACAWgXDTAxMDQxOTE0NTcyMFow
DDAKBgNVHRUEAwoBAaAvMC0wHwYDVR0jBBgwFoAU+2zULYGeyid6ng2wPOqavIf/
SeowCgYDVR0UBAMCAQEwDQYJKoZIhvcNAQEFBQADgYEAkhLENLSSq7pxa3QxFs7t
JdZLHvr4IB6d138w7RX3i11km90xQORVDwxfgmljAHalz57EX/JTm5t99WkddFc4
cOX7W3ZYyewx3JQbAu6dM5w4Sykd4Qwpi27Hv6DoQDSDz/+fzbX32U2nny6/RJhr
8tP+qCAxwTN2txwZZU25FDk=
-----END X509 CRL-----

