subject=/C=US/O=Test Certificates/CN=keyUsage Critical keyCertSign False CA
issuer=/C=US/O=Test Certificates/CN=Trust Anchor
-----BEGIN CERTIFICATE-----
MIICjDCCAfWgAwIBAgIBHTANBgkqhkiG9w0BAQUFADBAMQswCQYDVQQGEwJVUzEa
MBgGA1UEChMRVGVzdCBDZXJ0aWZpY2F0ZXMxFTATBgNVBAMTDFRydXN0IEFuY2hv
cjAeFw0wMTA0MTkxNDU3MjBaFw0xMTA0MTkxNDU3MjBaMFoxCzAJBgNVBAYTAlVT
MRowGAYDVQQKExFUZXN0IENlcnRpZmljYXRlczEvMC0GA1UEAxMma2V5VXNhZ2Ug
Q3JpdGljYWwga2V5Q2VydFNpZ24gRmFsc2UgQ0EwgZ8wDQYJKoZIhvcNAQEBBQAD
gY0AMIGJAoGBALm+L1UcoJG+mviuHuN0sBN3JeuYb9p4T8GP3zMU2o4qU0bwjq9L
PcOqj8RnfIrHIMUR9kgNmxJVXX+02rORMvzU9LsxdQxFNxN8sokG04ZZv5iqSr4W
NnG/UD+RYlBLRrHuNx0fDoW1zAac8JO28LeCdhot2Un+J1W8knpYlAt9AgMBAAGj
fDB6MB8GA1UdIwQYMBaAFPts1C2Bnsonep4NsDzqmryH/0nqMB0GA1UdDgQWBBSU
Abz4nHw/6JK2TckGtNNyMU46NzAOBgNVHQ8BAf8EBAMCAQIwFwYDVR0gBBAwDjAM
BgpghkgBZQMCATABMA8GA1UdEwEB/wQFMAMBAf8wDQYJKoZIhvcNAQEFBQADgYEA
ifJcYkKWo1wikfXTF8s9sBKQjt+cMW2Kn2+25hF8KBXRmo3lJzJXyKtMQucC/+6W
rWB4brLC4KiyxVC9OCbEIxlsc9Mx35cgX39iXI5b2BEn/pZt9ceios9WPQYU6t/Y
D78koBp3ni6yy5WGa3mpU/xh18UaG/8VnfARvbTQcGs=
-----END CERTIFICATE-----

subject=/C=US/O=Test Certificates/CN=Invalid keyUsage Critical keyCertSign False EE Certificate Test1
issuer=/C=US/O=Test Certificates/CN=keyUsage Critical keyCertSign False CA
-----BEGIN CERTIFICATE-----
MIICrzCCAhigAwIBAgIBATANBgkqhkiG9w0BAQUFADBaMQswCQYDVQQGEwJVUzEa
MBgGA1UEChMRVGVzdCBDZXJ0aWZpY2F0ZXMxLzAtBgNVBAMTJmtleVVzYWdlIENy
aXRpY2FsIGtleUNlcnRTaWduIEZhbHNlIENBMB4XDTAxMDQxOTE0NTcyMFoXDTEx
MDQxOTE0NTcyMFowdDELMAkGA1UEBhMCVVMxGjAYBgNVBAoTEVRlc3QgQ2VydGlm
aWNhdGVzMUkwRwYDVQQDE0BJbnZhbGlkIGtleVVzYWdlIENyaXRpY2FsIGtleUNl
cnRTaWduIEZhbHNlIEVFIENlcnRpZmljYXRlIFRlc3QxMIGfMA0GCSqGSIb3DQEB
AQUAA4GNADCBiQKBgQCgVfrVarIrsGAAz+ak13NJrkcspcEeCVsjrOtzHf619eeO
TDalq7iyspJxTEhn7lG7q/UazRqEp6lBu1fVFkdFBPHi1uuNtyLB80MNy0ztjPAf
Ct0/wV1jDvNbaCg/TFXflKtDTY+jcVWTOmWMwI6hZwokQ7Csbee02czrHw3gLQID
AQABo2swaTAfBgNVHSMEGDAWgBSUAbz4nHw/6JK2TckGtNNyMU46NzAdBgNVHQ4E
FgQU9ghpzs2MqUouYVwzB2XsoCyL6W8wDgYDVR0PAQH/BAQDAgTwMBcGA1UdIAQQ
MA4wDAYKYIZIAWUDAgEwATANBgkqhkiG9w0BAQUFAAOBgQADeKlzkdXLEofSM2r4
SIPYc9g0A4EXIb1h+1YhhYyiuhSRb3zpAHlvgtfDaHu/ic2pHNDRKAjHGf6349p8
OCAnqQvl9yZIvOa5/N7F13V1Ay+igdgGSPXmKRD76jX5ccQvoEQUQlA9G4P5/qaC
IonfinaLZXjcklWJuhV/XMzYWA==
-----END CERTIFICATE-----

Certificate Revocation List (CRL):
        Version 2 (0x1)
        Signature Algorithm: sha1WithRSAEncryption
        Issuer: /C=US/O=Test Certificates/CN=keyUsage Critical keyCertSign False CA
        Last Update: Apr 19 14:57:20 2001 GMT
        Next Update: Apr 19 14:57:20 2011 GMT
        CRL extensions:
            X509v3 Authority Key Identifier: 
                keyid:94:01:BC:F8:9C:7C:3F:E8:92:B6:4D:C9:06:B4:D3:72:31:4E:3A:37

            X509v3 CRL Number: 
                1
No Revoked Certificates.
    Signature Algorithm: sha1WithRSAEncryption
        37:7b:99:a3:64:09:89:d3:3b:eb:15:ec:5c:bf:4e:86:74:eb:
        de:88:f2:7e:33:ee:e1:2a:ed:04:81:bd:f3:bb:33:69:16:ca:
        f0:89:38:11:1f:5c:11:ba:83:2a:be:e4:8b:ff:12:68:c5:58:
        d4:fd:cc:fd:58:8f:49:5c:6f:2d:86:7c:1c:86:b8:b9:3b:4d:
        47:06:4d:e3:f5:d3:c4:f0:b0:e2:56:41:19:b9:a7:08:77:78:
        80:49:55:f9:7d:d7:b0:84:92:28:bb:25:e2:83:75:e2:59:a9:
        12:8c:cb:d0:7b:03:c7:30:13:c2:79:d6:c5:9c:f3:73:7d:63:
        3a:e0
-----BEGIN X509 CRL-----
MIIBUzCBvQIBATANBgkqhkiG9w0BAQUFADBaMQswCQYDVQQGEwJVUzEaMBgGA1UE
ChMRVGVzdCBDZXJ0aWZpY2F0ZXMxLzAtBgNVBAMTJmtleVVzYWdlIENyaXRpY2Fs
IGtleUNlcnRTaWduIEZhbHNlIENBFw0wMTA0MTkxNDU3MjBaFw0xMTA0MTkxNDU3
MjBaoC8wLTAfBgNVHSMEGDAWgBSUAbz4nHw/6JK2TckGtNNyMU46NzAKBgNVHRQE
AwIBATANBgkqhkiG9w0BAQUFAAOBgQA3e5mjZAmJ0zvrFexcv06GdOveiPJ+M+7h
Ku0Egb3zuzNpFsrwiTgRH1wRuoMqvuSL/xJoxVjU/cz9WI9JXG8thnwchri5O01H
Bk3j9dPE8LDiVkEZuacId3iASVX5fdewhJIouyXig3XiWakSjMvQewPHMBPCedbF
nPNzfWM64A==
-----END X509 CRL-----

Certificate Revocation List (CRL):
        Version 2 (0x1)
        Signature Algorithm: sha1WithRSAEncryption
        Issuer: /C=US/O=Test Certificates/CN=Trust Anchor
        Last Update: Apr 19 14:57:20 2001 GMT
        Next Update: Apr 19 14:57:20 2011 GMT
        CRL extensions:
            X509v3 Authority Key Identifier: 
                keyid:FB:6C:D4:2D:81:9E:CA:27:7A:9E:0D:B0:3C:EA:9A:BC:87:FF:49:EA

            X509v3 CRL Number: 
                1
Revoked Certificates:
    Serial Number: 68
        Revocation Date: Apr 19 14:57:20 2001 GMT
        CRL entry extensions:
            X509v3 CRL Reason Code: 
                Key Compromise
    Signature Algorithm: sha1WithRSAEncryption
        92:12:c4:34:b4:92:ab:ba:71:6b:74:31:16:ce:ed:25:d6:4b:
        1e:fa:f8:20:1e:9d:d7:7f:30:ed:15:f7:8b:5d:64:9b:dd:31:
        40:e4:55:0f:0c:5f:82:69:63:00:76:a5:cf:9e:c4:5f:f2:53:
        9b:9b:7d:f5:69:1d:74:57:38:70:e5:fb:5b:76:58:c9:ec:31:
        dc:94:1b:02:ee:9d:33:9c:38:4b:29:1d:e1:0c:29:8b:6e:c7:
        bf:a0:e8:40:34:83:cf:ff:9f:cd:b5:f7:d9:4d:a7:9f:2e:bf:
        44:98:6b:f2:d3:fe:a8:20:31:c1:33:76:b7:1c:19:65:4d:b9:
        14:39
-----BEGIN X509 CRL-----
MIIBXTCBxwIBATANBgkqhkiG9w0BAQUFADBAMQswCQYDVQQGEwJVUzEaMBgGA1UE
ChMRVGVzdCBDZXJ0aWZpY2F0ZXMxFTATBgNVBAMTDFRydXN0IEFuY2hvchcNMDEw
NDE5MTQ1NzIwWhcNMTEwNDE5MTQ1NzIwWjAiMCACAWgXDTAxMDQxOTE0NTcyMFow
DDAKBgNVHRUEAwoBAaAvMC0wHwYDVR0jBBgwFoAU+2zULYGeyid6ng2wPOqavIf/
SeowCgYDVR0UBAMCAQEwDQYJKoZIhvcNAQEFBQADgYEAkhLENLSSq7pxa3QxFs7t
JdZLHvr4IB6d138w7RX3i11km90xQORVDwxfgmljAHalz57EX/JTm5t99WkddFc4
cOX7W3ZYyewx3JQbAu6dM5w4Sykd4Qwpi27Hv6DoQDSDz/+fzbX32U2nny6/RJhr
8tP+qCAxwTN2txwZZU25FDk=
-----END X509 CRL-----

