subject=/C=US/O=Test Certificates/CN=No CRL CA
issuer=/C=US/O=Test Certificates/CN=Trust Anchor
-----BEGIN CERTIFICATE-----
MIICbzCCAdigAwIBAgIBBzANBgkqhkiG9w0BAQUFADBAMQswCQYDVQQGEwJVUzEa
MBgGA1UEChMRVGVzdCBDZXJ0aWZpY2F0ZXMxFTATBgNVBAMTDFRydXN0IEFuY2hv
cjAeFw0wMTA0MTkxNDU3MjBaFw0xMTA0MTkxNDU3MjBaMD0xCzAJBgNVBAYTAlVT
MRowGAYDVQQKExFUZXN0IENlcnRpZmljYXRlczESMBAGA1UEAxMJTm8gQ1JMIENB
MIGfMA0GCSqGSIb3DQEBAQUAA4GNADCBiQKBgQCvjr78zG/GobZnKabi/siuJQm7
6k5APCdB3g3SJzzlYR3ivCQg+7i1pEFgHqLLPTEHOCHunC5EedZUGzUGQX0sXAxr
KYeCqLS/s0+saOR0HBk/YsOaCwW7v6yBHA3s2XrtK8N4qJg6LdZaGEjUefMfUM7p
iVQQPpw3uAQmZuYf7wIDAQABo3wwejAfBgNVHSMEGDAWgBT7bNQtgZ7KJ3qeDbA8
6pq8h/9J6jAdBgNVHQ4EFgQUB6jzF5xOAmiWRcwRmAF9yHg/9SQwDgYDVR0PAQH/
BAQDAgEGMBcGA1UdIAQQMA4wDAYKYIZIAWUDAgEwATAPBgNVHRMBAf8EBTADAQH/
MA0GCSqGSIb3DQEBBQUAA4GBAAWDjIUq/V6y1p4vxO+A1xdmmM8c6yRveH2Lq2CM
OwmpClTYfhLpqkWwm3WSXd2VvjiPUTgTC5y7EquFuZCCZkgLDVvUW9VplIm3a6I6
dgZiOZDqnXZ5rC+CHGSszfdDo8gwjJ+vA8AV/CNSGNkkbo/ZQ1n7Ppm8dW/bS+8k
anSO
-----END CERTIFICATE-----

subject=/C=US/O=Test Certificates/CN=Invalid Missing CRL EE Certificate Test1
issuer=/C=US/O=Test Certificates/CN=No CRL CA
-----BEGIN CERTIFICATE-----
MIICejCCAeOgAwIBAgIBATANBgkqhkiG9w0BAQUFADA9MQswCQYDVQQGEwJVUzEa
MBgGA1UEChMRVGVzdCBDZXJ0aWZpY2F0ZXMxEjAQBgNVBAMTCU5vIENSTCBDQTAe
Fw0wMTA0MTkxNDU3MjBaFw0xMTA0MTkxNDU3MjBaMFwxCzAJBgNVBAYTAlVTMRow
GAYDVQQKExFUZXN0IENlcnRpZmljYXRlczExMC8GA1UEAxMoSW52YWxpZCBNaXNz
aW5nIENSTCBFRSBDZXJ0aWZpY2F0ZSBUZXN0MTCBnzANBgkqhkiG9w0BAQEFAAOB
jQAwgYkCgYEAz8OlGINaG0uEl2RAD7DtTn54qLrlCtUbCKs3O1dr9nEDDohfVU5x
nLweQfR/m7b9F17BzhHcxFYjfRh26aj4eOQcxHrpBfNMj6U87coAeJ4ERn7okfqM
lcGlHWS/Wh48iiZvnCvg4jeHhSktwMppTGKIBKmJ2S0L4yKNYCjZ32MCAwEAAaNr
MGkwHwYDVR0jBBgwFoAUB6jzF5xOAmiWRcwRmAF9yHg/9SQwHQYDVR0OBBYEFJYM
oy9aXt4kJDgRNj4KDS29NtDXMA4GA1UdDwEB/wQEAwIE8DAXBgNVHSAEEDAOMAwG
CmCGSAFlAwIBMAEwDQYJKoZIhvcNAQEFBQADgYEAlNJLCSyrRZNUza9eL2Jc6eFS
bjriRrz8ryND+rn0dnsceIVrXVApplWnVwUjfm8fjOZlNOLM4snxmzRJ+FyTR6z5
u9nK9TAEkMrGo/NinCET2Y5v4mtxj0E6hJOIaFxfkZoj1mz8BvOYgiEIYxAK65lA
BNDlWIYdh16AIUEZNAY=
-----END CERTIFICATE-----

Certificate Revocation List (CRL):
        Version 2 (0x1)
        Signature Algorithm: sha1WithRSAEncryption
        Issuer: /C=US/O=Test Certificates/CN=Trust Anchor
        Last Update: Apr 19 14:57:20 2001 GMT
        Next Update: Apr 19 14:57:20 2011 GMT
        CRL extensions:
            X509v3 Authority Key Identifier: 
                keyid:FB:6C:D4:2D:81:9E:CA:27:7A:9E:0D:B0:3C:EA:9A:BC:87:FF:49:EA

            X509v3 CRL Number: 
                1
Revoked Certificates:
    Serial Number: 68
        Revocation Date: Apr 19 14:57:20 2001 GMT
        CRL entry extensions:
            X509v3 CRL Reason Code: 
                Key Compromise
    Signature Algorithm: sha1WithRSAEncryption
        92:12:c4:34:b4:92:ab:ba:71:6b:74:31:16:ce:ed:25:d6:4b:
        1e:fa:f8:20:1e:9d:d7:7f:30:ed:15:f7:8b:5d:64:9b:dd:31:
        40:e4:55:0f:0c:5f:82:69:63:00:76:a5:cf:9e:c4:5f:f2:53:
        9b:9b:7d:f5:69:1d:74:57:38:70:e5:fb:5b:76:58:c9:ec:31:
        dc:94:1b:02:ee:9d:33:9c:38:4b:29:1d:e1:0c:29:8b:6e:c7:
        bf:a0:e8:40:34:83:cf:ff:9f:cd:b5:f7:d9:4d:a7:9f:2e:bf:
        44:98:6b:f2:d3:fe:a8:20:31:c1:33:76:b7:1c:19:65:4d:b9:
        14:39
-----BEGIN X509 CRL-----
MIIBXTCBxwIBATANBgkqhkiG9w0BAQUFADBAMQswCQYDVQQGEwJVUzEaMBgGA1UE
ChMRVGVzdCBDZXJ0aWZpY2F0ZXMxFTATBgNVBAMTDFRydXN0IEFuY2hvchcNMDEw
NDE5MTQ1NzIwWhcNMTEwNDE5MTQ1NzIwWjAiMCACAWgXDTAxMDQxOTE0NTcyMFow
DDAKBgNVHRUEAwoBAaAvMC0wHwYDVR0jBBgwFoAU+2zULYGeyid6ng2wPOqavIf/
SeowCgYDVR0UBAMCAQEwDQYJKoZIhvcNAQEFBQADgYEAkhLENLSSq7pxa3QxFs7t
JdZLHvr4IB6d138w7RX3i11km90xQORVDwxfgmljAHalz57EX/JTm5t99WkddFc4
cOX7W3ZYyewx3JQbAu6dM5w4Sykd4Qwpi27Hv6DoQDSDz/+fzbX32U2nny6/RJhr
8tP+qCAxwTN2txwZZU25FDk=
-----END X509 CRL-----

