subject=/C=US/O=Test Certificates/CN=Policies P1234 subsubCAP123P12
issuer=/C=US/O=Test Certificates/CN=Policies P1234 subCAP123
-----BEGIN CERTIFICATE-----
MIICoDCCAgmgAwIBAgIBATANBgkqhkiG9w0BAQUFADBMMQswCQYDVQQGEwJVUzEa
MBgGA1UEChMRVGVzdCBDZXJ0aWZpY2F0ZXMxITAfBgNVBAMTGFBvbGljaWVzIFAx
MjM0IHN1YkNBUDEyMzAeFw0wMTA0MTkxNDU3MjBaFw0xMTA0MTkxNDU3MjBaMFIx
CzAJBgNVBAYTAlVTMRowGAYDVQQKExFUZXN0IENlcnRpZmljYXRlczEnMCUGA1UE
AxMeUG9saWNpZXMgUDEyMzQgc3Vic3ViQ0FQMTIzUDEyMIGfMA0GCSqGSIb3DQEB
AQUAA4GNADCBiQKBgQDSpQwaDoPydLNMC8zANHGCiwSSV/p+yyB92D3cy4OofA3o
E/MneZrL0kkAoaM3sxpkniK7a37+ghg7ydyUw5n9CRxAyNMONSetp9uBB9X1+fZy
9JVVK2W+5ycWBDxh2YOfyFE/wQBbJK7rIIrqtgUgNi7O+6ppcpbnguodB17MZQID
AQABo4GLMIGIMB8GA1UdIwQYMBaAFLZ7gxmIHEmBIEPO8oJM80aGKITZMB0GA1Ud
DgQWBBTMtOdc+dU31FBVf7Ixli7kkaTEaDAOBgNVHQ8BAf8EBAMCAQYwJQYDVR0g
BB4wHDAMBgpghkgBZQMCATABMAwGCmCGSAFlAwIBMAIwDwYDVR0TAQH/BAUwAwEB
/zANBgkqhkiG9w0BAQUFAAOBgQB4KomH+VcsPxXsULBeuMVL7QtJMD6RoGaCHnL5
NCdwpt7QE3TVRnWgL88gSXtmMudJ5QIb3ko7PYOsuUhA/6YZvoBvQIdJAnprjYbr
kxDMfK3PoouD3cQncVSz4xqJ9VcIaH6/oAKGpDt36xSUY2uqOHb1DLO2qmKiStvW
Cprikw==
-----END CERTIFICATE-----

subject=/C=US/O=Test Certificates/CN=Policies P1234 subCAP123
issuer=/C=US/O=Test Certificates/CN=Policies P1234 CA
-----BEGIN CERTIFICATE-----
MIICoTCCAgqgAwIBAgIBATANBgkqhkiG9w0BAQUFADBFMQswCQYDVQQGEwJVUzEa
MBgGA1UEChMRVGVzdCBDZXJ0aWZpY2F0ZXMxGjAYBgNVBAMTEVBvbGljaWVzIFAx
MjM0IENBMB4XDTAxMDQxOTE0NTcyMFoXDTExMDQxOTE0NTcyMFowTDELMAkGA1UE
BhMCVVMxGjAYBgNVBAoTEVRlc3QgQ2VydGlmaWNhdGVzMSEwHwYDVQQDExhQb2xp
Y2llcyBQMTIzNCBzdWJDQVAxMjMwgZ8wDQYJKoZIhvcNAQEBBQADgY0AMIGJAoGB
ALs/TklxdGqU1GnW9LkoRaacXCpRHoy8tYpTUbUhznd5fkjOW5Dyc9HK7DWs8q1q
aAvU0KeqAEtguNCACjKFeXPyWtQuYKRB5o5G1WXcqy4pYK2CCHsyaa6hf8+kU1Y/
3VcEuHoDX0WFJ5JFlaRERNagLbzDTjG6KtM4yhcEnTHfAgMBAAGjgZkwgZYwHwYD
VR0jBBgwFoAUMLt5B08Db7IYg3poQ6v3TKFAcQowHQYDVR0OBBYEFLZ7gxmIHEmB
IEPO8oJM80aGKITZMA4GA1UdDwEB/wQEAwIBBjAzBgNVHSAELDAqMAwGCmCGSAFl
AwIBMAEwDAYKYIZIAWUDAgEwAjAMBgpghkgBZQMCATADMA8GA1UdEwEB/wQFMAMB
Af8wDQYJKoZIhvcNAQEFBQADgYEAM38BPBwz3qjIhPI9byaqLmDkw3tA5mxae/P9
N6WYYwW+Dm0KyjXs9SQZ3BlHDl/+D9dJYNScOXjKpc3hnrAUT31rGyhC2CwV52mt
xGukdJIxKOQgucIylxyxF7N5x66TyC5sxJGUh3sjItg6NAOQGMwBwKOz/5zNTdK6
qDuaEoI=
-----END CERTIFICATE-----

subject=/C=US/O=Test Certificates/CN=Overlapping Policies EE Certificate Test6
issuer=/C=US/O=Test Certificates/CN=Policies P1234 subsubCAP123P12
-----BEGIN CERTIFICATE-----
MIICoTCCAgqgAwIBAgIBATANBgkqhkiG9w0BAQUFADBSMQswCQYDVQQGEwJVUzEa
MBgGA1UEChMRVGVzdCBDZXJ0aWZpY2F0ZXMxJzAlBgNVBAMTHlBvbGljaWVzIFAx
MjM0IHN1YnN1YkNBUDEyM1AxMjAeFw0wMTA0MTkxNDU3MjBaFw0xMTA0MTkxNDU3
MjBaMF0xCzAJBgNVBAYTAlVTMRowGAYDVQQKExFUZXN0IENlcnRpZmljYXRlczEy
MDAGA1UEAxMpT3ZlcmxhcHBpbmcgUG9saWNpZXMgRUUgQ2VydGlmaWNhdGUgVGVz
dDYwgZ8wDQYJKoZIhvcNAQEBBQADgY0AMIGJAoGBALT4JJTriZO8+53ZvgYrbg9m
azzLgmYzgvBJ8/IvzLaXsCv7sw/M2DU/CyOdIPy8g9XchC9QBJrAI65Muvlpf8a0
CGqWH5AQElXjIkicPMgfC14xd1govVHxaRIrM/g6zNgGPnSivMXOrTm6fMNphEvC
CnG+SqRQ6oKAkO1k7jWxAgMBAAGjfDB6MB8GA1UdIwQYMBaAFMy051z51TfUUFV/
sjGWLuSRpMRoMB0GA1UdDgQWBBQLhzG1VDzXbIBJ1rnYkrn+iSfrCTAOBgNVHQ8B
Af8EBAMCAfYwFwYDVR0gBBAwDjAMBgpghkgBZQMCATABMA8GA1UdEwEB/wQFMAMB
Af8wDQYJKoZIhvcNAQEFBQADgYEACuuacGsxw8Rq6HznT/dvzsw93OA250kOCJei
8VJbyNw5x61+F9LxLZSBUtYgIfCOid3gUBe8MU0W1r8Qpg1PD4Vgq76l5IWyvH+K
ACy4A7XpJB8a5zF7OUGexEkFC9RQ45PJ6i4JILtMeMLTR7c0pCkRthg2CW/vIc6a
Cs1zrEk=
-----END CERTIFICATE-----

subject=/C=US/O=Test Certificates/CN=Policies P1234 CA
issuer=/C=US/O=Test Certificates/CN=Trust Anchor
-----BEGIN CERTIFICATE-----
MIICsTCCAhqgAwIBAgIBIzANBgkqhkiG9w0BAQUFADBAMQswCQYDVQQGEwJVUzEa
MBgGA1UEChMRVGVzdCBDZXJ0aWZpY2F0ZXMxFTATBgNVBAMTDFRydXN0IEFuY2hv
cjAeFw0wMTA0MTkxNDU3MjBaFw0xMTA0MTkxNDU3MjBaMEUxCzAJBgNVBAYTAlVT
MRowGAYDVQQKExFUZXN0IENlcnRpZmljYXRlczEaMBgGA1UEAxMRUG9saWNpZXMg
UDEyMzQgQ0EwgZ8wDQYJKoZIhvcNAQEBBQADgY0AMIGJAoGBAMUyBhDbDKsFVn2a
KCxh5Y64ZiH8OTq134EGg3NL8l0mqcA01qEhLCasHMR98sd5xKPtNEQB0kN9jf3d
Zmv4gop4bAAqPlhvkcJ/KUMPLpLdMBT+1xLAdu1yKh7eKpoIo9vfus0fjH0aOWhT
Wa7rCSuf+9I6DoDk1gC1Q9k57jDFAgMBAAGjgbUwgbIwHwYDVR0jBBgwFoAU+2zU
LYGeyid6ng2wPOqavIf/SeowHQYDVR0OBBYEFDC7eQdPA2+yGIN6aEOr90yhQHEK
MA4GA1UdDwEB/wQEAwIBBjBBBgNVHSAEOjA4MAwGCmCGSAFlAwIBMAEwDAYKYIZI
AWUDAgEwAjAMBgpghkgBZQMCATADMAwGCmCGSAFlAwIBMAQwDwYDVR0TAQH/BAUw
AwEB/zAMBgNVHSQEBTADgAEAMA0GCSqGSIb3DQEBBQUAA4GBAMoj83UxGqz/rAVr
SXl/vP2tx92XqrJj7UYRHcHHcTodTHoJ3j+m3MUHwwsoZrqvnhS1HtIqPQsoD9DD
8Qg+uHFd5EH+Js40QK7zU7mHBOI64Kl8T8xrpgcnlLgXpg2H88at02UvMTDj4Lix
ANfajLNnQx1htjJhMY3zzIgPApd+
-----END CERTIFICATE-----

Certificate Revocation List (CRL):
        Version 2 (0x1)
        Signature Algorithm: sha1WithRSAEncryption
        Issuer: /C=US/O=Test Certificates/CN=Policies P1234 CA
        Last Update: Apr 19 14:57:20 2001 GMT
        Next Update: Apr 19 14:57:20 2011 GMT
        CRL extensions:
            X509v3 Authority Key Identifier: 
                keyid:30:BB:79:07:4F:03:6F:B2:18:83:7A:68:43:AB:F7:4C:A1:40:71:0A

            X509v3 CRL Number: 
                1
No Revoked Certificates.
    Signature Algorithm: sha1WithRSAEncryption
        bb:b2:2e:86:63:50:7a:60:75:e3:ef:14:96:e2:19:21:90:ce:
        61:fe:2a:1a:d1:37:59:b0:8f:3d:fe:c3:eb:b9:87:61:3a:7a:
        f4:ef:3d:46:ce:ef:e4:a7:de:a6:7f:ff:25:1e:78:bd:df:4d:
        8b:96:70:ac:47:8c:e4:77:1c:f2:94:3f:bb:36:18:21:35:0d:
        10:d9:69:b9:80:42:d0:7e:81:15:55:df:6f:fc:50:b2:9c:b2:
        53:0d:b5:0d:6c:69:55:b7:0b:65:84:7a:13:9f:74:8f:52:49:
        58:2e:6c:bd:b7:19:b6:34:eb:d3:1d:cc:08:a9:3f:07:04:69:
        75:e6
-----BEGIN X509 CRL-----
MIIBPjCBqAIBATANBgkqhkiG9w0BAQUFADBFMQswCQYDVQQGEwJVUzEaMBgGA1UE
ChMRVGVzdCBDZXJ0aWZpY2F0ZXMxGjAYBgNVBAMTEVBvbGljaWVzIFAxMjM0IENB
Fw0wMTA0MTkxNDU3MjBaFw0xMTA0MTkxNDU3MjBaoC8wLTAfBgNVHSMEGDAWgBQw
u3kHTwNvshiDemhDq/dMoUBxCjAKBgNVHRQEAwIBATANBgkqhkiG9w0BAQUFAAOB
gQC7si6GY1B6YHXj7xSW4hkhkM5h/ioa0TdZsI89/sPruYdhOnr07z1Gzu/kp96m
f/8lHni9302LlnCsR4zkdxzylD+7NhghNQ0Q2Wm5gELQfoEVVd9v/FCynLJTDbUN
bGlVtwtlhHoTn3SPUklYLmy9txm2NOvTHcwIqT8HBGl15g==
-----END X509 CRL-----

Certificate Revocation List (CRL):
        Version 2 (0x1)
        Signature Algorithm: sha1WithRSAEncryption
        Issuer: /C=US/O=Test Certificates/CN=Policies P1234 subCAP123
        Last Update: Apr 19 14:57:20 2001 GMT
        Next Update: Apr 19 14:57:20 2011 GMT
        CRL extensions:
            X509v3 Authority Key Identifier: 
                keyid:B6:7B:83:19:88:1C:49:81:20:43:CE:F2:82:4C:F3:46:86:28:84:D9

            X509v3 CRL Number: 
                1
No Revoked Certificates.
    Signature Algorithm: sha1WithRSAEncryption
        45:d4:de:34:51:48:6a:d1:4b:e0:d7:2d:55:52:e2:e5:8d:a5:
        ee:bc:a1:c6:44:0c:9d:b7:61:cb:a2:1c:58:1d:03:a1:cd:8e:
        e5:9c:28:00:4c:07:c4:0d:ae:a3:b1:c8:aa:8e:8a:59:12:41:
        57:b6:fc:db:34:10:a8:e6:c9:cb:0e:5c:28:6f:b5:3a:00:70:
        9a:a9:ac:35:83:47:7a:02:24:69:46:26:63:29:0c:c5:51:c3:
        92:c6:c2:6d:cf:5e:b8:25:eb:d5:b6:d1:62:87:3b:9b:24:6a:
        b1:9e:33:a2:96:bb:14:74:21:ad:b7:7f:98:ab:b2:6a:25:2b:
        0b:ed
-----BEGIN X509 CRL-----
MIIBRTCBrwIBATANBgkqhkiG9w0BAQUFADBMMQswCQYDVQQGEwJVUzEaMBgGA1UE
ChMRVGVzdCBDZXJ0aWZpY2F0ZXMxITAfBgNVBAMTGFBvbGljaWVzIFAxMjM0IHN1
YkNBUDEyMxcNMDEwNDE5MTQ1NzIwWhcNMTEwNDE5MTQ1NzIwWqAvMC0wHwYDVR0j
BBgwFoAUtnuDGYgcSYEgQ87ygkzzRoYohNkwCgYDVR0UBAMCAQEwDQYJKoZIhvcN
AQEFBQADgYEARdTeNFFIatFL4NctVVLi5Y2l7ryhxkQMnbdhy6IcWB0Doc2O5Zwo
AEwHxA2uo7HIqo6KWRJBV7b82zQQqObJyw5cKG+1OgBwmqmsNYNHegIkaUYmYykM
xVHDksbCbc9euCXr1bbRYoc7myRqsZ4zopa7FHQhrbd/mKuyaiUrC+0=
-----END X509 CRL-----

Certificate Revocation List (CRL):
        Version 2 (0x1)
        Signature Algorithm: sha1WithRSAEncryption
        Issuer: /C=US/O=Test Certificates/CN=Policies P1234 subsubCAP123P12
        Last Update: Apr 19 14:57:20 2001 GMT
        Next Update: Apr 19 14:57:20 2011 GMT
        CRL extensions:
            X509v3 Authority Key Identifier: 
                keyid:CC:B4:E7:5C:F9:D5:37:D4:50:55:7F:B2:31:96:2E:E4:91:A4:C4:68

            X509v3 CRL Number: 
                1
No Revoked Certificates.
    Signature Algorithm: sha1WithRSAEncryption
        5e:89:62:c5:3b:e0:10:f8:22:cd:fd:e2:44:73:c0:23:98:67:
        89:29:67:ae:39:3b:53:4c:02:24:85:6a:37:16:1b:a0:c8:fa:
        ae:0d:02:27:ed:3c:06:8d:e2:ed:35:53:a3:06:f4:a3:ce:6d:
        63:d9:86:33:2c:95:ce:47:95:2d:7f:5a:f0:a0:68:79:5a:a8:
        aa:12:5d:79:b9:4a:bb:a2:5a:85:af:39:1d:aa:b6:a0:18:da:
        39:f6:0a:00:f1:0e:2e:fb:62:1f:6f:2d:d9:0e:b7:da:0e:a5:
        92:1f:fd:1c:60:73:7d:48:f3:9a:73:2a:14:65:78:2a:9d:7c:
        88:5a
-----BEGIN X509 CRL-----
MIIBSzCBtQIBATANBgkqhkiG9w0BAQUFADBSMQswCQYDVQQGEwJVUzEaMBgGA1UE
ChMRVGVzdCBDZXJ0aWZpY2F0ZXMxJzAlBgNVBAMTHlBvbGljaWVzIFAxMjM0IHN1
YnN1YkNBUDEyM1AxMhcNMDEwNDE5MTQ1NzIwWhcNMTEwNDE5MTQ1NzIwWqAvMC0w
HwYDVR0jBBgwFoAUzLTnXPnVN9RQVX+yMZYu5JGkxGgwCgYDVR0UBAMCAQEwDQYJ
KoZIhvcNAQEFBQADgYEAXolixTvgEPgizf3iRHPAI5hniSlnrjk7U0wCJIVqNxYb
oMj6rg0CJ+08Bo3i7TVTowb0o85tY9mGMyyVzkeVLX9a8KBoeVqoqhJdeblKu6Ja
ha85Haq2oBjaOfYKAPEOLvtiH28t2Q632g6lkh/9HGBzfUjzmnMqFGV4Kp18iFo=
-----END X509 CRL-----

Certificate Revocation List (CRL):
        Version 2 (0x1)
        Signature Algorithm: sha1WithRSAEncryption
        Issuer: /C=US/O=Test Certificates/CN=Trust Anchor
        Last Update: Apr 19 14:57:20 2001 GMT
        Next Update: Apr 19 14:57:20 2011 GMT
        CRL extensions:
            X509v3 Authority Key Identifier: 
                keyid:FB:6C:D4:2D:81:9E:CA:27:7A:9E:0D:B0:3C:EA:9A:BC:87:FF:49:EA

            X509v3 CRL Number: 
                1
Revoked Certificates:
    Serial Number: 68
        Revocation Date: Apr 19 14:57:20 2001 GMT
        CRL entry extensions:
            X509v3 CRL Reason Code: 
                Key Compromise
    Signature Algorithm: sha1WithRSAEncryption
        92:12:c4:34:b4:92:ab:ba:71:6b:74:31:16:ce:ed:25:d6:4b:
        1e:fa:f8:20:1e:9d:d7:7f:30:ed:15:f7:8b:5d:64:9b:dd:31:
        40:e4:55:0f:0c:5f:82:69:63:00:76:a5:cf:9e:c4:5f:f2:53:
        9b:9b:7d:f5:69:1d:74:57:38:70:e5:fb:5b:76:58:c9:ec:31:
        dc:94:1b:02:ee:9d:33:9c:38:4b:29:1d:e1:0c:29:8b:6e:c7:
        bf:a0:e8:40:34:83:cf:ff:9f:cd:b5:f7:d9:4d:a7:9f:2e:bf:
        44:98:6b:f2:d3:fe:a8:20:31:c1:33:76:b7:1c:19:65:4d:b9:
        14:39
-----BEGIN X509 CRL-----
MIIBXTCBxwIBATANBgkqhkiG9w0BAQUFADBAMQswCQYDVQQGEwJVUzEaMBgGA1UE
ChMRVGVzdCBDZXJ0aWZpY2F0ZXMxFTATBgNVBAMTDFRydXN0IEFuY2hvchcNMDEw
NDE5MTQ1NzIwWhcNMTEwNDE5MTQ1NzIwWjAiMCACAWgXDTAxMDQxOTE0NTcyMFow
DDAKBgNVHRUEAwoBAaAvMC0wHwYDVR0jBBgwFoAU+2zULYGeyid6ng2wPOqavIf/
SeowCgYDVR0UBAMCAQEwDQYJKoZIhvcNAQEFBQADgYEAkhLENLSSq7pxa3QxFs7t
JdZLHvr4IB6d138w7RX3i11km90xQORVDwxfgmljAHalz57EX/JTm5t99WkddFc4
cOX7W3ZYyewx3JQbAu6dM5w4Sykd4Qwpi27Hv6DoQDSDz/+fzbX32U2nny6/RJhr
8tP+qCAxwTN2txwZZU25FDk=
-----END X509 CRL-----

