subject=/C=US/O=Test Certificates/CN=Policies P12 CA
issuer=/C=US/O=Test Certificates/CN=Trust Anchor
-----BEGIN CERTIFICATE-----
MIICkzCCAfygAwIBAgIBJTANBgkqhkiG9w0BAQUFADBAMQswCQYDVQQGEwJVUzEa
MBgGA1UEChMRVGVzdCBDZXJ0aWZpY2F0ZXMxFTATBgNVBAMTDFRydXN0IEFuY2hv
cjAeFw0wMTA0MTkxNDU3MjBaFw0xMTA0MTkxNDU3MjBaMEMxCzAJBgNVBAYTAlVT
MRowGAYDVQQKExFUZXN0IENlcnRpZmljYXRlczEYMBYGA1UEAxMPUG9saWNpZXMg
UDEyIENBMIGfMA0GCSqGSIb3DQEBAQUAA4GNADCBiQKBgQC5unCMuN8PuVFWbqxO
/wnIQsciPiEo1GoKWjM6+kb9l3h6wWyWYwmst2c158qcJLY9PxaUMhqQd/SY0Tt9
WlHXVcE8rMoWSGmFxfK33UpeCtqwz9ugPSWwZkqx2lI/0ozQXgjYb0J9/EoKw1O0
CxxrdQdPQkyLD4Uxe87/MlpzsQIDAQABo4GZMIGWMB8GA1UdIwQYMBaAFPts1C2B
nsonep4NsDzqmryH/0nqMB0GA1UdDgQWBBQA42XpgdSGuccd5/MzOQZeTBGl+TAO
BgNVHQ8BAf8EBAMCAQYwJQYDVR0gBB4wHDAMBgpghkgBZQMCATABMAwGCmCGSAFl
AwIBMAIwDwYDVR0TAQH/BAUwAwEB/zAMBgNVHSQEBTADgAEAMA0GCSqGSIb3DQEB
BQUAA4GBABX9GMyAC90FH8BvpnNh6SDn2MIT7iINc4/9u64d1dxEhqogqcR58khK
btHyx8YrgbCcqUNS4Xs7ckW5k2VNAd9dG0Chc0uk6rwkv+sD1/zJi8LIGd/3cFjk
biIVYqPxb7WpKqo97V+43tMFsTqJNBSh+6W14vlP55+Ep5IlxcOm
-----END CERTIFICATE-----

subject=/C=US/O=Test Certificates/CN=User Notice Qualifier EE Certificate Test18
issuer=/C=US/O=Test Certificates/CN=Policies P12 CA
-----BEGIN CERTIFICATE-----
MIIDxTCCAy6gAwIBAgIBAzANBgkqhkiG9w0BAQUFADBDMQswCQYDVQQGEwJVUzEa
MBgGA1UEChMRVGVzdCBDZXJ0aWZpY2F0ZXMxGDAWBgNVBAMTD1BvbGljaWVzIFAx
MiBDQTAeFw0wMTA0MTkxNDU3MjBaFw0xMTA0MTkxNDU3MjBaMF8xCzAJBgNVBAYT
AlVTMRowGAYDVQQKExFUZXN0IENlcnRpZmljYXRlczE0MDIGA1UEAxMrVXNlciBO
b3RpY2UgUXVhbGlmaWVyIEVFIENlcnRpZmljYXRlIFRlc3QxODCBnzANBgkqhkiG
9w0BAQEFAAOBjQAwgYkCgYEAxkN3itGxxUqfb6j8AgRX2jxaI/oIBzr2RuZsAfon
x/XVoUmmiSxWDooZhr/PlfubyixNG5VJX2K/ukJ6gfIGMXCAqunKm8/9bXgzZB3T
i2oIgAy6WnRwKE0cgbedH6fY003jwsQNDt/HilRB+atbEJ/engTxLOIpwBcsN1qj
rg0CAwEAAaOCAaswggGnMB8GA1UdIwQYMBaAFADjZemB1Ia5xx3n8zM5Bl5MEaX5
MB0GA1UdDgQWBBT8A5L4pL/8ywpme6U8lushm7qgwzAOBgNVHQ8BAf8EBAMCBPAw
ggFTBgNVHSAEggFKMIIBRjCBnQYKYIZIAWUDAgEwATCBjjCBiwYIKwYBBQUHAgIw
fxp9cTQ6ICBUaGlzIGlzIHRoZSB1c2VyIG5vdGljZSBmcm9tIHF1YWxpZmllciA0
IGFzc29jaWF0ZWQgd2l0aCBOSVNULXRlc3QtcG9saWN5LTEuICBUaGlzIGNlcnRp
ZmljYXRlIGlzIGZvciB0ZXN0IHB1cnBvc2VzIG9ubHkwgaMGBFUdIAAwgZowgZcG
CCsGAQUFBwICMIGKGoGHcTU6ICBUaGlzIGlzIHRoZSB1c2VyIG5vdGljZSBmcm9t
IHF1YWxpZmllciA1IGFzc29jaWF0ZWQgd2l0aCBhbnlQb2xpY3kuICBUaGlzIHVz
ZXIgbm90aWNlIHNob3VsZCBiZSBhc3NvY2lhdGVkIHdpdGggTklTVC10ZXN0LXBv
bGljeS0yMA0GCSqGSIb3DQEBBQUAA4GBAGFe+mIs7y5351adHxETDUI8/Oki9cBU
9ShrYKlpGJn8K0ST8XCe3FhVI/EMMxPJ7a7cYnl/7VQjyrFH9ulMmB3zoFiwbijM
hfv2DyMPMTMB1pN57MpoBl7NEV0ze1I/u0CKcemqthj2jynTljGeLyJOCAd2Oat/
J0ohqgkjwhfW
-----END CERTIFICATE-----

Certificate Revocation List (CRL):
        Version 2 (0x1)
        Signature Algorithm: sha1WithRSAEncryption
        Issuer: /C=US/O=Test Certificates/CN=Policies P12 CA
        Last Update: Apr 19 14:57:20 2001 GMT
        Next Update: Apr 19 14:57:20 2011 GMT
        CRL extensions:
            X509v3 Authority Key Identifier: 
                keyid:00:E3:65:E9:81:D4:86:B9:C7:1D:E7:F3:33:39:06:5E:4C:11:A5:F9

            X509v3 CRL Number: 
                1
No Revoked Certificates.
    Signature Algorithm: sha1WithRSAEncryption
        a2:21:e6:6b:0b:99:66:79:2d:86:a7:9b:cd:37:9b:4d:73:1f:
        df:91:63:c4:de:55:15:53:b0:32:ac:c8:3c:bd:96:aa:ae:c9:
        4f:b2:7c:9d:40:d7:f4:5d:99:8e:fa:2b:44:2d:75:ef:01:38:
        86:c8:59:ae:e4:62:e4:83:b4:73:03:34:d1:7f:52:bc:3d:bb:
        77:7e:7c:c9:41:09:4c:08:4f:a9:7f:d9:d9:0f:bc:46:9d:05:
        70:2f:66:0b:d4:0d:80:ec:11:83:4e:1b:90:95:ad:86:02:77:
        e8:19:aa:a6:48:29:a3:9f:36:c3:ec:9a:f5:a4:9a:0b:f5:11:
        1d:72
-----BEGIN X509 CRL-----
MIIBPDCBpgIBATANBgkqhkiG9w0BAQUFADBDMQswCQYDVQQGEwJVUzEaMBgGA1UE
ChMRVGVzdCBDZXJ0aWZpY2F0ZXMxGDAWBgNVBAMTD1BvbGljaWVzIFAxMiBDQRcN
MDEwNDE5MTQ1NzIwWhcNMTEwNDE5MTQ1NzIwWqAvMC0wHwYDVR0jBBgwFoAUAONl
6YHUhrnHHefzMzkGXkwRpfkwCgYDVR0UBAMCAQEwDQYJKoZIhvcNAQEFBQADgYEA
oiHmawuZZnkthqebzTebTXMf35FjxN5VFVOwMqzIPL2Wqq7JT7J8nUDX9F2Zjvor
RC117wE4hshZruRi5IO0cwM00X9SvD27d358yUEJTAhPqX/Z2Q+8Rp0FcC9mC9QN
gOwRg04bkJWthgJ36Bmqpkgpo582w+ya9aSaC/URHXI=
-----END X509 CRL-----

Certificate Revocation List (CRL):
        Version 2 (0x1)
        Signature Algorithm: sha1WithRSAEncryption
        Issuer: /C=US/O=Test Certificates/CN=Trust Anchor
        Last Update: Apr 19 14:57:20 2001 GMT
        Next Update: Apr 19 14:57:20 2011 GMT
        CRL extensions:
            X509v3 Authority Key Identifier: 
                keyid:FB:6C:D4:2D:81:9E:CA:27:7A:9E:0D:B0:3C:EA:9A:BC:87:FF:49:EA

            X509v3 CRL Number: 
                1
Revoked Certificates:
    Serial Number: 68
        Revocation Date: Apr 19 14:57:20 2001 GMT
        CRL entry extensions:
            X509v3 CRL Reason Code: 
                Key Compromise
    Signature Algorithm: sha1WithRSAEncryption
        92:12:c4:34:b4:92:ab:ba:71:6b:74:31:16:ce:ed:25:d6:4b:
        1e:fa:f8:20:1e:9d:d7:7f:30:ed:15:f7:8b:5d:64:9b:dd:31:
        40:e4:55:0f:0c:5f:82:69:63:00:76:a5:cf:9e:c4:5f:f2:53:
        9b:9b:7d:f5:69:1d:74:57:38:70:e5:fb:5b:76:58:c9:ec:31:
        dc:94:1b:02:ee:9d:33:9c:38:4b:29:1d:e1:0c:29:8b:6e:c7:
        bf:a0:e8:40:34:83:cf:ff:9f:cd:b5:f7:d9:4d:a7:9f:2e:bf:
        44:98:6b:f2:d3:fe:a8:20:31:c1:33:76:b7:1c:19:65:4d:b9:
        14:39
-----BEGIN X509 CRL-----
MIIBXTCBxwIBATANBgkqhkiG9w0BAQUFADBAMQswCQYDVQQGEwJVUzEaMBgGA1UE
ChMRVGVzdCBDZXJ0aWZpY2F0ZXMxFTATBgNVBAMTDFRydXN0IEFuY2hvchcNMDEw
NDE5MTQ1NzIwWhcNMTEwNDE5MTQ1NzIwWjAiMCACAWgXDTAxMDQxOTE0NTcyMFow
DDAKBgNVHRUEAwoBAaAvMC0wHwYDVR0jBBgwFoAU+2zULYGeyid6ng2wPOqavIf/
SeowCgYDVR0UBAMCAQEwDQYJKoZIhvcNAQEFBQADgYEAkhLENLSSq7pxa3QxFs7t
JdZLHvr4IB6d138w7RX3i11km90xQORVDwxfgmljAHalz57EX/JTm5t99WkddFc4
cOX7W3ZYyewx3JQbAu6dM5w4Sykd4Qwpi27Hv6DoQDSDz/+fzbX32U2nny6/RJhr
8tP+qCAxwTN2txwZZU25FDk=
-----END X509 CRL-----

