subject=/C=US/O=Test Certificates/CN=User Notice Qualifier EE Certificate Test19
issuer=/C=US/O=Test Certificates/CN=Trust Anchor
-----BEGIN CERTIFICATE-----
MIID3DCCA0WgAwIBAgIBKTANBgkqhkiG9w0BAQUFADBAMQswCQYDVQQGEwJVUzEa
MBgGA1UEChMRVGVzdCBDZXJ0aWZpY2F0ZXMxFTATBgNVBAMTDFRydXN0IEFuY2hv
cjAeFw0wMTA0MTkxNDU3MjBaFw0xMTA0MTkxNDU3MjBaMF8xCzAJBgNVBAYTAlVT
MRowGAYDVQQKExFUZXN0IENlcnRpZmljYXRlczE0MDIGA1UEAxMrVXNlciBOb3Rp
Y2UgUXVhbGlmaWVyIEVFIENlcnRpZmljYXRlIFRlc3QxOTCBnzANBgkqhkiG9w0B
AQEFAAOBjQAwgYkCgYEAmkrJdJV6KkYpFv+9djQ5ybyWHKyjUB8Km9OL5bgATpab
SN8gXK6Jd/EmkSQLM58dolce8oaizez9cBhO/myxYLK4WQGi/eR1zCWhOYz75f/o
+MUwF1WFbuHvk7JcW6/0e7tI3sxdgtz2k8JDvyDZ6CH3Hb678ZfrlMMuCODEw1sC
AwEAAaOCAcUwggHBMB8GA1UdIwQYMBaAFPts1C2Bnsonep4NsDzqmryH/0nqMB0G
A1UdDgQWBBR2o4bo1PW8nDTv5jAQJQYPDPfgtTAOBgNVHQ8BAf8EBAMCBPAwggFt
BgNVHSAEggFkMIIBYDCCAVwGCmCGSAFlAwIBMAEwggFMMIIBSAYIKwYBBQUHAgIw
ggE6GoIBNnE2OiAgU2VjdGlvbiA0LjIuMS41IG9mIFJGQyAzMjgwIHN0YXRlcyB0
aGUgbWF4aW11bSBzaXplIG9mIGV4cGxpY2l0VGV4dCBpcyAyMDAgY2hhcmFjdGVy
cywgYnV0IHdhcm5zIHRoYXQgc29tZSBub24tY29uZm9ybWluZyBDQXMgZXhjZWVk
IHRoaXMgbGltaXQuICBUaHVzIFJGQyAzMjgwIHN0YXRlcyB0aGF0IGNlcnRpZmlj
YXRlIHVzZXJzIFNIT1VMRCBncmFjZWZ1bGx5IGhhbmRsZSBleHBsaWNpdFRleHQg
d2l0aCBtb3JlIHRoYW4gMjAwIGNoYXJhY3RlcnMuICBUaGlzIGV4cGxpY2l0VGV4
dCBpcyBvdmVyIDIwMCBjaGFyYWN0ZXJzIGxvbmcwDQYJKoZIhvcNAQEFBQADgYEA
J8J9A+SBJzSCvCFxcnWEMXbjUkKjp4BAEhkrRH5llfYFIwM5+QAqZTFKTvP5mhTj
eeMD/sF7Ej90V/1wRzadHnmhXe3WRwe09BUVM4Aa4b+/th9PihRNvI7x10+mAuMD
39/vWkwe5e0DTYQwe0t+8fHohmDgmJ6JkOiccJl0auE=
-----END CERTIFICATE-----

Certificate Revocation List (CRL):
        Version 2 (0x1)
        Signature Algorithm: sha1WithRSAEncryption
        Issuer: /C=US/O=Test Certificates/CN=Trust Anchor
        Last Update: Apr 19 14:57:20 2001 GMT
        Next Update: Apr 19 14:57:20 2011 GMT
        CRL extensions:
            X509v3 Authority Key Identifier: 
                keyid:FB:6C:D4:2D:81:9E:CA:27:7A:9E:0D:B0:3C:EA:9A:BC:87:FF:49:EA

            X509v3 CRL Number: 
                1
Revoked Certificates:
    Serial Number: 68
        Revocation Date: Apr 19 14:57:20 2001 GMT
        CRL entry extensions:
            X509v3 CRL Reason Code: 
                Key Compromise
    Signature Algorithm: sha1WithRSAEncryption
        92:12:c4:34:b4:92:ab:ba:71:6b:74:31:16:ce:ed:25:d6:4b:
        1e:fa:f8:20:1e:9d:d7:7f:30:ed:15:f7:8b:5d:64:9b:dd:31:
        40:e4:55:0f:0c:5f:82:69:63:00:76:a5:cf:9e:c4:5f:f2:53:
        9b:9b:7d:f5:69:1d:74:57:38:70:e5:fb:5b:76:58:c9:ec:31:
        dc:94:1b:02:ee:9d:33:9c:38:4b:29:1d:e1:0c:29:8b:6e:c7:
        bf:a0:e8:40:34:83:cf:ff:9f:cd:b5:f7:d9:4d:a7:9f:2e:bf:
        44:98:6b:f2:d3:fe:a8:20:31:c1:33:76:b7:1c:19:65:4d:b9:
        14:39
-----BEGIN X509 CRL-----
MIIBXTCBxwIBATANBgkqhkiG9w0BAQUFADBAMQswCQYDVQQGEwJVUzEaMBgGA1UE
ChMRVGVzdCBDZXJ0aWZpY2F0ZXMxFTATBgNVBAMTDFRydXN0IEFuY2hvchcNMDEw
NDE5MTQ1NzIwWhcNMTEwNDE5MTQ1NzIwWjAiMCACAWgXDTAxMDQxOTE0NTcyMFow
DDAKBgNVHRUEAwoBAaAvMC0wHwYDVR0jBBgwFoAU+2zULYGeyid6ng2wPOqavIf/
SeowCgYDVR0UBAMCAQEwDQYJKoZIhvcNAQEFBQADgYEAkhLENLSSq7pxa3QxFs7t
JdZLHvr4IB6d138w7RX3i11km90xQORVDwxfgmljAHalz57EX/JTm5t99WkddFc4
cOX7W3ZYyewx3JQbAu6dM5w4Sykd4Qwpi27Hv6DoQDSDz/+fzbX32U2nny6/RJhr
8tP+qCAxwTN2txwZZU25FDk=
-----END X509 CRL-----

