subject=/C=US/O=Test Certificates/CN=Rollover from PrintableString to UTF8String CA
issuer=/C=US/O=Test Certificates/CN=Trust Anchor
-----BEGIN CERTIFICATE-----
MIIClDCCAf2gAwIBAgIBYzANBgkqhkiG9w0BAQUFADBAMQswCQYDVQQGEwJVUzEa
MBgGA1UEChMRVGVzdCBDZXJ0aWZpY2F0ZXMxFTATBgNVBAMTDFRydXN0IEFuY2hv
cjAeFw0wMTA0MTkxNDU3MjBaFw0xMTA0MTkxNDU3MjBaMGIxCzAJBgNVBAYTAlVT
MRowGAYDVQQKExFUZXN0IENlcnRpZmljYXRlczE3MDUGA1UEAxMuUm9sbG92ZXIg
ZnJvbSBQcmludGFibGVTdHJpbmcgdG8gVVRGOFN0cmluZyBDQTCBnzANBgkqhkiG
9w0BAQEFAAOBjQAwgYkCgYEAoNL+uym7FlmTUpQwimiPNXt8IR0+KjdAFbDkTqLk
zxHkpKBqAjTWzEPRqnhsBmjPfLrS8omVrcKIOBgIbOCoRU098SYWt4/2WRbHhAKF
kauf7d7NsN4WEDXJmlqiZrJLHDihW686RcpL7luSLrlXVXT1h2dWI08VpDUNrz6P
L/cCAwEAAaN8MHowHwYDVR0jBBgwFoAU+2zULYGeyid6ng2wPOqavIf/SeowHQYD
VR0OBBYEFDeXpBvbNFU1D8m0TcZ+SxfopIk8MA4GA1UdDwEB/wQEAwIBBjAXBgNV
HSAEEDAOMAwGCmCGSAFlAwIBMAEwDwYDVR0TAQH/BAUwAwEB/zANBgkqhkiG9w0B
AQUFAAOBgQDFX488L1PqURnQTZU0RgicEAHXUj3SLP3buSF/vMC1KHZd9JPnmf2e
y1OGQ0S+B4lNX9VJEnS5f8w5bU0kcpGYQTPuFrTZvNZtN/4ZIZTLauFkEjM8sa13
0CNwd0zMj/Dl1nQ2z8/wHLnfClEFmJHTZZ39W0jD/Lfg2hQvn43Tcg==
-----END CERTIFICATE-----

subject=/C=US/O=Test Certificates/CN=Valid Rollover PrintableString to UTF8String EE Cert Test10
issuer=/C=US/O=Test Certificates/CN=Rollover from PrintableString to UTF8String CA
-----BEGIN CERTIFICATE-----
MIICsjCCAhugAwIBAgIBATANBgkqhkiG9w0BAQUFADBiMQswCQYDVQQGEwJVUzEa
MBgGA1UECgwRVGVzdCBDZXJ0aWZpY2F0ZXMxNzA1BgNVBAMMLlJvbGxvdmVyIGZy
b20gUHJpbnRhYmxlU3RyaW5nIHRvIFVURjhTdHJpbmcgQ0EwHhcNMDEwNDE5MTQ1
NzIwWhcNMTEwNDE5MTQ1NzIwWjBvMQswCQYDVQQGEwJVUzEaMBgGA1UECgwRVGVz
dCBDZXJ0aWZpY2F0ZXMxRDBCBgNVBAMMO1ZhbGlkIFJvbGxvdmVyIFByaW50YWJs
ZVN0cmluZyB0byBVVEY4U3RyaW5nIEVFIENlcnQgVGVzdDEwMIGfMA0GCSqGSIb3
DQEBAQUAA4GNADCBiQKBgQDDncK1nAho7wt1siRGXkw0eRAeI3uztOfqSwGhT1ih
XbW47ek9MiPqCRlX1RKOXve8quD7MM0ibzWjiroSxsaeM7gW91nwOZn8V+UfqmJF
CikNAA17A/y9Nk+IVx8b2VB+Kjixg9HW2ZbqJiSq4Ci9Dkz2mH9sgjI0On0OSLDq
2wIDAQABo2swaTAfBgNVHSMEGDAWgBQ3l6Qb2zRVNQ/JtE3GfksX6KSJPDAdBgNV
HQ4EFgQUdLZDDyDir0HSFv0sejwUl8S6IxwwDgYDVR0PAQH/BAQDAgTwMBcGA1Ud
IAQQMA4wDAYKYIZIAWUDAgEwATANBgkqhkiG9w0BAQUFAAOBgQAcxCi0hkgCRB1w
uurTKVDyZTQ5ttLsggNpE6uqL+mGyAk/uYcGTxNM1Wx38DDqb+yJnF6CkLRwBk2c
mEtKFVYwX3s/h+RPe+MO4WBurdVGfxpE3df2wvyYS7WOnd7iRhRirmm8LMoGPLoY
w40WU1JjVs4Mg8vHt4OpmiFXlrv7nQ==
-----END CERTIFICATE-----

Certificate Revocation List (CRL):
        Version 2 (0x1)
        Signature Algorithm: sha1WithRSAEncryption
        Issuer: /C=US/O=Test Certificates/CN=Rollover from PrintableString to UTF8String CA
        Last Update: Apr 19 14:57:20 2001 GMT
        Next Update: Apr 19 14:57:20 2011 GMT
        CRL extensions:
            X509v3 Authority Key Identifier: 
                keyid:37:97:A4:1B:DB:34:55:35:0F:C9:B4:4D:C6:7E:4B:17:E8:A4:89:3C

            X509v3 CRL Number: 
                1
No Revoked Certificates.
    Signature Algorithm: sha1WithRSAEncryption
        2a:72:92:90:cd:32:d0:c4:99:63:47:0a:9b:95:28:27:8e:04:
        1e:49:38:bc:54:a7:da:f7:2b:58:34:d8:bc:ad:3e:a4:fa:0f:
        85:84:fb:49:95:3f:7f:a0:c3:fb:94:07:2a:a9:66:44:e1:10:
        04:55:4f:dd:ba:6c:bd:f8:f9:be:0c:de:28:54:fd:cd:f4:50:
        ac:4c:9e:01:e6:92:bf:11:cd:b6:69:5d:10:f3:3d:25:f9:1e:
        7f:2d:d4:04:5e:4e:9e:b4:f2:10:94:1f:30:0d:27:4d:2f:6d:
        41:4e:31:ae:20:2a:d8:90:34:32:92:d6:1c:b1:21:99:57:2e:
        63:04
-----BEGIN X509 CRL-----
MIIBWzCBxQIBATANBgkqhkiG9w0BAQUFADBiMQswCQYDVQQGEwJVUzEaMBgGA1UE
CgwRVGVzdCBDZXJ0aWZpY2F0ZXMxNzA1BgNVBAMMLlJvbGxvdmVyIGZyb20gUHJp
bnRhYmxlU3RyaW5nIHRvIFVURjhTdHJpbmcgQ0EXDTAxMDQxOTE0NTcyMFoXDTEx
MDQxOTE0NTcyMFqgLzAtMB8GA1UdIwQYMBaAFDeXpBvbNFU1D8m0TcZ+SxfopIk8
MAoGA1UdFAQDAgEBMA0GCSqGSIb3DQEBBQUAA4GBACpykpDNMtDEmWNHCpuVKCeO
BB5JOLxUp9r3K1g02LytPqT6D4WE+0mVP3+gw/uUByqpZkThEARVT926bL34+b4M
3ihU/c30UKxMngHmkr8RzbZpXRDzPSX5Hn8t1AReTp608hCUHzANJ00vbUFOMa4g
KtiQNDKS1hyxIZlXLmME
-----END X509 CRL-----

Certificate Revocation List (CRL):
        Version 2 (0x1)
        Signature Algorithm: sha1WithRSAEncryption
        Issuer: /C=US/O=Test Certificates/CN=Trust Anchor
        Last Update: Apr 19 14:57:20 2001 GMT
        Next Update: Apr 19 14:57:20 2011 GMT
        CRL extensions:
            X509v3 Authority Key Identifier: 
                keyid:FB:6C:D4:2D:81:9E:CA:27:7A:9E:0D:B0:3C:EA:9A:BC:87:FF:49:EA

            X509v3 CRL Number: 
                1
Revoked Certificates:
    Serial Number: 68
        Revocation Date: Apr 19 14:57:20 2001 GMT
        CRL entry extensions:
            X509v3 CRL Reason Code: 
                Key Compromise
    Signature Algorithm: sha1WithRSAEncryption
        92:12:c4:34:b4:92:ab:ba:71:6b:74:31:16:ce:ed:25:d6:4b:
        1e:fa:f8:20:1e:9d:d7:7f:30:ed:15:f7:8b:5d:64:9b:dd:31:
        40:e4:55:0f:0c:5f:82:69:63:00:76:a5:cf:9e:c4:5f:f2:53:
        9b:9b:7d:f5:69:1d:74:57:38:70:e5:fb:5b:76:58:c9:ec:31:
        dc:94:1b:02:ee:9d:33:9c:38:4b:29:1d:e1:0c:29:8b:6e:c7:
        bf:a0:e8:40:34:83:cf:ff:9f:cd:b5:f7:d9:4d:a7:9f:2e:bf:
        44:98:6b:f2:d3:fe:a8:20:31:c1:33:76:b7:1c:19:65:4d:b9:
        14:39
-----BEGIN X509 CRL-----
MIIBXTCBxwIBATANBgkqhkiG9w0BAQUFADBAMQswCQYDVQQGEwJVUzEaMBgGA1UE
ChMRVGVzdCBDZXJ0aWZpY2F0ZXMxFTATBgNVBAMTDFRydXN0IEFuY2hvchcNMDEw
NDE5MTQ1NzIwWhcNMTEwNDE5MTQ1NzIwWjAiMCACAWgXDTAxMDQxOTE0NTcyMFow
DDAKBgNVHRUEAwoBAaAvMC0wHwYDVR0jBBgwFoAU+2zULYGeyid6ng2wPOqavIf/
SeowCgYDVR0UBAMCAQEwDQYJKoZIhvcNAQEFBQADgYEAkhLENLSSq7pxa3QxFs7t
JdZLHvr4IB6d138w7RX3i11km90xQORVDwxfgmljAHalz57EX/JTm5t99WkddFc4
cOX7W3ZYyewx3JQbAu6dM5w4Sykd4Qwpi27Hv6DoQDSDz/+fzbX32U2nny6/RJhr
8tP+qCAxwTN2txwZZU25FDk=
-----END X509 CRL-----

