subject=/C=US/O=Test Certificates/CN=UTF8String Case Insensitive Match CA
issuer=/C=US/O=Test Certificates/CN=Trust Anchor
-----BEGIN CERTIFICATE-----
MIICijCCAfOgAwIBAgIBZDANBgkqhkiG9w0BAQUFADBAMQswCQYDVQQGEwJVUzEa
MBgGA1UEChMRVGVzdCBDZXJ0aWZpY2F0ZXMxFTATBgNVBAMTDFRydXN0IEFuY2hv
cjAeFw0wMTA0MTkxNDU3MjBaFw0xMTA0MTkxNDU3MjBaMFgxCzAJBgNVBAYTAlVT
MRowGAYDVQQKDBFUZXN0IENlcnRpZmljYXRlczEtMCsGA1UEAwwkVVRGOFN0cmlu
ZyBDYXNlIEluc2Vuc2l0aXZlIE1hdGNoIENBMIGfMA0GCSqGSIb3DQEBAQUAA4GN
ADCBiQKBgQCaogvEpeDhTyOkM06wjnLD1JeNedm9VZ+FpIvkkhrhGKskIHcfsNfJ
EsrLnoSQIj5ocFyxY/76uaSgJcEhTpIj695mSBtyZThgQr07wSGTByiAmO3fR3if
tMzWdzP9j19QXSUZjQCBNySjtuabFoqgR9OHEmVjly+67Al3yaZDEwIDAQABo3ww
ejAfBgNVHSMEGDAWgBT7bNQtgZ7KJ3qeDbA86pq8h/9J6jAdBgNVHQ4EFgQUNmIV
KXylwtCEEMdeoxYn36lEE2IwDgYDVR0PAQH/BAQDAgEGMBcGA1UdIAQQMA4wDAYK
YIZIAWUDAgEwATAPBgNVHRMBAf8EBTADAQH/MA0GCSqGSIb3DQEBBQUAA4GBAKnn
dr5r22s30krLGaZ6Ava5zeA3jRRsq/ewoyaGn39VO/MYpqRxPdqlVqLO41PCjwTY
VjndPhVSfFsQHxANRG4TUD7MBKeNsr3eclIvzCtIb8U9dwHngXeYNlih1ufYUDZ5
z5oTq4R9mHUGu1Jz/uW9sisBRMbS+2wj+E/3yezC
-----END CERTIFICATE-----

subject=/C=US/O=Test Certificates/CN=Valid UTF8String Case Insensitive Match EE Certificate Test11
issuer=/C=US/O=  test certificates  /CN=utf8string case  insensitive match CA
-----BEGIN CERTIFICATE-----
MIICrzCCAhigAwIBAgIBATANBgkqhkiG9w0BAQUFADBdMQswCQYDVQQGEwJVUzEe
MBwGA1UECgwVICB0ZXN0IGNlcnRpZmljYXRlcyAgMS4wLAYDVQQDDCV1dGY4c3Ry
aW5nIGNhc2UgIGluc2Vuc2l0aXZlIG1hdGNoIENBMB4XDTAxMDQxOTE0NTcyMFoX
DTExMDQxOTE0NTcyMFowcTELMAkGA1UEBhMCVVMxGjAYBgNVBAoMEVRlc3QgQ2Vy
dGlmaWNhdGVzMUYwRAYDVQQDDD1WYWxpZCBVVEY4U3RyaW5nIENhc2UgSW5zZW5z
aXRpdmUgTWF0Y2ggRUUgQ2VydGlmaWNhdGUgVGVzdDExMIGfMA0GCSqGSIb3DQEB
AQUAA4GNADCBiQKBgQDsol6bNoNnlNAy2lkPsdVM02fDVB5vmtUbTN2DiXfYxICd
NtMW9orODpZLBLuhHD9L/N+amY5njVAJUpvbdU2cjFMwgn/YfQ/eDXrCDPG2FLaJ
WA0nRqHFrhBVz6MgJFtpJUz3e1Owsy3U03aq9SthFb/BBFFOtAH6mXnuBjYVTQID
AQABo2swaTAfBgNVHSMEGDAWgBQ2YhUpfKXC0IQQx16jFiffqUQTYjAdBgNVHQ4E
FgQUxMF/9KLvn9+5ABPGIN0ZEfq0S6cwDgYDVR0PAQH/BAQDAgTwMBcGA1UdIAQQ
MA4wDAYKYIZIAWUDAgEwATANBgkqhkiG9w0BAQUFAAOBgQCLnWS00RFXZcbBCM15
7+vQE5xrZp4AH8MhcC5CCS7C5F6JkHPcXT5OnCCN+d0cmCCTgolBi+AndeXwen9O
y/2uq63SVqP/H67rcyoxaGeqSxxZqbowZqboUMBLinSyMq/coqnGbiNjK+K7xXqR
borsQCmKGqvst1rn2LPNKfKRCA==
-----END CERTIFICATE-----

Certificate Revocation List (CRL):
        Version 2 (0x1)
        Signature Algorithm: sha1WithRSAEncryption
        Issuer: /C=US/O=Test Certificates/CN=UTF8String Case Insensitive Match CA
        Last Update: Apr 19 14:57:20 2001 GMT
        Next Update: Apr 19 14:57:20 2011 GMT
        CRL extensions:
            X509v3 Authority Key Identifier: 
                keyid:36:62:15:29:7C:A5:C2:D0:84:10:C7:5E:A3:16:27:DF:A9:44:13:62

            X509v3 CRL Number: 
                1
No Revoked Certificates.
    Signature Algorithm: sha1WithRSAEncryption
        32:f5:46:0f:c0:5a:10:87:86:95:df:18:69:d7:c8:99:4c:84:
        5f:f7:1a:e8:c7:66:27:41:73:a4:72:f6:09:66:a9:f7:cd:62:
        22:87:dd:24:94:77:c1:38:e3:9c:cc:70:64:29:b7:d9:76:94:
        59:d7:26:43:86:35:63:6b:0b:81:a4:1d:d4:4f:7d:87:6a:b6:
        bc:68:34:9b:ad:d0:1c:34:3b:72:7c:7f:25:b2:19:03:a1:24:
        ee:ef:d3:3c:a6:21:cd:79:11:70:d4:6d:5d:c6:67:14:39:17:
        e2:23:30:76:5b:f7:b5:4e:ce:ed:3e:57:2e:58:1d:cc:ec:ed:
        b5:52
-----BEGIN X509 CRL-----
MIIBUTCBuwIBATANBgkqhkiG9w0BAQUFADBYMQswCQYDVQQGEwJVUzEaMBgGA1UE
CgwRVGVzdCBDZXJ0aWZpY2F0ZXMxLTArBgNVBAMMJFVURjhTdHJpbmcgQ2FzZSBJ
bnNlbnNpdGl2ZSBNYXRjaCBDQRcNMDEwNDE5MTQ1NzIwWhcNMTEwNDE5MTQ1NzIw
WqAvMC0wHwYDVR0jBBgwFoAUNmIVKXylwtCEEMdeoxYn36lEE2IwCgYDVR0UBAMC
AQEwDQYJKoZIhvcNAQEFBQADgYEAMvVGD8BaEIeGld8YadfImUyEX/ca6MdmJ0Fz
pHL2CWap981iIofdJJR3wTjjnMxwZCm32XaUWdcmQ4Y1Y2sLgaQd1E99h2q2vGg0
m63QHDQ7cnx/JbIZA6Ek7u/TPKYhzXkRcNRtXcZnFDkX4iMwdlv3tU7O7T5XLlgd
zOzttVI=
-----END X509 CRL-----

Certificate Revocation List (CRL):
        Version 2 (0x1)
        Signature Algorithm: sha1WithRSAEncryption
        Issuer: /C=US/O=Test Certificates/CN=Trust Anchor
        Last Update: Apr 19 14:57:20 2001 GMT
        Next Update: Apr 19 14:57:20 2011 GMT
        CRL extensions:
            X509v3 Authority Key Identifier: 
                keyid:FB:6C:D4:2D:81:9E:CA:27:7A:9E:0D:B0:3C:EA:9A:BC:87:FF:49:EA

            X509v3 CRL Number: 
                1
Revoked Certificates:
    Serial Number: 68
        Revocation Date: Apr 19 14:57:20 2001 GMT
        CRL entry extensions:
            X509v3 CRL Reason Code: 
                Key Compromise
    Signature Algorithm: sha1WithRSAEncryption
        92:12:c4:34:b4:92:ab:ba:71:6b:74:31:16:ce:ed:25:d6:4b:
        1e:fa:f8:20:1e:9d:d7:7f:30:ed:15:f7:8b:5d:64:9b:dd:31:
        40:e4:55:0f:0c:5f:82:69:63:00:76:a5:cf:9e:c4:5f:f2:53:
        9b:9b:7d:f5:69:1d:74:57:38:70:e5:fb:5b:76:58:c9:ec:31:
        dc:94:1b:02:ee:9d:33:9c:38:4b:29:1d:e1:0c:29:8b:6e:c7:
        bf:a0:e8:40:34:83:cf:ff:9f:cd:b5:f7:d9:4d:a7:9f:2e:bf:
        44:98:6b:f2:d3:fe:a8:20:31:c1:33:76:b7:1c:19:65:4d:b9:
        14:39
-----BEGIN X509 CRL-----
MIIBXTCBxwIBATANBgkqhkiG9w0BAQUFADBAMQswCQYDVQQGEwJVUzEaMBgGA1UE
ChMRVGVzdCBDZXJ0aWZpY2F0ZXMxFTATBgNVBAMTDFRydXN0IEFuY2hvchcNMDEw
NDE5MTQ1NzIwWhcNMTEwNDE5MTQ1NzIwWjAiMCACAWgXDTAxMDQxOTE0NTcyMFow
DDAKBgNVHRUEAwoBAaAvMC0wHwYDVR0jBBgwFoAU+2zULYGeyid6ng2wPOqavIf/
SeowCgYDVR0UBAMCAQEwDQYJKoZIhvcNAQEFBQADgYEAkhLENLSSq7pxa3QxFs7t
JdZLHvr4IB6d138w7RX3i11km90xQORVDwxfgmljAHalz57EX/JTm5t99WkddFc4
cOX7W3ZYyewx3JQbAu6dM5w4Sykd4Qwpi27Hv6DoQDSDz/+fzbX32U2nny6/RJhr
8tP+qCAxwTN2txwZZU25FDk=
-----END X509 CRL-----

