subject=/C=US/O=Test Certificates/CN=pathLenConstraint1 CA
issuer=/C=US/O=Test Certificates/CN=Trust Anchor
-----BEGIN CERTIFICATE-----
MIICfjCCAeegAwIBAgIBHDANBgkqhkiG9w0BAQUFADBAMQswCQYDVQQGEwJVUzEa
MBgGA1UEChMRVGVzdCBDZXJ0aWZpY2F0ZXMxFTATBgNVBAMTDFRydXN0IEFuY2hv
cjAeFw0wMTA0MTkxNDU3MjBaFw0xMTA0MTkxNDU3MjBaMEkxCzAJBgNVBAYTAlVT
MRowGAYDVQQKExFUZXN0IENlcnRpZmljYXRlczEeMBwGA1UEAxMVcGF0aExlbkNv
bnN0cmFpbnQxIENBMIGfMA0GCSqGSIb3DQEBAQUAA4GNADCBiQKBgQDZDGq53SMD
2pj9pTu5VRCJI+Vm8LxSBkYdxD0jc4IKrbJH1NRh5XCcfeAbJaQ46UJFGEPMa92B
GOSF60SQg5oIXBDTA/ygWIPFFbfStUt//heg1BfHUHRf14z8JL0HzXDG6xnd+2yK
FzLzKFu1zexVpeT6nFQr0rjeslXftjJO5wIDAQABo38wfTAfBgNVHSMEGDAWgBT7
bNQtgZ7KJ3qeDbA86pq8h/9J6jAdBgNVHQ4EFgQU2nOT4PBlmX3Dv7AfJg72Fi0x
NVkwDgYDVR0PAQH/BAQDAgEGMBcGA1UdIAQQMA4wDAYKYIZIAWUDAgEwATASBgNV
HRMBAf8ECDAGAQH/AgEBMA0GCSqGSIb3DQEBBQUAA4GBAFm1ZyLmtGk/Ml/36K/q
S3bdDJ4PWyY0OsgJBm4jiiYU7QvQ5G7cyfPW4h8EBaPOg4HSUGJJdqQQdP89e9WS
JTFOlLoPT910pCDXbuEjILFrPh54Gv0ydO31Yc8Un/Do/qEraDgWzjNU9s/BAJKx
zeFg0ajkR1p+VLGzDM+n2aQI
-----END CERTIFICATE-----

subject=/C=US/O=Test Certificates/CN=pathLenConstraint1 CA
issuer=/C=US/O=Test Certificates/CN=pathLenConstraint1 CA
-----BEGIN CERTIFICATE-----
MIIChDCCAe2gAwIBAgIBATANBgkqhkiG9w0BAQUFADBJMQswCQYDVQQGEwJVUzEa
MBgGA1UEChMRVGVzdCBDZXJ0aWZpY2F0ZXMxHjAcBgNVBAMTFXBhdGhMZW5Db25z
dHJhaW50MSBDQTAeFw0wMTA0MTkxNDU3MjBaFw0xMTA0MTkxNDU3MjBaMEkxCzAJ
BgNVBAYTAlVTMRowGAYDVQQKExFUZXN0IENlcnRpZmljYXRlczEeMBwGA1UEAxMV
cGF0aExlbkNvbnN0cmFpbnQxIENBMIGfMA0GCSqGSIb3DQEBAQUAA4GNADCBiQKB
gQDEsgspeWC5HV95asByD3T2Xp92XyIayyvxljyNsuyivQG/zdHVuW0QqDbM9+ua
rkOgDpqwN93uEtbRdQqq4u0MZ2GXR4k6ZduPsubfFKXBKdgvLBoSm1qhOdO1m7BC
GYe/0e+uiTYZGfLbJCqUuDraLY/o58qeKUHln2Ex8G4wAQIDAQABo3wwejAfBgNV
HSMEGDAWgBTac5Pg8GWZfcO/sB8mDvYWLTE1WTAdBgNVHQ4EFgQUC9dNxXZ6/vA1
xTWKZjIu1jdIF2owDgYDVR0PAQH/BAQDAgEGMBcGA1UdIAQQMA4wDAYKYIZIAWUD
AgEwATAPBgNVHRMBAf8EBTADAQH/MA0GCSqGSIb3DQEBBQUAA4GBADwD62Ebsv+1
RcA3YIonWoTkrnKU9YGmmJf5S9ytmc6cT3phWRpY/sOl+Y0pNRvDsKJeew9ggQWD
f77Pp+ACX2HvWwSHzclox2iCkxNyX0aNAxa9xun2zKGm2j1Ncb/D2mE9CQemmn0n
1GxEkjg7psCUxl2FwuTTmRR9UquMxjg8
-----END CERTIFICATE-----

subject=/C=US/O=Test Certificates/CN=pathLenConstraint1 subCA
issuer=/C=US/O=Test Certificates/CN=pathLenConstraint1 CA
-----BEGIN CERTIFICATE-----
MIIChzCCAfCgAwIBAgIBAjANBgkqhkiG9w0BAQUFADBJMQswCQYDVQQGEwJVUzEa
MBgGA1UEChMRVGVzdCBDZXJ0aWZpY2F0ZXMxHjAcBgNVBAMTFXBhdGhMZW5Db25z
dHJhaW50MSBDQTAeFw0wMTA0MTkxNDU3MjBaFw0xMTA0MTkxNDU3MjBaMEwxCzAJ
BgNVBAYTAlVTMRowGAYDVQQKExFUZXN0IENlcnRpZmljYXRlczEhMB8GA1UEAxMY
cGF0aExlbkNvbnN0cmFpbnQxIHN1YkNBMIGfMA0GCSqGSIb3DQEBAQUAA4GNADCB
iQKBgQCp1Y+dMUczZ1H6dsRs9hr8yLDsu+xA1vSG+vHgAEPkfkhzItj+7N02gtua
ye1hSXd/x5xNHOTWUK0CDY2YnHBpqmVO3nMIYmX40BbsRl8eQiEYQS7ES+URwrbW
LHC23HLYn/R42TA1lkwp3HUa4Nu4eUEXKRMbCVfpxAE0h6brIQIDAQABo3wwejAf
BgNVHSMEGDAWgBQL103Fdnr+8DXFNYpmMi7WN0gXajAdBgNVHQ4EFgQUYXPbCWI1
alu4YhJII+f4K948S9swDgYDVR0PAQH/BAQDAgEGMBcGA1UdIAQQMA4wDAYKYIZI
AWUDAgEwATAPBgNVHRMBAf8EBTADAQH/MA0GCSqGSIb3DQEBBQUAA4GBAB0eGyRF
KEbsyDnKd8pB+6YhJjQBcdZl9AGLASF4jPmFj2iXuF7gr5rT3UTvquUeEJamAZc1
L3pHiaPZnxbVJ8hTSD4eUF0YMDd+PzboODwLeBS/5AmWQ0O5qiohjgFTMUq3uvkf
RWemBcsCiI1KenbGIFTJaNEWKdPrsOrocVJw
-----END CERTIFICATE-----

subject=/C=US/O=Test Certificates/CN=pathLenConstraint1 subCA
issuer=/C=US/O=Test Certificates/CN=pathLenConstraint1 subCA
-----BEGIN CERTIFICATE-----
MIICijCCAfOgAwIBAgIBATANBgkqhkiG9w0BAQUFADBMMQswCQYDVQQGEwJVUzEa
MBgGA1UEChMRVGVzdCBDZXJ0aWZpY2F0ZXMxITAfBgNVBAMTGHBhdGhMZW5Db25z
dHJhaW50MSBzdWJDQTAeFw0wMTA0MTkxNDU3MjBaFw0xMTA0MTkxNDU3MjBaMEwx
CzAJBgNVBAYTAlVTMRowGAYDVQQKExFUZXN0IENlcnRpZmljYXRlczEhMB8GA1UE
AxMYcGF0aExlbkNvbnN0cmFpbnQxIHN1YkNBMIGfMA0GCSqGSIb3DQEBAQUAA4GN
ADCBiQKBgQCvkVm0hGNZvdPCElTss6nzgzq7tC28/UHHYKozUaenLdgSaARQnZyi
w3O5hCVSCtOMmUog52Av5lbkjZxVhCTaWKfrBuPDE2FJSsz2RczG+89ho8676aQ9
Y5tTt3/mECuV21fCVjRh3IU6O6gTGgPSOxmOyE/lMDXTYFYgsfF7kwIDAQABo3ww
ejAfBgNVHSMEGDAWgBRhc9sJYjVqW7hiEkgj5/gr3jxL2zAdBgNVHQ4EFgQUVVEA
f8ZkXgn1BiXGzZK3mreZsTgwDgYDVR0PAQH/BAQDAgEGMBcGA1UdIAQQMA4wDAYK
YIZIAWUDAgEwATAPBgNVHRMBAf8EBTADAQH/MA0GCSqGSIb3DQEBBQUAA4GBAJNK
lQDUQElDsFY24HDYmUDNg4Vg/CkEB2M9JfI5yZYlOKJrjzECJCY219NFeL9TcyD3
bJY36GS1ZMz/MI9ocVTU0K5ssZqV4IkBI9hXCFlb+kw5jSgO30RoxXm+Nb0nvzUC
s5kRJVI8Rdm4ONIstsOmX7w7LBMWrgCPBOZN6zkl
-----END CERTIFICATE-----

subject=/C=US/O=Test Certificates/CN=Valid Self-Issued pathLenConstraint EE Certificate Test17
issuer=/C=US/O=Test Certificates/CN=pathLenConstraint1 subCA
-----BEGIN CERTIFICATE-----
MIICmjCCAgOgAwIBAgIBAjANBgkqhkiG9w0BAQUFADBMMQswCQYDVQQGEwJVUzEa
MBgGA1UEChMRVGVzdCBDZXJ0aWZpY2F0ZXMxITAfBgNVBAMTGHBhdGhMZW5Db25z
dHJhaW50MSBzdWJDQTAeFw0wMTA0MTkxNDU3MjBaFw0xMTA0MTkxNDU3MjBaMG0x
CzAJBgNVBAYTAlVTMRowGAYDVQQKExFUZXN0IENlcnRpZmljYXRlczFCMEAGA1UE
AxM5VmFsaWQgU2VsZi1Jc3N1ZWQgcGF0aExlbkNvbnN0cmFpbnQgRUUgQ2VydGlm
aWNhdGUgVGVzdDE3MIGfMA0GCSqGSIb3DQEBAQUAA4GNADCBiQKBgQDNwtcQ87sc
VaUKAcu3QxtBteOc29FtwvZtv86nDNlJ91gIoFTUq1jKdkWcExlR8lh+Ye0QfIRB
NIDkDs7+2WB/BwJLNMpaEXDh0qETy/SW3uDN0sOX2H3ik97y0xD5ayXquEXTqgIs
fNtXesmjTnBt3iitX1DkPwrjuJmQf+co7QIDAQABo2swaTAfBgNVHSMEGDAWgBRV
UQB/xmReCfUGJcbNkreat5mxODAdBgNVHQ4EFgQUOloj8eT4jSRn3dhhzDfEX13r
FrswDgYDVR0PAQH/BAQDAgTwMBcGA1UdIAQQMA4wDAYKYIZIAWUDAgEwATANBgkq
hkiG9w0BAQUFAAOBgQA8hwBcf4CCZAko0xnD1MoTNUBfjdvDcXZB+bTB3jnbDXE5
zSid6bUVBNo+awlLpnQw3drsAgI1G9TcgFOEslX2n4nMP4FZAxsjpyDPSA7Wdj+t
xb8/kI5UhKZTjNYIL/LXpfWMvzhiMhTzha8PFxoGFM5hGYMXqh0kK/0zhThOEQ==
-----END CERTIFICATE-----

Certificate Revocation List (CRL):
        Version 2 (0x1)
        Signature Algorithm: sha1WithRSAEncryption
        Issuer: /C=US/O=Test Certificates/CN=pathLenConstraint1 CA
        Last Update: Apr 19 14:57:20 2001 GMT
        Next Update: Apr 19 14:57:20 2011 GMT
        CRL extensions:
            X509v3 Authority Key Identifier: 
                keyid:DA:73:93:E0:F0:65:99:7D:C3:BF:B0:1F:26:0E:F6:16:2D:31:35:59

            X509v3 CRL Number: 
                1
No Revoked Certificates.
    Signature Algorithm: sha1WithRSAEncryption
        b4:8c:0a:8a:f7:34:0c:91:f2:7f:29:9a:e6:6f:dc:e6:a2:3d:
        90:31:96:5b:53:0d:2b:cd:51:e4:d9:dc:b8:f2:4a:1d:b2:e8:
        5e:93:60:85:16:53:48:ef:99:f5:13:20:34:84:95:88:1d:df:
        30:94:e4:e7:71:fa:f2:eb:f8:e4:50:6c:fb:7c:e3:b7:29:e6:
        91:b7:5e:70:f5:c0:29:ed:50:6c:4d:20:b7:79:e4:a5:63:8f:
        ec:d7:1b:ac:9f:4a:4c:d9:44:3e:f3:17:fa:5a:f6:2f:b5:f2:
        51:f3:b2:82:90:c7:4a:93:8b:27:7a:a8:a1:00:a8:26:3a:eb:
        ef:4d
-----BEGIN X509 CRL-----
MIIBQjCBrAIBATANBgkqhkiG9w0BAQUFADBJMQswCQYDVQQGEwJVUzEaMBgGA1UE
ChMRVGVzdCBDZXJ0aWZpY2F0ZXMxHjAcBgNVBAMTFXBhdGhMZW5Db25zdHJhaW50
MSBDQRcNMDEwNDE5MTQ1NzIwWhcNMTEwNDE5MTQ1NzIwWqAvMC0wHwYDVR0jBBgw
FoAU2nOT4PBlmX3Dv7AfJg72Fi0xNVkwCgYDVR0UBAMCAQEwDQYJKoZIhvcNAQEF
BQADgYEAtIwKivc0DJHyfyma5m/c5qI9kDGWW1MNK81R5NncuPJKHbLoXpNghRZT
SO+Z9RMgNISViB3fMJTk53H68uv45FBs+3zjtynmkbdecPXAKe1QbE0gt3nkpWOP
7NcbrJ9KTNlEPvMX+lr2L7XyUfOygpDHSpOLJ3qooQCoJjrr700=
-----END X509 CRL-----

Certificate Revocation List (CRL):
        Version 2 (0x1)
        Signature Algorithm: sha1WithRSAEncryption
        Issuer: /C=US/O=Test Certificates/CN=pathLenConstraint1 subCA
        Last Update: Apr 19 14:57:20 2001 GMT
        Next Update: Apr 19 14:57:20 2011 GMT
        CRL extensions:
            X509v3 Authority Key Identifier: 
                keyid:61:73:DB:09:62:35:6A:5B:B8:62:12:48:23:E7:F8:2B:DE:3C:4B:DB

            X509v3 CRL Number: 
                1
No Revoked Certificates.
    Signature Algorithm: sha1WithRSAEncryption
        a7:22:08:25:d7:e6:5b:3e:63:fa:c3:8f:f2:bd:64:39:45:75:
        ec:4c:5f:19:85:38:ca:9c:99:03:95:9b:4a:d1:93:62:04:28:
        bd:18:a9:79:27:31:d8:41:38:7a:c8:ae:81:5a:42:25:e8:46:
        84:31:cf:e8:38:ad:f3:a4:3e:a8:4d:71:cc:37:18:89:14:5a:
        5b:7f:3e:a0:ad:6f:95:7d:34:1f:3b:6f:ff:a4:a3:58:14:d7:
        c7:58:e2:d3:bf:33:3d:bd:59:f3:7b:63:fc:57:ab:62:f3:06:
        27:72:a7:9c:6d:0f:b4:37:12:0b:8a:02:3b:e0:47:3b:23:a0:
        6e:3a
-----BEGIN X509 CRL-----
MIIBRTCBrwIBATANBgkqhkiG9w0BAQUFADBMMQswCQYDVQQGEwJVUzEaMBgGA1UE
ChMRVGVzdCBDZXJ0aWZpY2F0ZXMxITAfBgNVBAMTGHBhdGhMZW5Db25zdHJhaW50
MSBzdWJDQRcNMDEwNDE5MTQ1NzIwWhcNMTEwNDE5MTQ1NzIwWqAvMC0wHwYDVR0j
BBgwFoAUYXPbCWI1alu4YhJII+f4K948S9swCgYDVR0UBAMCAQEwDQYJKoZIhvcN
AQEFBQADgYEApyIIJdfmWz5j+sOP8r1kOUV17ExfGYU4ypyZA5WbStGTYgQovRip
eScx2EE4esiugVpCJehGhDHP6Dit86Q+qE1xzDcYiRRaW38+oK1vlX00Hztv/6Sj
WBTXx1ji078zPb1Z83tj/FerYvMGJ3KnnG0PtDcSC4oCO+BHOyOgbjo=
-----END X509 CRL-----

Certificate Revocation List (CRL):
        Version 2 (0x1)
        Signature Algorithm: sha1WithRSAEncryption
        Issuer: /C=US/O=Test Certificates/CN=Trust Anchor
        Last Update: Apr 19 14:57:20 2001 GMT
        Next Update: Apr 19 14:57:20 2011 GMT
        CRL extensions:
            X509v3 Authority Key Identifier: 
                keyid:FB:6C:D4:2D:81:9E:CA:27:7A:9E:0D:B0:3C:EA:9A:BC:87:FF:49:EA

            X509v3 CRL Number: 
                1
Revoked Certificates:
    Serial Number: 68
        Revocation Date: Apr 19 14:57:20 2001 GMT
        CRL entry extensions:
            X509v3 CRL Reason Code: 
                Key Compromise
    Signature Algorithm: sha1WithRSAEncryption
        92:12:c4:34:b4:92:ab:ba:71:6b:74:31:16:ce:ed:25:d6:4b:
        1e:fa:f8:20:1e:9d:d7:7f:30:ed:15:f7:8b:5d:64:9b:dd:31:
        40:e4:55:0f:0c:5f:82:69:63:00:76:a5:cf:9e:c4:5f:f2:53:
        9b:9b:7d:f5:69:1d:74:57:38:70:e5:fb:5b:76:58:c9:ec:31:
        dc:94:1b:02:ee:9d:33:9c:38:4b:29:1d:e1:0c:29:8b:6e:c7:
        bf:a0:e8:40:34:83:cf:ff:9f:cd:b5:f7:d9:4d:a7:9f:2e:bf:
        44:98:6b:f2:d3:fe:a8:20:31:c1:33:76:b7:1c:19:65:4d:b9:
        14:39
-----BEGIN X509 CRL-----
MIIBXTCBxwIBATANBgkqhkiG9w0BAQUFADBAMQswCQYDVQQGEwJVUzEaMBgGA1UE
ChMRVGVzdCBDZXJ0aWZpY2F0ZXMxFTATBgNVBAMTDFRydXN0IEFuY2hvchcNMDEw
NDE5MTQ1NzIwWhcNMTEwNDE5MTQ1NzIwWjAiMCACAWgXDTAxMDQxOTE0NTcyMFow
DDAKBgNVHRUEAwoBAaAvMC0wHwYDVR0jBBgwFoAU+2zULYGeyid6ng2wPOqavIf/
SeowCgYDVR0UBAMCAQEwDQYJKoZIhvcNAQEFBQADgYEAkhLENLSSq7pxa3QxFs7t
JdZLHvr4IB6d138w7RX3i11km90xQORVDwxfgmljAHalz57EX/JTm5t99WkddFc4
cOX7W3ZYyewx3JQbAu6dM5w4Sykd4Qwpi27Hv6DoQDSDz/+fzbX32U2nny6/RJhr
8tP+qCAxwTN2txwZZU25FDk=
-----END X509 CRL-----

