subject=/C=US/O=Test Certificates/CN=Valid inhibitAnyPolicy EE Certificate Test2
issuer=/C=US/O=Test Certificates/CN=inhibitAnyPolicy0 CA
-----BEGIN CERTIFICATE-----
MIICkDCCAfmgAwIBAgIBAjANBgkqhkiG9w0BAQUFADBIMQswCQYDVQQGEwJVUzEa
MBgGA1UEChMRVGVzdCBDZXJ0aWZpY2F0ZXMxHTAbBgNVBAMTFGluaGliaXRBbnlQ
b2xpY3kwIENBMB4XDTAxMDQxOTE0NTcyMFoXDTExMDQxOTE0NTcyMFowXzELMAkG
A1UEBhMCVVMxGjAYBgNVBAoTEVRlc3QgQ2VydGlmaWNhdGVzMTQwMgYDVQQDEytW
YWxpZCBpbmhpYml0QW55UG9saWN5IEVFIENlcnRpZmljYXRlIFRlc3QyMIGfMA0G
CSqGSIb3DQEBAQUAA4GNADCBiQKBgQC8K1Na64KAEx4DG90CIYdXjn9QXftZ/JmM
hJ7HZotijcxTLAJ3Sz0718AcEoSXtaXQlkw/PDRF6WOd0BjcLM6qzWEkQTWBWyW2
EOBRbJ8UY8XRijBsOG7ay1rZEV4bomd/6xnNG6TznXujwmBXQZDp2Voyil8OgJiv
uf+gY0BrnQIDAQABo3MwcTAfBgNVHSMEGDAWgBSdQJhgCObI/VzR2C8L6gDsGkUG
zzAdBgNVHQ4EFgQUutY+X7TkU+FzLalrhov3rioWEiYwDgYDVR0PAQH/BAQDAgTw
MB8GA1UdIAQYMBYwBgYEVR0gADAMBgpghkgBZQMCATABMA0GCSqGSIb3DQEBBQUA
A4GBAK2mBSjdik46DSR2Cn9O53Wk3uL54jZEHmH1jLi8eD7zxOU8eE23HWch+P9w
swVaUJ4SqZfrgpV4+IJ72AMPGXKnAEn633uoNXbe8KFErSzMe3p+fFI4iKt2tMdG
yPprehhYqGlG4KK5IHzgqcsfYZc989GcPE+Z679GnioPK8Mk
-----END CERTIFICATE-----

subject=/C=US/O=Test Certificates/CN=inhibitAnyPolicy0 CA
issuer=/C=US/O=Test Certificates/CN=Trust Anchor
-----BEGIN CERTIFICATE-----
MIICmTCCAgKgAwIBAgIBOzANBgkqhkiG9w0BAQUFADBAMQswCQYDVQQGEwJVUzEa
MBgGA1UEChMRVGVzdCBDZXJ0aWZpY2F0ZXMxFTATBgNVBAMTDFRydXN0IEFuY2hv
cjAeFw0wMTA0MTkxNDU3MjBaFw0xMTA0MTkxNDU3MjBaMEgxCzAJBgNVBAYTAlVT
MRowGAYDVQQKExFUZXN0IENlcnRpZmljYXRlczEdMBsGA1UEAxMUaW5oaWJpdEFu
eVBvbGljeTAgQ0EwgZ8wDQYJKoZIhvcNAQEBBQADgY0AMIGJAoGBALXCzoaXAEbX
pgMPDk3SCu2nzrt+I18MsI4lg/0oLjQAgPsD0np8LOGHMzo3UBtfJtpV0BXCc+E+
+Ni+ehXFWfA4BXjFc3GdUdJmn7y3F9X7XSIauTE1GSYR2+bMW/IRbmjpMDzldmRs
WNb40N+jWAxw1h+YN61Pv0MD7Ef2ds0NAgMBAAGjgZowgZcwHwYDVR0jBBgwFoAU
+2zULYGeyid6ng2wPOqavIf/SeowHQYDVR0OBBYEFJ1AmGAI5sj9XNHYLwvqAOwa
RQbPMA4GA1UdDwEB/wQEAwIBBjAXBgNVHSAEEDAOMAwGCmCGSAFlAwIBMAEwDwYD
VR0TAQH/BAUwAwEB/zAMBgNVHSQEBTADgAEAMA0GA1UdNgEB/wQDAgEAMA0GCSqG
SIb3DQEBBQUAA4GBALhhUDb9VolIM2bKpbpat4dNjGrkOmVT/HvGBl+FGwSXa7Mj
cLgZ3WygZ9gil3l7X+wL7lM9zKpXljV5WNpX+58RclQ2kK7Yk4qcY0tpPEUn8R4/
9yg64Nferl/2gn9W79ODU3BiBFF/GiAJJ4SiwvLWl/JnPDoQuJv67IS24+Oa
-----END CERTIFICATE-----

Certificate Revocation List (CRL):
        Version 2 (0x1)
        Signature Algorithm: sha1WithRSAEncryption
        Issuer: /C=US/O=Test Certificates/CN=inhibitAnyPolicy0 CA
        Last Update: Apr 19 14:57:20 2001 GMT
        Next Update: Apr 19 14:57:20 2011 GMT
        CRL extensions:
            X509v3 Authority Key Identifier: 
                keyid:9D:40:98:60:08:E6:C8:FD:5C:D1:D8:2F:0B:EA:00:EC:1A:45:06:CF

            X509v3 CRL Number: 
                1
No Revoked Certificates.
    Signature Algorithm: sha1WithRSAEncryption
        60:ab:a2:8a:e3:22:04:cb:95:4a:c5:ca:68:46:70:0a:d0:31:
        b0:98:cc:ad:4b:23:8c:3e:fc:b4:c7:7a:93:0d:6a:31:68:c4:
        ff:30:37:7b:5c:48:01:6d:e1:85:f7:d0:9b:73:53:ca:62:36:
        00:5c:29:c8:af:a6:40:62:d5:f5:af:32:a9:4a:b6:a2:a7:0b:
        cb:bb:72:2e:3e:0b:77:64:17:8d:2d:59:2f:fc:cf:2f:1f:a6:
        77:83:9a:7c:68:b0:15:f6:5a:63:67:74:b2:3a:fa:74:b8:d3:
        a9:70:e6:87:04:bc:4c:79:ef:c8:b4:31:70:17:ae:f3:ef:ae:
        7a:3b
-----BEGIN X509 CRL-----
MIIBQTCBqwIBATANBgkqhkiG9w0BAQUFADBIMQswCQYDVQQGEwJVUzEaMBgGA1UE
ChMRVGVzdCBDZXJ0aWZpY2F0ZXMxHTAbBgNVBAMTFGluaGliaXRBbnlQb2xpY3kw
IENBFw0wMTA0MTkxNDU3MjBaFw0xMTA0MTkxNDU3MjBaoC8wLTAfBgNVHSMEGDAW
gBSdQJhgCObI/VzR2C8L6gDsGkUGzzAKBgNVHRQEAwIBATANBgkqhkiG9w0BAQUF
AAOBgQBgq6KK4yIEy5VKxcpoRnAK0DGwmMytSyOMPvy0x3qTDWoxaMT/MDd7XEgB
beGF99Cbc1PKYjYAXCnIr6ZAYtX1rzKpSraipwvLu3IuPgt3ZBeNLVkv/M8vH6Z3
g5p8aLAV9lpjZ3SyOvp0uNOpcOaHBLxMee/ItDFwF67z7656Ow==
-----END X509 CRL-----

Certificate Revocation List (CRL):
        Version 2 (0x1)
        Signature Algorithm: sha1WithRSAEncryption
        Issuer: /C=US/O=Test Certificates/CN=Trust Anchor
        Last Update: Apr 19 14:57:20 2001 GMT
        Next Update: Apr 19 14:57:20 2011 GMT
        CRL extensions:
            X509v3 Authority Key Identifier: 
                keyid:FB:6C:D4:2D:81:9E:CA:27:7A:9E:0D:B0:3C:EA:9A:BC:87:FF:49:EA

            X509v3 CRL Number: 
                1
Revoked Certificates:
    Serial Number: 68
        Revocation Date: Apr 19 14:57:20 2001 GMT
        CRL entry extensions:
            X509v3 CRL Reason Code: 
                Key Compromise
    Signature Algorithm: sha1WithRSAEncryption
        92:12:c4:34:b4:92:ab:ba:71:6b:74:31:16:ce:ed:25:d6:4b:
        1e:fa:f8:20:1e:9d:d7:7f:30:ed:15:f7:8b:5d:64:9b:dd:31:
        40:e4:55:0f:0c:5f:82:69:63:00:76:a5:cf:9e:c4:5f:f2:53:
        9b:9b:7d:f5:69:1d:74:57:38:70:e5:fb:5b:76:58:c9:ec:31:
        dc:94:1b:02:ee:9d:33:9c:38:4b:29:1d:e1:0c:29:8b:6e:c7:
        bf:a0:e8:40:34:83:cf:ff:9f:cd:b5:f7:d9:4d:a7:9f:2e:bf:
        44:98:6b:f2:d3:fe:a8:20:31:c1:33:76:b7:1c:19:65:4d:b9:
        14:39
-----BEGIN X509 CRL-----
MIIBXTCBxwIBATANBgkqhkiG9w0BAQUFADBAMQswCQYDVQQGEwJVUzEaMBgGA1UE
ChMRVGVzdCBDZXJ0aWZpY2F0ZXMxFTATBgNVBAMTDFRydXN0IEFuY2hvchcNMDEw
NDE5MTQ1NzIwWhcNMTEwNDE5MTQ1NzIwWjAiMCACAWgXDTAxMDQxOTE0NTcyMFow
DDAKBgNVHRUEAwoBAaAvMC0wHwYDVR0jBBgwFoAU+2zULYGeyid6ng2wPOqavIf/
SeowCgYDVR0UBAMCAQEwDQYJKoZIhvcNAQEFBQADgYEAkhLENLSSq7pxa3QxFs7t
JdZLHvr4IB6d138w7RX3i11km90xQORVDwxfgmljAHalz57EX/JTm5t99WkddFc4
cOX7W3ZYyewx3JQbAu6dM5w4Sykd4Qwpi27Hv6DoQDSDz/+fzbX32U2nny6/RJhr
8tP+qCAxwTN2txwZZU25FDk=
-----END X509 CRL-----

