subject=/C=US/O=Test Certificates/OU=indirectCRL CA3
issuer=/C=US/O=Test Certificates/CN=Trust Anchor
-----BEGIN CERTIFICATE-----
MIICdTCCAd6gAwIBAgIBVjANBgkqhkiG9w0BAQUFADBAMQswCQYDVQQGEwJVUzEa
MBgGA1UEChMRVGVzdCBDZXJ0aWZpY2F0ZXMxFTATBgNVBAMTDFRydXN0IEFuY2hv
cjAeFw0wMTA0MTkxNDU3MjBaFw0xMTA0MTkxNDU3MjBaMEMxCzAJBgNVBAYTAlVT
MRowGAYDVQQKExFUZXN0IENlcnRpZmljYXRlczEYMBYGA1UECxMPaW5kaXJlY3RD
UkwgQ0EzMIGfMA0GCSqGSIb3DQEBAQUAA4GNADCBiQKBgQCb2axnNI56WnvGeocp
atKwDsPjuFVSHeTtyX3KVU/1U+ST/Jtv0u5WPp4iitAz/ddFiiBj4cwgr9hZYd0Y
tUyBvGAP8UjJVp55qo1hjMDYyxFRqotx6gH4F7wyfu7s08ERFrtOoT91EwbaTFwG
go0sbSeXio43GfBdAxDi3INGdwIDAQABo3wwejAfBgNVHSMEGDAWgBT7bNQtgZ7K
J3qeDbA86pq8h/9J6jAdBgNVHQ4EFgQUlii8KaatWJ9nLsfCwZc63+6I6ygwDgYD
VR0PAQH/BAQDAgEGMBcGA1UdIAQQMA4wDAYKYIZIAWUDAgEwATAPBgNVHRMBAf8E
BTADAQH/MA0GCSqGSIb3DQEBBQUAA4GBAM8E4GsQT3eKZHuyNOUIn/7ZFw/9gFX3
QfyYv5/Qozv19LTpdKCuIJuZAO900NFkfI4m4kjaYB8CGf9Z2P2B3ctXzgdI9uJM
KmRUnMfzzXGKx+jh+/xkwYi5kduJ2RECX0mqAcOS38OFX3ej7LQWTQ9y3oeqevcS
aUfi6VDmnLr8
-----END CERTIFICATE-----

subject=/C=US/O=Test Certificates/OU=indirectCRL CA3 cRLIssuer
issuer=/C=US/O=Test Certificates/OU=indirectCRL CA3
-----BEGIN CERTIFICATE-----
MIIC2jCCAkOgAwIBAgIBATANBgkqhkiG9w0BAQUFADBDMQswCQYDVQQGEwJVUzEa
MBgGA1UEChMRVGVzdCBDZXJ0aWZpY2F0ZXMxGDAWBgNVBAsTD2luZGlyZWN0Q1JM
IENBMzAeFw0wMTA0MTkxNDU3MjBaFw0xMTA0MTkxNDU3MjBaME0xCzAJBgNVBAYT
AlVTMRowGAYDVQQKExFUZXN0IENlcnRpZmljYXRlczEiMCAGA1UECxMZaW5kaXJl
Y3RDUkwgQ0EzIGNSTElzc3VlcjCBnzANBgkqhkiG9w0BAQEFAAOBjQAwgYkCgYEA
mHdETkTcRztCRHzlSZJg4afLgOPz/cqZQIIoA4riJ/kHT00t3kf5mRx0Gz8/GWBH
wYjUk5NlqDoDlmTby3SFHnZac7Ba/+rkiu4Jzdivp+BKAkiTKzIk9eM5KNv+rpUc
cy3XKWPbz/ox5+OEvn2NhUfVWTe/RbJx1Nq0Mvybh2cCAwEAAaOB0zCB0DAfBgNV
HSMEGDAWgBSWKLwppq1Yn2cux8LBlzrf7ojrKDAdBgNVHQ4EFgQUsQ4hS7IckqgK
M04rBolnT6FPHZ8wDgYDVR0PAQH/BAQDAgECMBcGA1UdIAQQMA4wDAYKYIZIAWUD
AgEwATBlBgNVHR8EXjBcMFqgWKBWpFQwUjELMAkGA1UEBhMCVVMxGjAYBgNVBAoT
EVRlc3QgQ2VydGlmaWNhdGVzMRgwFgYDVQQLEw9pbmRpcmVjdENSTCBDQTMxDTAL
BgNVBAMTBENSTDEwDQYJKoZIhvcNAQEFBQADgYEAbIFuFqULVZjrhsyragErXnS8
R/sgqnP5GJcPHn7p87dEkExtxEYL5N4XnDQXhWdnpc9UtAzh7qR3xnE9EvjeaU1r
lnsdkbJNO7DxTaM5EqLxiy/Rpf+b2rBprv10A0HvPloU9JvnVNHxT/2XA6hMnCsI
6gImM5yk9Sc/rTitZ6s=
-----END CERTIFICATE-----

subject=/C=US/O=Test Certificates/CN=Valid cRLIssuer EE Certificate Test29
issuer=/C=US/O=Test Certificates/OU=indirectCRL CA3
-----BEGIN CERTIFICATE-----
MIIDEDCCAnmgAwIBAgIBAzANBgkqhkiG9w0BAQUFADBDMQswCQYDVQQGEwJVUzEa
MBgGA1UEChMRVGVzdCBDZXJ0aWZpY2F0ZXMxGDAWBgNVBAsTD2luZGlyZWN0Q1JM
IENBMzAeFw0wMTA0MTkxNDU3MjBaFw0xMTA0MTkxNDU3MjBaMFkxCzAJBgNVBAYT
AlVTMRowGAYDVQQKExFUZXN0IENlcnRpZmljYXRlczEuMCwGA1UEAxMlVmFsaWQg
Y1JMSXNzdWVyIEVFIENlcnRpZmljYXRlIFRlc3QyOTCBnzANBgkqhkiG9w0BAQEF
AAOBjQAwgYkCgYEA3icTqNDmsima/TbMUuvjBhV59GC8zfX3Z3bbHAEH/kipg5Gu
rREsznRezB5sZVZG9SH3vfWMkugzVFLlYsAsp5Zjon3+ZM7t/JtZJ0pg6XzqsEfZ
/FCux1F10rMBIsaPzcLtc1At1aWoaqU4ydyam/kDzOEt7f/7WGqGY/ljZVUCAwEA
AaOB/TCB+jAfBgNVHSMEGDAWgBSWKLwppq1Yn2cux8LBlzrf7ojrKDAdBgNVHQ4E
FgQU3ZhtNWI1qdWfBti5WKsMkC0xclMwDgYDVR0PAQH/BAQDAgTwMBcGA1UdIAQQ
MA4wDAYKYIZIAWUDAgEwATCBjgYDVR0fBIGGMIGDMIGAoCuhKTAnBgNVBAMTIGlu
ZGlyZWN0IENSTCBmb3IgaW5kaXJlY3RDUkwgQ0EzolGkTzBNMQswCQYDVQQGEwJV
UzEaMBgGA1UEChMRVGVzdCBDZXJ0aWZpY2F0ZXMxIjAgBgNVBAsTGWluZGlyZWN0
Q1JMIENBMyBjUkxJc3N1ZXIwDQYJKoZIhvcNAQEFBQADgYEAAJ+7QrDsVr4IL5DF
k4CE+XFTE1pd3zqHZCCUSiXp4rY5FEPlsErMT9xcEUB3CiHNFLdKRdaxMxeJ0Of4
oJV5cnM/0QdVM0HkieFFasr9Ad5CdV7ltfgzgV3fgjDr/hsBAIfcD516l2s3oN7L
PvlIa7CLUa5f5TGAyvyKF9d1sRo=
-----END CERTIFICATE-----

Certificate Revocation List (CRL):
        Version 2 (0x1)
        Signature Algorithm: sha1WithRSAEncryption
        Issuer: /C=US/O=Test Certificates/CN=Trust Anchor
        Last Update: Apr 19 14:57:20 2001 GMT
        Next Update: Apr 19 14:57:20 2011 GMT
        CRL extensions:
            X509v3 Authority Key Identifier: 
                keyid:FB:6C:D4:2D:81:9E:CA:27:7A:9E:0D:B0:3C:EA:9A:BC:87:FF:49:EA

            X509v3 CRL Number: 
                1
Revoked Certificates:
    Serial Number: 68
        Revocation Date: Apr 19 14:57:20 2001 GMT
        CRL entry extensions:
            X509v3 CRL Reason Code: 
                Key Compromise
    Signature Algorithm: sha1WithRSAEncryption
        92:12:c4:34:b4:92:ab:ba:71:6b:74:31:16:ce:ed:25:d6:4b:
        1e:fa:f8:20:1e:9d:d7:7f:30:ed:15:f7:8b:5d:64:9b:dd:31:
        40:e4:55:0f:0c:5f:82:69:63:00:76:a5:cf:9e:c4:5f:f2:53:
        9b:9b:7d:f5:69:1d:74:57:38:70:e5:fb:5b:76:58:c9:ec:31:
        dc:94:1b:02:ee:9d:33:9c:38:4b:29:1d:e1:0c:29:8b:6e:c7:
        bf:a0:e8:40:34:83:cf:ff:9f:cd:b5:f7:d9:4d:a7:9f:2e:bf:
        44:98:6b:f2:d3:fe:a8:20:31:c1:33:76:b7:1c:19:65:4d:b9:
        14:39
-----BEGIN X509 CRL-----
MIIBXTCBxwIBATANBgkqhkiG9w0BAQUFADBAMQswCQYDVQQGEwJVUzEaMBgGA1UE
ChMRVGVzdCBDZXJ0aWZpY2F0ZXMxFTATBgNVBAMTDFRydXN0IEFuY2hvchcNMDEw
NDE5MTQ1NzIwWhcNMTEwNDE5MTQ1NzIwWjAiMCACAWgXDTAxMDQxOTE0NTcyMFow
DDAKBgNVHRUEAwoBAaAvMC0wHwYDVR0jBBgwFoAU+2zULYGeyid6ng2wPOqavIf/
SeowCgYDVR0UBAMCAQEwDQYJKoZIhvcNAQEFBQADgYEAkhLENLSSq7pxa3QxFs7t
JdZLHvr4IB6d138w7RX3i11km90xQORVDwxfgmljAHalz57EX/JTm5t99WkddFc4
cOX7W3ZYyewx3JQbAu6dM5w4Sykd4Qwpi27Hv6DoQDSDz/+fzbX32U2nny6/RJhr
8tP+qCAxwTN2txwZZU25FDk=
-----END X509 CRL-----

Certificate Revocation List (CRL):
        Version 2 (0x1)
        Signature Algorithm: sha1WithRSAEncryption
        Issuer: /C=US/O=Test Certificates/OU=indirectCRL CA3
        Last Update: Apr 19 14:57:20 2001 GMT
        Next Update: Apr 19 14:57:20 2011 GMT
        CRL extensions:
            X509v3 Authority Key Identifier: 
                keyid:96:28:BC:29:A6:AD:58:9F:67:2E:C7:C2:C1:97:3A:DF:EE:88:EB:28

            X509v3 CRL Number: 
                1
            2.5.29.28: critical
                0Z.X.V.T0R1.0...U....US1.0...U.
..Test Certificates1.0...U....indirectCRL CA310...U....CRL1
No Revoked Certificates.
    Signature Algorithm: sha1WithRSAEncryption
        15:65:bb:88:f2:fd:8c:76:6d:92:ae:f5:06:d5:bf:c8:ba:bb:
        d4:98:de:83:a5:e1:7a:e9:92:96:f7:c2:ce:0c:de:7b:81:7f:
        a0:32:c8:a4:15:a6:16:e6:51:b1:b2:e5:92:62:ef:46:d3:7c:
        5f:37:56:47:5d:3c:12:94:a6:3e:18:59:6b:2c:9e:ac:f0:90:
        03:23:84:b1:cd:0f:49:ff:1a:8e:67:62:35:32:68:ed:24:a2:
        76:93:5c:b2:80:5d:bc:81:26:ab:02:c0:f4:a1:de:3a:6d:0d:
        ae:02:66:fb:6e:72:49:59:fe:f1:2f:87:d2:bc:98:10:3e:33:
        3d:d5
-----BEGIN X509 CRL-----
MIIBpzCCARACAQEwDQYJKoZIhvcNAQEFBQAwQzELMAkGA1UEBhMCVVMxGjAYBgNV
BAoTEVRlc3QgQ2VydGlmaWNhdGVzMRgwFgYDVQQLEw9pbmRpcmVjdENSTCBDQTMX
DTAxMDQxOTE0NTcyMFoXDTExMDQxOTE0NTcyMFqggZgwgZUwHwYDVR0jBBgwFoAU
lii8KaatWJ9nLsfCwZc63+6I6ygwCgYDVR0UBAMCAQEwZgYDVR0cAQH/BFwwWqBY
oFakVDBSMQswCQYDVQQGEwJVUzEaMBgGA1UEChMRVGVzdCBDZXJ0aWZpY2F0ZXMx
GDAWBgNVBAsTD2luZGlyZWN0Q1JMIENBMzENMAsGA1UEAxMEQ1JMMTANBgkqhkiG
9w0BAQUFAAOBgQAVZbuI8v2Mdm2SrvUG1b/IurvUmN6DpeF66ZKW98LODN57gX+g
MsikFaYW5lGxsuWSYu9G03xfN1ZHXTwSlKY+GFlrLJ6s8JADI4SxzQ9J/xqOZ2I1
MmjtJKJ2k1yygF28gSarAsD0od46bQ2uAmb7bnJJWf7xL4fSvJgQPjM91Q==
-----END X509 CRL-----

Certificate Revocation List (CRL):
        Version 2 (0x1)
        Signature Algorithm: sha1WithRSAEncryption
        Issuer: /C=US/O=Test Certificates/OU=indirectCRL CA3 cRLIssuer
        Last Update: Apr 19 14:57:20 2001 GMT
        Next Update: Apr 19 14:57:20 2011 GMT
        CRL extensions:
            X509v3 Authority Key Identifier: 
                keyid:B1:0E:21:4B:B2:1C:92:A8:0A:33:4E:2B:06:89:67:4F:A1:4F:1D:9F

            X509v3 CRL Number: 
                1
            2.5.29.28: critical
                0...~.|.z0x1.0...U....US1.0...U.
..Test Certificates1"0 ..U....indirectCRL CA3 cRLIssuer1)0'..U... indirect CRL for indirectCRL CA3...
No Revoked Certificates.
    Signature Algorithm: sha1WithRSAEncryption
        68:34:87:64:55:65:a9:87:47:54:c2:2d:14:48:91:1e:ee:59:
        f5:ed:d9:06:6d:78:b9:ff:81:8c:5c:02:f5:08:b5:22:90:75:
        02:f2:63:62:78:25:4d:6c:2f:1f:a3:58:e2:1f:57:2b:3f:49:
        0d:0b:bd:85:02:c5:ac:ad:9d:38:0b:13:46:2c:34:f2:9b:e5:
        22:f5:55:cc:63:fb:c2:69:94:14:d7:e5:78:4f:17:4e:16:98:
        65:81:cf:9d:72:20:32:78:15:0e:22:af:22:2c:21:c5:7c:db:
        8c:31:be:ad:59:c4:81:24:e4:ec:e0:0c:40:4c:2b:95:98:dd:
        8f:f4
-----BEGIN X509 CRL-----
MIIB3TCCAUYCAQEwDQYJKoZIhvcNAQEFBQAwTTELMAkGA1UEBhMCVVMxGjAYBgNV
BAoTEVRlc3QgQ2VydGlmaWNhdGVzMSIwIAYDVQQLExlpbmRpcmVjdENSTCBDQTMg
Y1JMSXNzdWVyFw0wMTA0MTkxNDU3MjBaFw0xMTA0MTkxNDU3MjBaoIHEMIHBMB8G
A1UdIwQYMBaAFLEOIUuyHJKoCjNOKwaJZ0+hTx2fMAoGA1UdFAQDAgEBMIGRBgNV
HRwBAf8EgYYwgYOgfqB8pHoweDELMAkGA1UEBhMCVVMxGjAYBgNVBAoTEVRlc3Qg
Q2VydGlmaWNhdGVzMSIwIAYDVQQLExlpbmRpcmVjdENSTCBDQTMgY1JMSXNzdWVy
MSkwJwYDVQQDEyBpbmRpcmVjdCBDUkwgZm9yIGluZGlyZWN0Q1JMIENBM4QB/zAN
BgkqhkiG9w0BAQUFAAOBgQBoNIdkVWWph0dUwi0USJEe7ln17dkGbXi5/4GMXAL1
CLUikHUC8mNieCVNbC8fo1jiH1crP0kNC72FAsWsrZ04CxNGLDTym+Ui9VXMY/vC
aZQU1+V4TxdOFphlgc+dciAyeBUOIq8iLCHFfNuMMb6tWcSBJOTs4AxATCuVmN2P
9A==
-----END X509 CRL-----

