subject=/C=US/O=Test Certificates/CN=keyUsage Not Critical CA
issuer=/C=US/O=Test Certificates/CN=Trust Anchor
-----BEGIN CERTIFICATE-----
MIICezCCAeSgAwIBAgIBHzANBgkqhkiG9w0BAQUFADBAMQswCQYDVQQGEwJVUzEa
MBgGA1UEChMRVGVzdCBDZXJ0aWZpY2F0ZXMxFTATBgNVBAMTDFRydXN0IEFuY2hv
cjAeFw0wMTA0MTkxNDU3MjBaFw0xMTA0MTkxNDU3MjBaMEwxCzAJBgNVBAYTAlVT
MRowGAYDVQQKExFUZXN0IENlcnRpZmljYXRlczEhMB8GA1UEAxMYa2V5VXNhZ2Ug
Tm90IENyaXRpY2FsIENBMIGfMA0GCSqGSIb3DQEBAQUAA4GNADCBiQKBgQCYlAJy
nnvLn2glPjCkqnWzCC/bxT/ypoeW3spfvzi+AQuwM+d/bNL1ZouAnps7JPpf4VHp
ZvSGjeCgLpCvDjnUP6tG/hkQBm8CS9vaqg/65FoI/MpSMHXmVJ9CgUjOkjHp1g47
2AYniw5lRztaH2tCN25WqZFzar+vdhQG2ZkJNQIDAQABo3kwdzAfBgNVHSMEGDAW
gBT7bNQtgZ7KJ3qeDbA86pq8h/9J6jAdBgNVHQ4EFgQUzyqhpf1C4jO8MypNmHOz
2PtVvNgwCwYDVR0PBAQDAgEGMBcGA1UdIAQQMA4wDAYKYIZIAWUDAgEwATAPBgNV
HRMBAf8EBTADAQH/MA0GCSqGSIb3DQEBBQUAA4GBAKS4oBKhFhU5vxr4Z547N5er
YrYR5JU75QnGUZjv7JYCXydlJVuvIhZptrzG/wevhz2VgNSbk/wp8Uw+ra3eqqlq
QjVFQukh0F4GKMBaiFZ1HUEGILLIpeEq0Pn70Q8EE0H1RsweW1P30qaXZE9050m4
7h+is62/EaaT31RpTb+G
-----END CERTIFICATE-----

subject=/C=US/O=Test Certificates/CN=Valid keyUsage Not Critical EE Certificate Test3
issuer=/C=US/O=Test Certificates/CN=keyUsage Not Critical CA
-----BEGIN CERTIFICATE-----
MIICkTCCAfqgAwIBAgIBATANBgkqhkiG9w0BAQUFADBMMQswCQYDVQQGEwJVUzEa
MBgGA1UEChMRVGVzdCBDZXJ0aWZpY2F0ZXMxITAfBgNVBAMTGGtleVVzYWdlIE5v
dCBDcml0aWNhbCBDQTAeFw0wMTA0MTkxNDU3MjBaFw0xMTA0MTkxNDU3MjBaMGQx
CzAJBgNVBAYTAlVTMRowGAYDVQQKExFUZXN0IENlcnRpZmljYXRlczE5MDcGA1UE
AxMwVmFsaWQga2V5VXNhZ2UgTm90IENyaXRpY2FsIEVFIENlcnRpZmljYXRlIFRl
c3QzMIGfMA0GCSqGSIb3DQEBAQUAA4GNADCBiQKBgQCQifnsA6fOmILXLNZeSJEf
D8ON1YDI4FjDmGqG8Ob1ITgAWPfxJcWgQXqRwzn/1NXj0faYKeVA5j6VZxSCP7Dz
D6ZCeGxjgcF1lNF2dqZh268sSsW3ZiesNQ+wG9zaF8YNWvL8iqICgMrjVqdiFbiD
X8N15gROcCA0lPuKiqlJlwIDAQABo2swaTAfBgNVHSMEGDAWgBTPKqGl/ULiM7wz
Kk2Yc7PY+1W82DAdBgNVHQ4EFgQUHw6xfNRi0j5jpx9vVSQlS+45UuUwDgYDVR0P
AQH/BAQDAgTwMBcGA1UdIAQQMA4wDAYKYIZIAWUDAgEwATANBgkqhkiG9w0BAQUF
AAOBgQADtx2GVXZR3dxm4aGGrvmtdkDkj/20o+75/jzMHss7prirQQdShNtqL02F
TL2y/PWCf6QbDQgcakwPDez60a7reZ02JKUtwKCa4VJf86gy3BDKKhm+msihYgCj
ZzkYwS9CoF3dRup5ySq6dvAU6gVzPRJZKOf3MIM/3Vo9hUtmVg==
-----END CERTIFICATE-----

Certificate Revocation List (CRL):
        Version 2 (0x1)
        Signature Algorithm: sha1WithRSAEncryption
        Issuer: /C=US/O=Test Certificates/CN=keyUsage Not Critical CA
        Last Update: Apr 19 14:57:20 2001 GMT
        Next Update: Apr 19 14:57:20 2011 GMT
        CRL extensions:
            X509v3 Authority Key Identifier: 
                keyid:CF:2A:A1:A5:FD:42:E2:33:BC:33:2A:4D:98:73:B3:D8:FB:55:BC:D8

            X509v3 CRL Number: 
                1
No Revoked Certificates.
    Signature Algorithm: sha1WithRSAEncryption
        3a:4d:11:cb:3c:14:7e:17:ec:4f:14:72:47:1e:98:fe:ba:02:
        2c:79:4d:2f:5d:e8:71:fa:35:d3:7f:26:b5:27:1b:23:c0:12:
        8d:c5:9c:f7:e1:96:71:d5:7c:6a:e4:40:ed:7d:46:28:a1:91:
        99:ab:75:2b:61:a5:c5:4b:d1:63:10:bb:95:bb:4c:ee:a0:8a:
        8e:d6:65:14:3c:86:f2:11:8b:0c:4d:6a:3d:e1:a9:e6:12:28:
        69:87:1b:eb:e4:9e:d1:45:5c:dd:2b:2f:6e:55:72:e2:69:cd:
        88:84:b1:c5:5e:86:44:10:4f:ce:ab:a4:b3:ed:c7:03:58:84:
        84:cc
-----BEGIN X509 CRL-----
MIIBRTCBrwIBATANBgkqhkiG9w0BAQUFADBMMQswCQYDVQQGEwJVUzEaMBgGA1UE
ChMRVGVzdCBDZXJ0aWZpY2F0ZXMxITAfBgNVBAMTGGtleVVzYWdlIE5vdCBDcml0
aWNhbCBDQRcNMDEwNDE5MTQ1NzIwWhcNMTEwNDE5MTQ1NzIwWqAvMC0wHwYDVR0j
BBgwFoAUzyqhpf1C4jO8MypNmHOz2PtVvNgwCgYDVR0UBAMCAQEwDQYJKoZIhvcN
AQEFBQADgYEAOk0RyzwUfhfsTxRyRx6Y/roCLHlNL13ocfo1038mtScbI8ASjcWc
9+GWcdV8auRA7X1GKKGRmat1K2GlxUvRYxC7lbtM7qCKjtZlFDyG8hGLDE1qPeGp
5hIoaYcb6+Se0UVc3SsvblVy4mnNiISxxV6GRBBPzquks+3HA1iEhMw=
-----END X509 CRL-----

Certificate Revocation List (CRL):
        Version 2 (0x1)
        Signature Algorithm: sha1WithRSAEncryption
        Issuer: /C=US/O=Test Certificates/CN=Trust Anchor
        Last Update: Apr 19 14:57:20 2001 GMT
        Next Update: Apr 19 14:57:20 2011 GMT
        CRL extensions:
            X509v3 Authority Key Identifier: 
                keyid:FB:6C:D4:2D:81:9E:CA:27:7A:9E:0D:B0:3C:EA:9A:BC:87:FF:49:EA

            X509v3 CRL Number: 
                1
Revoked Certificates:
    Serial Number: 68
        Revocation Date: Apr 19 14:57:20 2001 GMT
        CRL entry extensions:
            X509v3 CRL Reason Code: 
                Key Compromise
    Signature Algorithm: sha1WithRSAEncryption
        92:12:c4:34:b4:92:ab:ba:71:6b:74:31:16:ce:ed:25:d6:4b:
        1e:fa:f8:20:1e:9d:d7:7f:30:ed:15:f7:8b:5d:64:9b:dd:31:
        40:e4:55:0f:0c:5f:82:69:63:00:76:a5:cf:9e:c4:5f:f2:53:
        9b:9b:7d:f5:69:1d:74:57:38:70:e5:fb:5b:76:58:c9:ec:31:
        dc:94:1b:02:ee:9d:33:9c:38:4b:29:1d:e1:0c:29:8b:6e:c7:
        bf:a0:e8:40:34:83:cf:ff:9f:cd:b5:f7:d9:4d:a7:9f:2e:bf:
        44:98:6b:f2:d3:fe:a8:20:31:c1:33:76:b7:1c:19:65:4d:b9:
        14:39
-----BEGIN X509 CRL-----
MIIBXTCBxwIBATANBgkqhkiG9w0BAQUFADBAMQswCQYDVQQGEwJVUzEaMBgGA1UE
ChMRVGVzdCBDZXJ0aWZpY2F0ZXMxFTATBgNVBAMTDFRydXN0IEFuY2hvchcNMDEw
NDE5MTQ1NzIwWhcNMTEwNDE5MTQ1NzIwWjAiMCACAWgXDTAxMDQxOTE0NTcyMFow
DDAKBgNVHRUEAwoBAaAvMC0wHwYDVR0jBBgwFoAU+2zULYGeyid6ng2wPOqavIf/
SeowCgYDVR0UBAMCAQEwDQYJKoZIhvcNAQEFBQADgYEAkhLENLSSq7pxa3QxFs7t
JdZLHvr4IB6d138w7RX3i11km90xQORVDwxfgmljAHalz57EX/JTm5t99WkddFc4
cOX7W3ZYyewx3JQbAu6dM5w4Sykd4Qwpi27Hv6DoQDSDz/+fzbX32U2nny6/RJhr
8tP+qCAxwTN2txwZZU25FDk=
-----END X509 CRL-----

