subject=/C=US/O=Test Certificates/CN=Valid requireExplicitPolicy EE Certificate Test2
issuer=/C=US/O=Test Certificates/CN=requireExplicitPolicy5 subsubsubCA
-----BEGIN CERTIFICATE-----
MIICgjCCAeugAwIBAgIBATANBgkqhkiG9w0BAQUFADBWMQswCQYDVQQGEwJVUzEa
MBgGA1UEChMRVGVzdCBDZXJ0aWZpY2F0ZXMxKzApBgNVBAMTInJlcXVpcmVFeHBs
aWNpdFBvbGljeTUgc3Vic3Vic3ViQ0EwHhcNMDEwNDE5MTQ1NzIwWhcNMTEwNDE5
MTQ1NzIwWjBkMQswCQYDVQQGEwJVUzEaMBgGA1UEChMRVGVzdCBDZXJ0aWZpY2F0
ZXMxOTA3BgNVBAMTMFZhbGlkIHJlcXVpcmVFeHBsaWNpdFBvbGljeSBFRSBDZXJ0
aWZpY2F0ZSBUZXN0MjCBnzANBgkqhkiG9w0BAQEFAAOBjQAwgYkCgYEAo5atW4GH
rxxchJEUckmfckvxY4c4sEEgPZIouuIcHeQAIjEjMhCqHNWrA7WiQLldqLSridIm
FWVRxn9/wlv3oMMbBlf6xFLjr24zYTePsIFWBk5ZPbMBKcl7XqfeuF4jJ/vh0lj/
Bi9W9Imt5ZvJu0EHSkQzm+NNis/Tgd4aWRUCAwEAAaNSMFAwHwYDVR0jBBgwFoAU
PqkwZi+ntCWIhGfJrZiTFfiWzsUwHQYDVR0OBBYEFDLXXehvdjv0hNKAOrzbFme1
lGWtMA4GA1UdDwEB/wQEAwIE8DANBgkqhkiG9w0BAQUFAAOBgQBmbv/fgwsL3SAO
6F4RmXOfTQTewhDfMQDEbwUJOfg7D09LIcIupI+cYY7iqjUq+gUeiAlMlL91ITlp
oiKGUliex+bhygei8kSfmwT+l09yz3EPxCfdjY1k88ni+TedHBkoK0p7Q/uFG4DP
Qk7DgGZ57nrx9maK4io59a/VTPM65A==
-----END CERTIFICATE-----

subject=/C=US/O=Test Certificates/CN=requireExplicitPolicy5 subCA
issuer=/C=US/O=Test Certificates/CN=requireExplicitPolicy5 CA
-----BEGIN CERTIFICATE-----
MIICjzCCAfigAwIBAgIBATANBgkqhkiG9w0BAQUFADBNMQswCQYDVQQGEwJVUzEa
MBgGA1UEChMRVGVzdCBDZXJ0aWZpY2F0ZXMxIjAgBgNVBAMTGXJlcXVpcmVFeHBs
aWNpdFBvbGljeTUgQ0EwHhcNMDEwNDE5MTQ1NzIwWhcNMTEwNDE5MTQ1NzIwWjBQ
MQswCQYDVQQGEwJVUzEaMBgGA1UEChMRVGVzdCBDZXJ0aWZpY2F0ZXMxJTAjBgNV
BAMTHHJlcXVpcmVFeHBsaWNpdFBvbGljeTUgc3ViQ0EwgZ8wDQYJKoZIhvcNAQEB
BQADgY0AMIGJAoGBAKzDYQYB3gcpzJVllE1FhnwJXEpyKjubhg5P3MDpRW9YRYSs
W1O2TYeX633IhRRS8rsJW22Yzp4tN9M6cXqBTHB2+nwHtREHSxeSei31AnAu+2n1
Q+XNJ9W5DLbdahLtURESEnEQSyViFMMYQjm7rxvORc/D9OIa4u+tx1ESGOGDAgMB
AAGjfDB6MB8GA1UdIwQYMBaAFNXihi3xK2gXnA9evyu4ZpmeQxu6MB0GA1UdDgQW
BBSVhouRNrt6b+KEFZDvRY4BJxZruDAOBgNVHQ8BAf8EBAMCAQYwFwYDVR0gBBAw
DjAMBgpghkgBZQMCATABMA8GA1UdEwEB/wQFMAMBAf8wDQYJKoZIhvcNAQEFBQAD
gYEAB/OvefFEki9VuKt6EwjvNLjvjT1581w8qKpdHgDrYthrMm3JIULpn5zaRqyQ
KIT8uu40HzKHagNpfdHQ1HNuEQ9qwIAQvtqmtJxqIR+kdeKXw78cN+TJzqaHuZu5
VTidhmlVHaY/50quu7qqGiIQR4bcYrb4vY+adBBgrpcvUCM=
-----END CERTIFICATE-----

subject=/C=US/O=Test Certificates/CN=requireExplicitPolicy5 CA
issuer=/C=US/O=Test Certificates/CN=Trust Anchor
-----BEGIN CERTIFICATE-----
MIICkjCCAfugAwIBAgIBKzANBgkqhkiG9w0BAQUFADBAMQswCQYDVQQGEwJVUzEa
MBgGA1UEChMRVGVzdCBDZXJ0aWZpY2F0ZXMxFTATBgNVBAMTDFRydXN0IEFuY2hv
cjAeFw0wMTA0MTkxNDU3MjBaFw0xMTA0MTkxNDU3MjBaME0xCzAJBgNVBAYTAlVT
MRowGAYDVQQKExFUZXN0IENlcnRpZmljYXRlczEiMCAGA1UEAxMZcmVxdWlyZUV4
cGxpY2l0UG9saWN5NSBDQTCBnzANBgkqhkiG9w0BAQEFAAOBjQAwgYkCgYEAlU17
mwFm/6Yf08lbJU8q1FquMr1IaWlav4Qh1/UUFR3cRicBZZvQNTpxTcn1jmaSj8xK
Gm9pUmbmbJBqiDYX5p1IwR1nmsyXxnaYD3SYadHlmb2emlzu1Dg3l6eKvaNh6h3a
F0XDS/S+GtadjpVmuWdMIiWWrEVIFfGAL2VFaeUCAwEAAaOBjjCBizAfBgNVHSME
GDAWgBT7bNQtgZ7KJ3qeDbA86pq8h/9J6jAdBgNVHQ4EFgQU1eKGLfEraBecD16/
K7hmmZ5DG7owDgYDVR0PAQH/BAQDAgEGMBcGA1UdIAQQMA4wDAYKYIZIAWUDAgEw
ATAPBgNVHRMBAf8EBTADAQH/MA8GA1UdJAEB/wQFMAOAAQUwDQYJKoZIhvcNAQEF
BQADgYEAjjGl1NeCLiMI9MFNgftmCe1ehHkE+Qr4TSJQfw9qZ5p0SRd2aOxq7km6
ZwhF/E+wsS1CEwLRWaK7LqCmFx+XacoXjJi2XP5UjctH1tKyJx2YBhYrfzNkECJl
u3KBUohmTd/aICG6oVE5ErcFFE/evv7LioMT94kub91V18EDgCw=
-----END CERTIFICATE-----

subject=/C=US/O=Test Certificates/CN=requireExplicitPolicy5 subsubCA
issuer=/C=US/O=Test Certificates/CN=requireExplicitPolicy5 subCA
-----BEGIN CERTIFICATE-----
MIIClTCCAf6gAwIBAgIBATANBgkqhkiG9w0BAQUFADBQMQswCQYDVQQGEwJVUzEa
MBgGA1UEChMRVGVzdCBDZXJ0aWZpY2F0ZXMxJTAjBgNVBAMTHHJlcXVpcmVFeHBs
aWNpdFBvbGljeTUgc3ViQ0EwHhcNMDEwNDE5MTQ1NzIwWhcNMTEwNDE5MTQ1NzIw
WjBTMQswCQYDVQQGEwJVUzEaMBgGA1UEChMRVGVzdCBDZXJ0aWZpY2F0ZXMxKDAm
BgNVBAMTH3JlcXVpcmVFeHBsaWNpdFBvbGljeTUgc3Vic3ViQ0EwgZ8wDQYJKoZI
hvcNAQEBBQADgY0AMIGJAoGBANALzpI6Vb5grPqiSrzcOrNfPZ5pbbC4jjs89zo1
RRGcMLQQt5wPHu1OKE6g2WXvikA0ompVqxKG7qeu/bTIcpm3CHowhRigOk/VJkCV
Zyv9tdLzlWoiW2elI0uJ4BXsW8oU4sTxlx1/QlJbERwv1BwL5BQD3l02LP4vueE/
U8HpAgMBAAGjfDB6MB8GA1UdIwQYMBaAFJWGi5E2u3pv4oQVkO9FjgEnFmu4MB0G
A1UdDgQWBBQK52IWqA5PL7e4PyfIo6lfe0ZrpzAOBgNVHQ8BAf8EBAMCAQYwFwYD
VR0gBBAwDjAMBgpghkgBZQMCATABMA8GA1UdEwEB/wQFMAMBAf8wDQYJKoZIhvcN
AQEFBQADgYEAmbgnzwSut1UU/jNuzF9ZK+x79DmpTDAv12ASnAPUvZJ8RTQBxYlL
C/B0gYZsqUnyaEoZAsrSYktMdA2qDedWGFB94d+LVbpHNoNvxQl+0qMTTLh+gO4V
JIrQ5hj2npLdDHKNi6a91lO83NqsyuITezJ0Nuhbvf9KuApxz069EO8=
-----END CERTIFICATE-----

subject=/C=US/O=Test Certificates/CN=requireExplicitPolicy5 subsubsubCA
issuer=/C=US/O=Test Certificates/CN=requireExplicitPolicy5 subsubCA
-----BEGIN CERTIFICATE-----
MIICmzCCAgSgAwIBAgIBATANBgkqhkiG9w0BAQUFADBTMQswCQYDVQQGEwJVUzEa
MBgGA1UEChMRVGVzdCBDZXJ0aWZpY2F0ZXMxKDAmBgNVBAMTH3JlcXVpcmVFeHBs
aWNpdFBvbGljeTUgc3Vic3ViQ0EwHhcNMDEwNDE5MTQ1NzIwWhcNMTEwNDE5MTQ1
NzIwWjBWMQswCQYDVQQGEwJVUzEaMBgGA1UEChMRVGVzdCBDZXJ0aWZpY2F0ZXMx
KzApBgNVBAMTInJlcXVpcmVFeHBsaWNpdFBvbGljeTUgc3Vic3Vic3ViQ0EwgZ8w
DQYJKoZIhvcNAQEBBQADgY0AMIGJAoGBALw7Jg17lRmWU52pn7qaLPiV7eLBCvpx
S7uekBx+WtzvAVxUF+iI8whshUqsC4XzNHTs6BvS4QRwpixRMMMWwH/67kGAEADq
lVYewPK7aMHMdDfCggIukUpy1DVR3KOc7rnVZ2tGKBbCFhAxPMXBgkketIAVJ1V4
+3nRS/QGSxF9AgMBAAGjfDB6MB8GA1UdIwQYMBaAFArnYhaoDk8vt7g/J8ijqV97
RmunMB0GA1UdDgQWBBQ+qTBmL6e0JYiEZ8mtmJMV+JbOxTAOBgNVHQ8BAf8EBAMC
AQYwFwYDVR0gBBAwDjAMBgpghkgBZQMCATABMA8GA1UdEwEB/wQFMAMBAf8wDQYJ
KoZIhvcNAQEFBQADgYEArpriBQ3ArOVFh+HujQ+8cIihYFG5ri+SairjawVwbUb4
HatEUky9Nh9YAxGn1YGdBpintIpQU/0WljldKXxvH2yn6hMCNV5ql4hhorP2YfWL
8+S80IboVToDPKsEdzeAxs5Xeh3BY9DgJPY9RmDgJcXqb6I+1P2+3GIxGDpF/jM=
-----END CERTIFICATE-----

Certificate Revocation List (CRL):
        Version 2 (0x1)
        Signature Algorithm: sha1WithRSAEncryption
        Issuer: /C=US/O=Test Certificates/CN=requireExplicitPolicy5 CA
        Last Update: Apr 19 14:57:20 2001 GMT
        Next Update: Apr 19 14:57:20 2011 GMT
        CRL extensions:
            X509v3 Authority Key Identifier: 
                keyid:D5:E2:86:2D:F1:2B:68:17:9C:0F:5E:BF:2B:B8:66:99:9E:43:1B:BA

            X509v3 CRL Number: 
                1
No Revoked Certificates.
    Signature Algorithm: sha1WithRSAEncryption
        32:06:95:6e:49:2d:7e:9f:9f:7d:d6:0e:3c:b0:73:4d:2a:d8:
        1d:86:f7:2f:61:f5:39:80:c7:b4:e6:3b:8c:90:1c:11:6c:0f:
        fd:9b:c3:52:b9:aa:2e:bb:8e:25:b9:f6:75:b7:1a:2c:fc:45:
        81:54:f6:49:69:e2:78:ef:25:d2:cb:1b:7e:f8:7b:96:d9:37:
        ba:f4:66:8f:e1:e7:56:96:ef:76:bd:4c:94:0e:fd:a8:35:16:
        d1:2a:69:28:29:96:18:8b:a5:af:04:00:bc:d9:42:ff:ea:32:
        35:9b:3d:57:da:9e:a1:d5:e4:3e:e4:4f:4b:8f:5a:48:47:73:
        38:5d
-----BEGIN X509 CRL-----
MIIBRjCBsAIBATANBgkqhkiG9w0BAQUFADBNMQswCQYDVQQGEwJVUzEaMBgGA1UE
ChMRVGVzdCBDZXJ0aWZpY2F0ZXMxIjAgBgNVBAMTGXJlcXVpcmVFeHBsaWNpdFBv
bGljeTUgQ0EXDTAxMDQxOTE0NTcyMFoXDTExMDQxOTE0NTcyMFqgLzAtMB8GA1Ud
IwQYMBaAFNXihi3xK2gXnA9evyu4ZpmeQxu6MAoGA1UdFAQDAgEBMA0GCSqGSIb3
DQEBBQUAA4GBADIGlW5JLX6fn33WDjywc00q2B2G9y9h9TmAx7TmO4yQHBFsD/2b
w1K5qi67jiW59nW3Giz8RYFU9klp4njvJdLLG374e5bZN7r0Zo/h51aW73a9TJQO
/ag1FtEqaSgplhiLpa8EALzZQv/qMjWbPVfanqHV5D7kT0uPWkhHczhd
-----END X509 CRL-----

Certificate Revocation List (CRL):
        Version 2 (0x1)
        Signature Algorithm: sha1WithRSAEncryption
        Issuer: /C=US/O=Test Certificates/CN=requireExplicitPolicy5 subCA
        Last Update: Apr 19 14:57:20 2001 GMT
        Next Update: Apr 19 14:57:20 2011 GMT
        CRL extensions:
            X509v3 Authority Key Identifier: 
                keyid:95:86:8B:91:36:BB:7A:6F:E2:84:15:90:EF:45:8E:01:27:16:6B:B8

            X509v3 CRL Number: 
                1
No Revoked Certificates.
    Signature Algorithm: sha1WithRSAEncryption
        73:84:54:e4:77:a5:7d:03:3d:7c:d0:a6:ea:6b:70:82:11:10:
        1b:9a:85:8c:ae:3d:8a:06:a3:2b:cc:a7:77:0c:be:7a:02:bc:
        2f:13:07:ff:83:e6:f6:7a:99:1e:a1:af:12:06:c5:ce:1b:f3:
        76:77:bc:ef:ef:a2:cb:96:36:3b:fd:b0:ce:5c:ae:30:af:9f:
        ba:e7:16:e8:f2:66:74:82:6e:75:91:90:b1:59:a9:9e:8b:41:
        37:42:0f:1b:a8:4e:73:31:e1:b1:53:fb:8a:3d:ee:d3:e4:77:
        a8:f8:ea:ea:21:f5:c5:be:1d:b5:e3:79:27:de:c3:d5:45:b0:
        87:24
-----BEGIN X509 CRL-----
MIIBSTCBswIBATANBgkqhkiG9w0BAQUFADBQMQswCQYDVQQGEwJVUzEaMBgGA1UE
ChMRVGVzdCBDZXJ0aWZpY2F0ZXMxJTAjBgNVBAMTHHJlcXVpcmVFeHBsaWNpdFBv
bGljeTUgc3ViQ0EXDTAxMDQxOTE0NTcyMFoXDTExMDQxOTE0NTcyMFqgLzAtMB8G
A1UdIwQYMBaAFJWGi5E2u3pv4oQVkO9FjgEnFmu4MAoGA1UdFAQDAgEBMA0GCSqG
SIb3DQEBBQUAA4GBAHOEVOR3pX0DPXzQpuprcIIREBuahYyuPYoGoyvMp3cMvnoC
vC8TB/+D5vZ6mR6hrxIGxc4b83Z3vO/vosuWNjv9sM5crjCvn7rnFujyZnSCbnWR
kLFZqZ6LQTdCDxuoTnMx4bFT+4o97tPkd6j46uoh9cW+HbXjeSfew9VFsIck
-----END X509 CRL-----

Certificate Revocation List (CRL):
        Version 2 (0x1)
        Signature Algorithm: sha1WithRSAEncryption
        Issuer: /C=US/O=Test Certificates/CN=requireExplicitPolicy5 subsubCA
        Last Update: Apr 19 14:57:20 2001 GMT
        Next Update: Apr 19 14:57:20 2011 GMT
        CRL extensions:
            X509v3 Authority Key Identifier: 
                keyid:0A:E7:62:16:A8:0E:4F:2F:B7:B8:3F:27:C8:A3:A9:5F:7B:46:6B:A7

            X509v3 CRL Number: 
                1
No Revoked Certificates.
    Signature Algorithm: sha1WithRSAEncryption
        16:15:3e:47:cd:ae:b2:4b:8b:30:d4:ee:c4:1e:2a:d5:84:bc:
        ca:b1:2b:a9:d3:37:be:f6:11:d1:1f:60:04:41:72:df:ca:d5:
        0b:74:5a:e8:a7:bd:32:25:cb:e8:e4:6d:c7:be:25:c3:63:9c:
        43:66:14:4a:0e:f7:ea:e1:83:a4:bf:5e:70:7b:a3:b7:12:c9:
        36:fc:99:85:58:0e:66:d2:a0:41:6e:a8:07:2e:f7:45:36:fe:
        71:3e:c4:7a:88:e2:0b:c2:c9:dd:30:81:b9:44:48:2a:1d:07:
        5a:cc:e1:49:9a:04:a6:5b:c4:6c:2a:f0:3f:8f:3b:04:ea:5d:
        ab:70
-----BEGIN X509 CRL-----
MIIBTDCBtgIBATANBgkqhkiG9w0BAQUFADBTMQswCQYDVQQGEwJVUzEaMBgGA1UE
ChMRVGVzdCBDZXJ0aWZpY2F0ZXMxKDAmBgNVBAMTH3JlcXVpcmVFeHBsaWNpdFBv
bGljeTUgc3Vic3ViQ0EXDTAxMDQxOTE0NTcyMFoXDTExMDQxOTE0NTcyMFqgLzAt
MB8GA1UdIwQYMBaAFArnYhaoDk8vt7g/J8ijqV97RmunMAoGA1UdFAQDAgEBMA0G
CSqGSIb3DQEBBQUAA4GBABYVPkfNrrJLizDU7sQeKtWEvMqxK6nTN772EdEfYARB
ct/K1Qt0WuinvTIly+jkbce+JcNjnENmFEoO9+rhg6S/XnB7o7cSyTb8mYVYDmbS
oEFuqAcu90U2/nE+xHqI4gvCyd0wgblESCodB1rM4UmaBKZbxGwq8D+POwTqXatw
-----END X509 CRL-----

Certificate Revocation List (CRL):
        Version 2 (0x1)
        Signature Algorithm: sha1WithRSAEncryption
        Issuer: /C=US/O=Test Certificates/CN=requireExplicitPolicy5 subsubsubCA
        Last Update: Apr 19 14:57:20 2001 GMT
        Next Update: Apr 19 14:57:20 2011 GMT
        CRL extensions:
            X509v3 Authority Key Identifier: 
                keyid:3E:A9:30:66:2F:A7:B4:25:88:84:67:C9:AD:98:93:15:F8:96:CE:C5

            X509v3 CRL Number: 
                1
No Revoked Certificates.
    Signature Algorithm: sha1WithRSAEncryption
        0a:d7:14:66:2d:1d:2e:49:9d:35:99:54:76:ee:50:80:e2:37:
        c3:d5:6a:64:02:f2:b2:12:d6:97:8c:a5:75:e0:a9:9e:3b:46:
        ca:ce:31:b9:53:fe:fb:99:15:9b:7b:35:68:5c:9a:60:a0:da:
        a9:2d:d8:1e:b8:89:61:89:01:1b:e4:40:76:fa:b9:62:cf:fe:
        87:6c:95:9e:da:19:db:4c:bd:3e:f1:25:57:3b:d3:ab:94:7b:
        de:5a:ff:55:63:fe:49:ad:3b:45:92:c3:ba:49:79:45:89:3d:
        70:75:a9:53:1f:95:d6:c2:11:46:43:76:41:c0:02:49:23:d0:
        ef:bc
-----BEGIN X509 CRL-----
MIIBTzCBuQIBATANBgkqhkiG9w0BAQUFADBWMQswCQYDVQQGEwJVUzEaMBgGA1UE
ChMRVGVzdCBDZXJ0aWZpY2F0ZXMxKzApBgNVBAMTInJlcXVpcmVFeHBsaWNpdFBv
bGljeTUgc3Vic3Vic3ViQ0EXDTAxMDQxOTE0NTcyMFoXDTExMDQxOTE0NTcyMFqg
LzAtMB8GA1UdIwQYMBaAFD6pMGYvp7QliIRnya2YkxX4ls7FMAoGA1UdFAQDAgEB
MA0GCSqGSIb3DQEBBQUAA4GBAArXFGYtHS5JnTWZVHbuUIDiN8PVamQC8rIS1peM
pXXgqZ47RsrOMblT/vuZFZt7NWhcmmCg2qkt2B64iWGJARvkQHb6uWLP/odslZ7a
GdtMvT7xJVc706uUe95a/1Vj/kmtO0WSw7pJeUWJPXB1qVMfldbCEUZDdkHAAkkj
0O+8
-----END X509 CRL-----

Certificate Revocation List (CRL):
        Version 2 (0x1)
        Signature Algorithm: sha1WithRSAEncryption
        Issuer: /C=US/O=Test Certificates/CN=Trust Anchor
        Last Update: Apr 19 14:57:20 2001 GMT
        Next Update: Apr 19 14:57:20 2011 GMT
        CRL extensions:
            X509v3 Authority Key Identifier: 
                keyid:FB:6C:D4:2D:81:9E:CA:27:7A:9E:0D:B0:3C:EA:9A:BC:87:FF:49:EA

            X509v3 CRL Number: 
                1
Revoked Certificates:
    Serial Number: 68
        Revocation Date: Apr 19 14:57:20 2001 GMT
        CRL entry extensions:
            X509v3 CRL Reason Code: 
                Key Compromise
    Signature Algorithm: sha1WithRSAEncryption
        92:12:c4:34:b4:92:ab:ba:71:6b:74:31:16:ce:ed:25:d6:4b:
        1e:fa:f8:20:1e:9d:d7:7f:30:ed:15:f7:8b:5d:64:9b:dd:31:
        40:e4:55:0f:0c:5f:82:69:63:00:76:a5:cf:9e:c4:5f:f2:53:
        9b:9b:7d:f5:69:1d:74:57:38:70:e5:fb:5b:76:58:c9:ec:31:
        dc:94:1b:02:ee:9d:33:9c:38:4b:29:1d:e1:0c:29:8b:6e:c7:
        bf:a0:e8:40:34:83:cf:ff:9f:cd:b5:f7:d9:4d:a7:9f:2e:bf:
        44:98:6b:f2:d3:fe:a8:20:31:c1:33:76:b7:1c:19:65:4d:b9:
        14:39
-----BEGIN X509 CRL-----
MIIBXTCBxwIBATANBgkqhkiG9w0BAQUFADBAMQswCQYDVQQGEwJVUzEaMBgGA1UE
ChMRVGVzdCBDZXJ0aWZpY2F0ZXMxFTATBgNVBAMTDFRydXN0IEFuY2hvchcNMDEw
NDE5MTQ1NzIwWhcNMTEwNDE5MTQ1NzIwWjAiMCACAWgXDTAxMDQxOTE0NTcyMFow
DDAKBgNVHRUEAwoBAaAvMC0wHwYDVR0jBBgwFoAU+2zULYGeyid6ng2wPOqavIf/
SeowCgYDVR0UBAMCAQEwDQYJKoZIhvcNAQEFBQADgYEAkhLENLSSq7pxa3QxFs7t
JdZLHvr4IB6d138w7RX3i11km90xQORVDwxfgmljAHalz57EX/JTm5t99WkddFc4
cOX7W3ZYyewx3JQbAu6dM5w4Sykd4Qwpi27Hv6DoQDSDz/+fzbX32U2nny6/RJhr
8tP+qCAxwTN2txwZZU25FDk=
-----END X509 CRL-----

