subject=/C=US/O=Test Certificates/CN=UID CA
issuer=/C=US/O=Test Certificates/CN=Trust Anchor
-----BEGIN CERTIFICATE-----
MIICcTCCAdqgAwIBAgICA+kwDQYJKoZIhvcNAQEFBQAwQDELMAkGA1UEBhMCVVMx
GjAYBgNVBAoTEVRlc3QgQ2VydGlmaWNhdGVzMRUwEwYDVQQDEwxUcnVzdCBBbmNo
b3IwHhcNMDEwNDE5MTQ1NzIwWhcNMTEwNDE5MTQ1NzIwWjA6MQswCQYDVQQGEwJV
UzEaMBgGA1UEChMRVGVzdCBDZXJ0aWZpY2F0ZXMxDzANBgNVBAMTBlVJRCBDQTCB
nzANBgkqhkiG9w0BAQEFAAOBjQAwgYkCgYEAyt5HBgA3udSw3/TzrG90sAN/8wyl
eDWkGAUc1kYzyzCyNNRMYjTspi391pcr4incsgjvOY3Xc6YT8ajMzFw0R+ur6hbl
oTYcbzdNNZGzr2w66IMDMntKTpZ2PpUH4XoCvJmNc4xIohL60RqPrGofttwpyfS+
gxXCpVjsfywnR40CAwEAAYICBSCjfDB6MB8GA1UdIwQYMBaAFPts1C2Bnsonep4N
sDzqmryH/0nqMB0GA1UdDgQWBBTSZXzCH9kXQYjs1VhEmgfiHMx4FTAOBgNVHQ8B
Af8EBAMCAQYwFwYDVR0gBBAwDjAMBgpghkgBZQMCATABMA8GA1UdEwEB/wQFMAMB
Af8wDQYJKoZIhvcNAQEFBQADgYEAJZCA4IQ1YgY/8DcUafiLUKwirRsP5C7cCdMr
0POcMDPmF5wyw0VuUGqHnAFEvc3VXjHv7KPJjlq0BPN6Zv/mWpumTOEMZNM8ik5u
2NwuDmexmwkXHhK63MVV+iVsef6nWxx2Xf3ahbbLQgFnMIbLeNzXpIPzyFlQK0V/
ABcwlzg=
-----END CERTIFICATE-----

subject=/C=US/O=Test Certificates/CN=Valid UIDs EE Certificate Test6
issuer=/C=US/O=Test Certificates/CN=UID CA
-----BEGIN CERTIFICATE-----
MIICcjCCAdugAwIBAgIBATANBgkqhkiG9w0BAQUFADA6MQswCQYDVQQGEwJVUzEa
MBgGA1UEChMRVGVzdCBDZXJ0aWZpY2F0ZXMxDzANBgNVBAMTBlVJRCBDQTAeFw0w
MTA0MTkxNDU3MjBaFw0xMTA0MTkxNDU3MjBaMFMxCzAJBgNVBAYTAlVTMRowGAYD
VQQKExFUZXN0IENlcnRpZmljYXRlczEoMCYGA1UEAxMfVmFsaWQgVUlEcyBFRSBD
ZXJ0aWZpY2F0ZSBUZXN0NjCBnzANBgkqhkiG9w0BAQEFAAOBjQAwgYkCgYEA61z4
7chYRZr2FRLh+/4cPggLdSkDgQkdFCuflGzLsN21pmtZue3b7qADRSFwnmP5wQ9L
dOEPzufTiCt3wcPEHCaBCCN0Rr+8iWwww76h7HE0jjU9o7IHje6qAOhc7THvZS3s
kiVb9Nt1J1/KSPM3oltTENEyjuLaXbI9XIYY/p0CAwEAAYECBSCjazBpMB8GA1Ud
IwQYMBaAFNJlfMIf2RdBiOzVWESaB+IczHgVMB0GA1UdDgQWBBRMlbVlFGZ1ahlQ
H8QnvM3PBG+n+DAOBgNVHQ8BAf8EBAMCBPAwFwYDVR0gBBAwDjAMBgpghkgBZQMC
ATABMA0GCSqGSIb3DQEBBQUAA4GBALXKf4ViSQp8LaI9MVvNFJ5b/YG4jXBpGXXp
htEyinitf4scZy55fdtqANeG0Ph5y7633SFANNBWS+enHNQu3Nti8boG52chWIzf
/8vANjunWkn/PVQrI6jXORTFNG+Ia/baFDbpKyjIta1g79QVXdqi7xQ9Neo6r81u
uhx3rn/V
-----END CERTIFICATE-----

Certificate Revocation List (CRL):
        Version 2 (0x1)
        Signature Algorithm: sha1WithRSAEncryption
        Issuer: /C=US/O=Test Certificates/CN=UID CA
        Last Update: Apr 19 14:57:20 2001 GMT
        Next Update: Apr 19 14:57:20 2011 GMT
        CRL extensions:
            X509v3 Authority Key Identifier: 
                keyid:D2:65:7C:C2:1F:D9:17:41:88:EC:D5:58:44:9A:07:E2:1C:CC:78:15

            X509v3 CRL Number: 
                1
No Revoked Certificates.
    Signature Algorithm: sha1WithRSAEncryption
        69:bb:bb:27:78:93:70:70:bc:06:5b:eb:d0:3a:9e:78:3a:e3:
        dc:8a:0f:8d:77:93:e1:6a:c9:83:f5:64:f8:0c:5f:27:0b:1f:
        a9:83:a3:c4:f3:87:ea:24:f8:79:41:a4:44:56:1b:93:78:bd:
        e5:83:d9:60:2f:2e:d0:92:1b:41:2a:90:0c:9f:5f:90:1c:07:
        88:98:b4:6b:cb:78:98:da:30:d2:37:d2:44:19:c7:d3:fc:9e:
        65:89:2e:f4:77:7d:f5:9f:4b:f7:72:3f:32:d9:90:d8:52:0a:
        dc:ce:51:81:21:f5:25:59:02:11:34:8f:52:24:ad:0c:0d:69:
        2f:2d
-----BEGIN X509 CRL-----
MIIBMzCBnQIBATANBgkqhkiG9w0BAQUFADA6MQswCQYDVQQGEwJVUzEaMBgGA1UE
ChMRVGVzdCBDZXJ0aWZpY2F0ZXMxDzANBgNVBAMTBlVJRCBDQRcNMDEwNDE5MTQ1
NzIwWhcNMTEwNDE5MTQ1NzIwWqAvMC0wHwYDVR0jBBgwFoAU0mV8wh/ZF0GI7NVY
RJoH4hzMeBUwCgYDVR0UBAMCAQEwDQYJKoZIhvcNAQEFBQADgYEAabu7J3iTcHC8
Blvr0DqeeDrj3IoPjXeT4WrJg/Vk+AxfJwsfqYOjxPOH6iT4eUGkRFYbk3i95YPZ
YC8u0JIbQSqQDJ9fkBwHiJi0a8t4mNow0jfSRBnH0/yeZYku9Hd99Z9L93I/MtmQ
2FIK3M5RgSH1JVkCETSPUiStDA1pLy0=
-----END X509 CRL-----

Certificate Revocation List (CRL):
        Version 2 (0x1)
        Signature Algorithm: sha1WithRSAEncryption
        Issuer: /C=US/O=Test Certificates/CN=Trust Anchor
        Last Update: Apr 19 14:57:20 2001 GMT
        Next Update: Apr 19 14:57:20 2011 GMT
        CRL extensions:
            X509v3 Authority Key Identifier: 
                keyid:FB:6C:D4:2D:81:9E:CA:27:7A:9E:0D:B0:3C:EA:9A:BC:87:FF:49:EA

            X509v3 CRL Number: 
                1
Revoked Certificates:
    Serial Number: 68
        Revocation Date: Apr 19 14:57:20 2001 GMT
        CRL entry extensions:
            X509v3 CRL Reason Code: 
                Key Compromise
    Signature Algorithm: sha1WithRSAEncryption
        92:12:c4:34:b4:92:ab:ba:71:6b:74:31:16:ce:ed:25:d6:4b:
        1e:fa:f8:20:1e:9d:d7:7f:30:ed:15:f7:8b:5d:64:9b:dd:31:
        40:e4:55:0f:0c:5f:82:69:63:00:76:a5:cf:9e:c4:5f:f2:53:
        9b:9b:7d:f5:69:1d:74:57:38:70:e5:fb:5b:76:58:c9:ec:31:
        dc:94:1b:02:ee:9d:33:9c:38:4b:29:1d:e1:0c:29:8b:6e:c7:
        bf:a0:e8:40:34:83:cf:ff:9f:cd:b5:f7:d9:4d:a7:9f:2e:bf:
        44:98:6b:f2:d3:fe:a8:20:31:c1:33:76:b7:1c:19:65:4d:b9:
        14:39
-----BEGIN X509 CRL-----
MIIBXTCBxwIBATANBgkqhkiG9w0BAQUFADBAMQswCQYDVQQGEwJVUzEaMBgGA1UE
ChMRVGVzdCBDZXJ0aWZpY2F0ZXMxFTATBgNVBAMTDFRydXN0IEFuY2hvchcNMDEw
NDE5MTQ1NzIwWhcNMTEwNDE5MTQ1NzIwWjAiMCACAWgXDTAxMDQxOTE0NTcyMFow
DDAKBgNVHRUEAwoBAaAvMC0wHwYDVR0jBBgwFoAU+2zULYGeyid6ng2wPOqavIf/
SeowCgYDVR0UBAMCAQEwDQYJKoZIhvcNAQEFBQADgYEAkhLENLSSq7pxa3QxFs7t
JdZLHvr4IB6d138w7RX3i11km90xQORVDwxfgmljAHalz57EX/JTm5t99WkddFc4
cOX7W3ZYyewx3JQbAu6dM5w4Sykd4Qwpi27Hv6DoQDSDz/+fzbX32U2nny6/RJhr
8tP+qCAxwTN2txwZZU25FDk=
-----END X509 CRL-----

