subject=/C=US/O=Test Certificates/OU=indirectCRL CA4
issuer=/C=US/O=Test Certificates/CN=Trust Anchor
-----BEGIN CERTIFICATE-----
MIICdTCCAd6gAwIBAgIBVzANBgkqhkiG9w0BAQUFADBAMQswCQYDVQQGEwJVUzEa
MBgGA1UEChMRVGVzdCBDZXJ0aWZpY2F0ZXMxFTATBgNVBAMTDFRydXN0IEFuY2hv
cjAeFw0wMTA0MTkxNDU3MjBaFw0xMTA0MTkxNDU3MjBaMEMxCzAJBgNVBAYTAlVT
MRowGAYDVQQKExFUZXN0IENlcnRpZmljYXRlczEYMBYGA1UECxMPaW5kaXJlY3RD
UkwgQ0E0MIGfMA0GCSqGSIb3DQEBAQUAA4GNADCBiQKBgQDOomKt58EC5ZhZuQ5l
1sHzwQGlV0aO6IxFJcWNzxERgALimki0sMEmrMvIg7vymvt/sQE/n4ivjA4Zmi7J
AvHlOsvgWiM6Kv2pvPkoBbRuOLQz1jrvOXIQlapQc6bsv3Cp8tIpxtNdjHEagqpc
+yL8WWtTTB89P2WOaDjUevZPSQIDAQABo3wwejAfBgNVHSMEGDAWgBT7bNQtgZ7K
J3qeDbA86pq8h/9J6jAdBgNVHQ4EFgQUrbJDVL6XeFCXxQvyNJPFyECwuScwDgYD
VR0PAQH/BAQDAgIEMBcGA1UdIAQQMA4wDAYKYIZIAWUDAgEwATAPBgNVHRMBAf8E
BTADAQH/MA0GCSqGSIb3DQEBBQUAA4GBAFWfQvCC6bO3TFmioOAPr4LLUDYbz8Za
z26H0RgIrFnUEmrPZF7i4/iQpq6cJmWcOb3M3wI/3IlaUmydTEOBpGGazIlk7NF6
28v19V7KsugitbLcZJXOtaqbseyfwWgFT3LLvxV8qJqKBhNR3NUJvjdBYU6KlbeE
rZoFX9Ru0Z0G
-----END CERTIFICATE-----

subject=/C=US/O=Test Certificates/OU=indirectCRL CA4 cRLIssuer
issuer=/C=US/O=Test Certificates/OU=indirectCRL CA4
-----BEGIN CERTIFICATE-----
MIIDWTCCAsKgAwIBAgIBATANBgkqhkiG9w0BAQUFADBDMQswCQYDVQQGEwJVUzEa
MBgGA1UEChMRVGVzdCBDZXJ0aWZpY2F0ZXMxGDAWBgNVBAsTD2luZGlyZWN0Q1JM
IENBNDAeFw0wMTA0MTkxNDU3MjBaFw0xMTA0MTkxNDU3MjBaME0xCzAJBgNVBAYT
AlVTMRowGAYDVQQKExFUZXN0IENlcnRpZmljYXRlczEiMCAGA1UECxMZaW5kaXJl
Y3RDUkwgQ0E0IGNSTElzc3VlcjCBnzANBgkqhkiG9w0BAQEFAAOBjQAwgYkCgYEA
vVQzOttxelJEVuWmMiwdG3GTEejfYhWdQmYtsSPFQ64V3B1F/SYYykFOPCVAbkZh
PvFOhkUY0iQCBXi95lpCsWt31O2l5oIhKuzqBU6q86Ymk32qDQBvwtaHAlHRSdfn
nPsCxWlDQdl5El4WL4/bT60xL1SdwWePNDldrtN7hf8CAwEAAaOCAVEwggFNMB8G
A1UdIwQYMBaAFK2yQ1S+l3hQl8UL8jSTxchAsLknMB0GA1UdDgQWBBQF35wWai5Z
gbV2xnj1OQvb/oVaYzAOBgNVHQ8BAf8EBAMCAQIwFwYDVR0gBBAwDjAMBgpghkgB
ZQMCATABMIHhBgNVHR8EgdkwgdYwgdOgfqB8pHoweDELMAkGA1UEBhMCVVMxGjAY
BgNVBAoTEVRlc3QgQ2VydGlmaWNhdGVzMSIwIAYDVQQLExlpbmRpcmVjdENSTCBD
QTQgY1JMSXNzdWVyMSkwJwYDVQQDEyBpbmRpcmVjdCBDUkwgZm9yIGluZGlyZWN0
Q1JMIENBNKJRpE8wTTELMAkGA1UEBhMCVVMxGjAYBgNVBAoTEVRlc3QgQ2VydGlm
aWNhdGVzMSIwIAYDVQQLExlpbmRpcmVjdENSTCBDQTQgY1JMSXNzdWVyMA0GCSqG
SIb3DQEBBQUAA4GBAFKBu5yoQtqwA+MA/6AboLUyFrryUbT8gm6n5zVA7H5ezmO3
apxKCgdHPEshKAN+SgO2kto0eE/4s2MF++66pMA+r8TDDmCrOfYVwMHyPVOrBKGM
n7C+rt0ozZ32wA3d7k57IIsPT/H56TdX07oV5URZKAJ0k5iaPCBBLmF9w6BE
-----END CERTIFICATE-----

subject=/C=US/O=Test Certificates/CN=Valid cRLIssuer EE Certificate Test30
issuer=/C=US/O=Test Certificates/OU=indirectCRL CA4
-----BEGIN CERTIFICATE-----
MIIDZTCCAs6gAwIBAgIBAjANBgkqhkiG9w0BAQUFADBDMQswCQYDVQQGEwJVUzEa
MBgGA1UEChMRVGVzdCBDZXJ0aWZpY2F0ZXMxGDAWBgNVBAsTD2luZGlyZWN0Q1JM
IENBNDAeFw0wMTA0MTkxNDU3MjBaFw0xMTA0MTkxNDU3MjBaMFkxCzAJBgNVBAYT
AlVTMRowGAYDVQQKExFUZXN0IENlcnRpZmljYXRlczEuMCwGA1UEAxMlVmFsaWQg
Y1JMSXNzdWVyIEVFIENlcnRpZmljYXRlIFRlc3QzMDCBnzANBgkqhkiG9w0BAQEF
AAOBjQAwgYkCgYEArCi7o+0oIpxvpPUN8G1Ys04I2kgIPVMldcU0tM/QiAGdPEXG
j/Hcn9YQZVOGFuuPKge/kZ7wheOIpI91lKkeGqegSWssN1BzgiAJupENTtDlex3I
FqatuDIln6nXgUp984F42mLPqLcXqSiAzCkJiPz24slUDhJiLWkEE0fWFrkCAwEA
AaOCAVEwggFNMB8GA1UdIwQYMBaAFK2yQ1S+l3hQl8UL8jSTxchAsLknMB0GA1Ud
DgQWBBQ4JkHeuoJrm1VjW/qWHf72m1Xm5TAOBgNVHQ8BAf8EBAMCBPAwFwYDVR0g
BBAwDjAMBgpghkgBZQMCATABMIHhBgNVHR8EgdkwgdYwgdOgfqB8pHoweDELMAkG
A1UEBhMCVVMxGjAYBgNVBAoTEVRlc3QgQ2VydGlmaWNhdGVzMSIwIAYDVQQLExlp
bmRpcmVjdENSTCBDQTQgY1JMSXNzdWVyMSkwJwYDVQQDEyBpbmRpcmVjdCBDUkwg
Zm9yIGluZGlyZWN0Q1JMIENBNKJRpE8wTTELMAkGA1UEBhMCVVMxGjAYBgNVBAoT
EVRlc3QgQ2VydGlmaWNhdGVzMSIwIAYDVQQLExlpbmRpcmVjdENSTCBDQTQgY1JM
SXNzdWVyMA0GCSqGSIb3DQEBBQUAA4GBAEGbnAJ6dpMVdHCjEMoVtyK7az1Sxcea
28kAl/5TcdMNyP/DUgoweDRVQcm7sbJ3se3M0ac/+I9ce78YpS2e+83drRFYDRTg
4DRD5RJUr6SS0F4tAwyncyaCsTn577sLWSmnkF3SKBiz6QNr83tetioIeXhAUcoI
0tg5RoGSJkFD
-----END CERTIFICATE-----

Certificate Revocation List (CRL):
        Version 2 (0x1)
        Signature Algorithm: sha1WithRSAEncryption
        Issuer: /C=US/O=Test Certificates/CN=Trust Anchor
        Last Update: Apr 19 14:57:20 2001 GMT
        Next Update: Apr 19 14:57:20 2011 GMT
        CRL extensions:
            X509v3 Authority Key Identifier: 
                keyid:FB:6C:D4:2D:81:9E:CA:27:7A:9E:0D:B0:3C:EA:9A:BC:87:FF:49:EA

            X509v3 CRL Number: 
                1
Revoked Certificates:
    Serial Number: 68
        Revocation Date: Apr 19 14:57:20 2001 GMT
        CRL entry extensions:
            X509v3 CRL Reason Code: 
                Key Compromise
    Signature Algorithm: sha1WithRSAEncryption
        92:12:c4:34:b4:92:ab:ba:71:6b:74:31:16:ce:ed:25:d6:4b:
        1e:fa:f8:20:1e:9d:d7:7f:30:ed:15:f7:8b:5d:64:9b:dd:31:
        40:e4:55:0f:0c:5f:82:69:63:00:76:a5:cf:9e:c4:5f:f2:53:
        9b:9b:7d:f5:69:1d:74:57:38:70:e5:fb:5b:76:58:c9:ec:31:
        dc:94:1b:02:ee:9d:33:9c:38:4b:29:1d:e1:0c:29:8b:6e:c7:
        bf:a0:e8:40:34:83:cf:ff:9f:cd:b5:f7:d9:4d:a7:9f:2e:bf:
        44:98:6b:f2:d3:fe:a8:20:31:c1:33:76:b7:1c:19:65:4d:b9:
        14:39
-----BEGIN X509 CRL-----
MIIBXTCBxwIBATANBgkqhkiG9w0BAQUFADBAMQswCQYDVQQGEwJVUzEaMBgGA1UE
ChMRVGVzdCBDZXJ0aWZpY2F0ZXMxFTATBgNVBAMTDFRydXN0IEFuY2hvchcNMDEw
NDE5MTQ1NzIwWhcNMTEwNDE5MTQ1NzIwWjAiMCACAWgXDTAxMDQxOTE0NTcyMFow
DDAKBgNVHRUEAwoBAaAvMC0wHwYDVR0jBBgwFoAU+2zULYGeyid6ng2wPOqavIf/
SeowCgYDVR0UBAMCAQEwDQYJKoZIhvcNAQEFBQADgYEAkhLENLSSq7pxa3QxFs7t
JdZLHvr4IB6d138w7RX3i11km90xQORVDwxfgmljAHalz57EX/JTm5t99WkddFc4
cOX7W3ZYyewx3JQbAu6dM5w4Sykd4Qwpi27Hv6DoQDSDz/+fzbX32U2nny6/RJhr
8tP+qCAxwTN2txwZZU25FDk=
-----END X509 CRL-----

Certificate Revocation List (CRL):
        Version 2 (0x1)
        Signature Algorithm: sha1WithRSAEncryption
        Issuer: /C=US/O=Test Certificates/OU=indirectCRL CA4 cRLIssuer
        Last Update: Apr 19 14:57:20 2001 GMT
        Next Update: Apr 19 14:57:20 2011 GMT
        CRL extensions:
            X509v3 Authority Key Identifier: 
                keyid:05:DF:9C:16:6A:2E:59:81:B5:76:C6:78:F5:39:0B:DB:FE:85:5A:63

            X509v3 CRL Number: 
                1
            2.5.29.28: critical
                0...~.|.z0x1.0...U....US1.0...U.
..Test Certificates1"0 ..U....indirectCRL CA4 cRLIssuer1)0'..U... indirect CRL for indirectCRL CA4...
No Revoked Certificates.
    Signature Algorithm: sha1WithRSAEncryption
        8f:7e:a7:21:7b:8e:70:00:d3:23:a8:d7:d5:ce:87:34:44:e0:
        ad:e2:89:f6:7e:9d:5b:2a:b7:af:57:bf:95:bf:5e:6b:f9:1c:
        40:77:87:ea:eb:b1:ad:0c:e1:55:82:93:f0:bb:f6:e5:4c:33:
        69:e5:41:c1:c9:6e:ae:b4:98:38:a0:1e:38:e1:20:84:d9:2d:
        9f:2f:07:90:7e:30:7c:a1:c5:0d:c3:04:39:aa:97:b5:30:6f:
        d9:e9:dd:78:d4:f9:49:01:69:93:da:e9:30:2e:ce:5b:89:cd:
        5b:c7:48:31:69:bc:06:9a:6a:cc:02:2f:bd:5b:78:b4:c4:ad:
        8b:ef
-----BEGIN X509 CRL-----
MIIB3TCCAUYCAQEwDQYJKoZIhvcNAQEFBQAwTTELMAkGA1UEBhMCVVMxGjAYBgNV
BAoTEVRlc3QgQ2VydGlmaWNhdGVzMSIwIAYDVQQLExlpbmRpcmVjdENSTCBDQTQg
Y1JMSXNzdWVyFw0wMTA0MTkxNDU3MjBaFw0xMTA0MTkxNDU3MjBaoIHEMIHBMB8G
A1UdIwQYMBaAFAXfnBZqLlmBtXbGePU5C9v+hVpjMAoGA1UdFAQDAgEBMIGRBgNV
HRwBAf8EgYYwgYOgfqB8pHoweDELMAkGA1UEBhMCVVMxGjAYBgNVBAoTEVRlc3Qg
Q2VydGlmaWNhdGVzMSIwIAYDVQQLExlpbmRpcmVjdENSTCBDQTQgY1JMSXNzdWVy
MSkwJwYDVQQDEyBpbmRpcmVjdCBDUkwgZm9yIGluZGlyZWN0Q1JMIENBNIQB/zAN
BgkqhkiG9w0BAQUFAAOBgQCPfqche45wANMjqNfVzoc0ROCt4on2fp1bKrevV7+V
v15r+RxAd4fq67GtDOFVgpPwu/blTDNp5UHByW6utJg4oB444SCE2S2fLweQfjB8
ocUNwwQ5qpe1MG/Z6d141PlJAWmT2ukwLs5bic1bx0gxabwGmmrMAi+9W3i0xK2L
7w==
-----END X509 CRL-----

