subject=/C=US/O=Test Certificates/CN=Valid Unknown Not Critical Certificate Extension EE Cert Test1
issuer=/C=US/O=Test Certificates/CN=Trust Anchor
-----BEGIN CERTIFICATE-----
MIICpTCCAg6gAwIBAgIBXjANBgkqhkiG9w0BAQUFADBAMQswCQYDVQQGEwJVUzEa
MBgGA1UEChMRVGVzdCBDZXJ0aWZpY2F0ZXMxFTATBgNVBAMTDFRydXN0IEFuY2hv
cjAeFw0wMTA0MTkxNDU3MjBaFw0xMTA0MTkxNDU3MjBaMHIxCzAJBgNVBAYTAlVT
MRowGAYDVQQKExFUZXN0IENlcnRpZmljYXRlczFHMEUGA1UEAxM+VmFsaWQgVW5r
bm93biBOb3QgQ3JpdGljYWwgQ2VydGlmaWNhdGUgRXh0ZW5zaW9uIEVFIENlcnQg
VGVzdDEwgZ8wDQYJKoZIhvcNAQEBBQADgY0AMIGJAoGBAKhu9MiazK4MZfZxFp8b
EqQNtc72SyzLI8gVU6uacEHKLpo7auSD72gD77oJKNLO0wW/lJmBZrr8N6Vb10xG
UDpyNayjEHhIQ9YGjQ0iFAzwBZdxSba417KwGoZEtWDwXDgHFcJkpdeO0cmvN/WY
T3hTDuDubTGzkT/z3o7HLBXVAgMBAAGjfTB7MB8GA1UdIwQYMBaAFPts1C2Bnson
ep4NsDzqmryH/0nqMB0GA1UdDgQWBBT2UVRewjWmpJzpb1mXbOTeaXT6qjAOBgNV
HQ8BAf8EBAMCBPAwFwYDVR0gBBAwDjAMBgpghkgBZQMCATABMBAGCWCGSAFlAgEM
AgQDAgEAMA0GCSqGSIb3DQEBBQUAA4GBABs3aiPSbahf2RsQXVpA2945ngkKbfef
RWOSqb+RmLmR3zburW1DXXzu3XSEOB8Ud75OdMvg9MIeKss1EqhEp3Bp4ltMa4+V
xORBZ1hlK47mQAPiGsshFriTYp1nVfzHfByAFuwYZFLhjJnk2w/nyq5kyQ3AjfpQ
XaezK4Qnje4K
-----END CERTIFICATE-----

Certificate Revocation List (CRL):
        Version 2 (0x1)
        Signature Algorithm: sha1WithRSAEncryption
        Issuer: /C=US/O=Test Certificates/CN=Trust Anchor
        Last Update: Apr 19 14:57:20 2001 GMT
        Next Update: Apr 19 14:57:20 2011 GMT
        CRL extensions:
            X509v3 Authority Key Identifier: 
                keyid:FB:6C:D4:2D:81:9E:CA:27:7A:9E:0D:B0:3C:EA:9A:BC:87:FF:49:EA

            X509v3 CRL Number: 
                1
Revoked Certificates:
    Serial Number: 68
        Revocation Date: Apr 19 14:57:20 2001 GMT
        CRL entry extensions:
            X509v3 CRL Reason Code: 
                Key Compromise
    Signature Algorithm: sha1WithRSAEncryption
        92:12:c4:34:b4:92:ab:ba:71:6b:74:31:16:ce:ed:25:d6:4b:
        1e:fa:f8:20:1e:9d:d7:7f:30:ed:15:f7:8b:5d:64:9b:dd:31:
        40:e4:55:0f:0c:5f:82:69:63:00:76:a5:cf:9e:c4:5f:f2:53:
        9b:9b:7d:f5:69:1d:74:57:38:70:e5:fb:5b:76:58:c9:ec:31:
        dc:94:1b:02:ee:9d:33:9c:38:4b:29:1d:e1:0c:29:8b:6e:c7:
        bf:a0:e8:40:34:83:cf:ff:9f:cd:b5:f7:d9:4d:a7:9f:2e:bf:
        44:98:6b:f2:d3:fe:a8:20:31:c1:33:76:b7:1c:19:65:4d:b9:
        14:39
-----BEGIN X509 CRL-----
MIIBXTCBxwIBATANBgkqhkiG9w0BAQUFADBAMQswCQYDVQQGEwJVUzEaMBgGA1UE
ChMRVGVzdCBDZXJ0aWZpY2F0ZXMxFTATBgNVBAMTDFRydXN0IEFuY2hvchcNMDEw
NDE5MTQ1NzIwWhcNMTEwNDE5MTQ1NzIwWjAiMCACAWgXDTAxMDQxOTE0NTcyMFow
DDAKBgNVHRUEAwoBAaAvMC0wHwYDVR0jBBgwFoAU+2zULYGeyid6ng2wPOqavIf/
SeowCgYDVR0UBAMCAQEwDQYJKoZIhvcNAQEFBQADgYEAkhLENLSSq7pxa3QxFs7t
JdZLHvr4IB6d138w7RX3i11km90xQORVDwxfgmljAHalz57EX/JTm5t99WkddFc4
cOX7W3ZYyewx3JQbAu6dM5w4Sykd4Qwpi27Hv6DoQDSDz/+fzbX32U2nny6/RJhr
8tP+qCAxwTN2txwZZU25FDk=
-----END X509 CRL-----

