subject=/C=US/O=Test Certificates/CN=inhibitAnyPolicy1 subCA2
issuer=/C=US/O=Test Certificates/CN=inhibitAnyPolicy1 CA
-----BEGIN CERTIFICATE-----
MIICgDCCAemgAwIBAgIBBDANBgkqhkiG9w0BAQUFADBIMQswCQYDVQQGEwJVUzEa
MBgGA1UEChMRVGVzdCBDZXJ0aWZpY2F0ZXMxHTAbBgNVBAMTFGluaGliaXRBbnlQ
b2xpY3kxIENBMB4XDTAxMDQxOTE0NTcyMFoXDTExMDQxOTE0NTcyMFowTDELMAkG
A1UEBhMCVVMxGjAYBgNVBAoTEVRlc3QgQ2VydGlmaWNhdGVzMSEwHwYDVQQDExhp
bmhpYml0QW55UG9saWN5MSBzdWJDQTIwgZ8wDQYJKoZIhvcNAQEBBQADgY0AMIGJ
AoGBAOJaxR70a7a1EjJOHlf9fG9BEsSto4MGr1bnQLMud29/o1aka1mDrcT4ehXL
RT2j2lOFHI+7Cv5UrjI2iI/CWsH+z+PM+sB19pJmrqshzC5FwfeHDzFTUsn8D+5R
WJAx3NZbB++nDKkIIPql/K61Z8VyKD+3k7nNSHvXV+dKCWd3AgMBAAGjdjB0MB8G
A1UdIwQYMBaAFKeFECzgAW7nVCNqd6KPFwSv++MSMB0GA1UdDgQWBBSryEEAJtDV
TOYrVmfs74LEwt3yVTAOBgNVHQ8BAf8EBAMCAQYwEQYDVR0gBAowCDAGBgRVHSAA
MA8GA1UdEwEB/wQFMAMBAf8wDQYJKoZIhvcNAQEFBQADgYEAcBSBfFavoevmu4Jr
Fzz3LyHSA3rWhajms8ZL6AtVPDfyQaJsZizVZqKYejWLXv3jNCri/c5BBB2XTXdD
zAQfwr2W2FfXMkNDUWt95C0NOF7NK5Z2XbmFMGaqn8y/rsYv+Zj7zl98yp0efRKw
JEDyqFgkV/+0sLFjQvvcCdY9ucM=
-----END CERTIFICATE-----

subject=/C=US/O=Test Certificates/CN=inhibitAnyPolicy1 CA
issuer=/C=US/O=Test Certificates/CN=inhibitAnyPolicy1 CA
-----BEGIN CERTIFICATE-----
MIICgjCCAeugAwIBAgIBAzANBgkqhkiG9w0BAQUFADBIMQswCQYDVQQGEwJVUzEa
MBgGA1UEChMRVGVzdCBDZXJ0aWZpY2F0ZXMxHTAbBgNVBAMTFGluaGliaXRBbnlQ
b2xpY3kxIENBMB4XDTAxMDQxOTE0NTcyMFoXDTExMDQxOTE0NTcyMFowSDELMAkG
A1UEBhMCVVMxGjAYBgNVBAoTEVRlc3QgQ2VydGlmaWNhdGVzMR0wGwYDVQQDExRp
bmhpYml0QW55UG9saWN5MSBDQTCBnzANBgkqhkiG9w0BAQEFAAOBjQAwgYkCgYEA
vcxz0dHrlH/i+DaS78z2Y0O98xlH0yo64kCvWxGo//3ZvMZl+wyQwcAOqDnIH20X
Fi+G9BhwuyzlaqMenvEQFImtvvDspxYtq/xqmTHET1+9rkF0f8Ex8uV9VgGGMJFB
Kjax2S+jexoGNro4EeLopi6cOXBgeqwkzcpdi0C3ugECAwEAAaN8MHowHwYDVR0j
BBgwFoAUZtu1lMcFxLM+K5G538io0E0rNEQwHQYDVR0OBBYEFKeFECzgAW7nVCNq
d6KPFwSv++MSMA4GA1UdDwEB/wQEAwIBBjAXBgNVHSAEEDAOMAwGCmCGSAFlAwIB
MAEwDwYDVR0TAQH/BAUwAwEB/zANBgkqhkiG9w0BAQUFAAOBgQDGuWkVLrBfOy6K
Y46FaTMnWYkjBWyjC9mgPrq97h90tejc8Z+5Q7u+WD+f//iSoC19Uy65lnk10g56
UqaqA7zZQ25N28un3YqnKwS1pWrtUGNiAi3vYPUkmwq+6PJvWAcVl56td6OmQOIO
hDwXMBUcDUYTCVAMRY5fiMx7ARRmeQ==
-----END CERTIFICATE-----

subject=/C=US/O=Test Certificates/CN=Valid Self-Issued inhibitAnyPolicy EE Certificate Test7
issuer=/C=US/O=Test Certificates/CN=inhibitAnyPolicy1 subCA2
-----BEGIN CERTIFICATE-----
MIICmDCCAgGgAwIBAgIBATANBgkqhkiG9w0BAQUFADBMMQswCQYDVQQGEwJVUzEa
MBgGA1UEChMRVGVzdCBDZXJ0aWZpY2F0ZXMxITAfBgNVBAMTGGluaGliaXRBbnlQ
b2xpY3kxIHN1YkNBMjAeFw0wMTA0MTkxNDU3MjBaFw0xMTA0MTkxNDU3MjBaMGsx
CzAJBgNVBAYTAlVTMRowGAYDVQQKExFUZXN0IENlcnRpZmljYXRlczFAMD4GA1UE
AxM3VmFsaWQgU2VsZi1Jc3N1ZWQgaW5oaWJpdEFueVBvbGljeSBFRSBDZXJ0aWZp
Y2F0ZSBUZXN0NzCBnzANBgkqhkiG9w0BAQEFAAOBjQAwgYkCgYEA6DBDhDh8Fq9l
WtOenCnLV5XS52CTXaNqy6/fxR6xw6bm0s2p2D0Br1TeO6qn9oxXMMohGo1XU/wk
hUbde93GnnMNVlPZqTvaGvcq5OjaE9Y7r/QE+P/dSV/mXJsmIbwbba/n4KqgF6yj
XfJ5QXz2jEVWKIAESIUdsz8i73joVw8CAwEAAaNrMGkwHwYDVR0jBBgwFoAUq8hB
ACbQ1UzmK1Zn7O+CxMLd8lUwHQYDVR0OBBYEFOlqW20Og/KffGodN27T80jZjAQu
MA4GA1UdDwEB/wQEAwIE8DAXBgNVHSAEEDAOMAwGCmCGSAFlAwIBMAEwDQYJKoZI
hvcNAQEFBQADgYEAaRukvyRgU3wxzMNx2864sByNAhV3ujEGeCMnBn3DLfeM5ioo
PXYjuq2PEs6I+o55xSX1cGwCtcZHay0MGiz292T5DUrhDJoN8nhJ+yNjzsjB2kpv
zJrDwMEv5liNVCtbsVNMDCBsje+ukkmbmVVVzpRlnmVmwrWsX58V/pX4crU=
-----END CERTIFICATE-----

subject=/C=US/O=Test Certificates/CN=inhibitAnyPolicy1 CA
issuer=/C=US/O=Test Certificates/CN=Trust Anchor
-----BEGIN CERTIFICATE-----
MIICmTCCAgKgAwIBAgIBPDANBgkqhkiG9w0BAQUFADBAMQswCQYDVQQGEwJVUzEa
MBgGA1UEChMRVGVzdCBDZXJ0aWZpY2F0ZXMxFTATBgNVBAMTDFRydXN0IEFuY2hv
cjAeFw0wMTA0MTkxNDU3MjBaFw0xMTA0MTkxNDU3MjBaMEgxCzAJBgNVBAYTAlVT
MRowGAYDVQQKExFUZXN0IENlcnRpZmljYXRlczEdMBsGA1UEAxMUaW5oaWJpdEFu
eVBvbGljeTEgQ0EwgZ8wDQYJKoZIhvcNAQEBBQADgY0AMIGJAoGBAM97WBxcmLvJ
SCQLpyIPIhnb86f8mT4hWgvgIiFRNZDdlqrMl5D754iGLwoSRYWm6NZzneNuxpXa
sX+q9JyoOc6/7ZQy37w/cp6Elcq77KWgALd2zRbEAbFOtdy216GpPB+3c9I7msQT
W6bbzzGuqbTxaEEvWptSCBqXuFY6FR+XAgMBAAGjgZowgZcwHwYDVR0jBBgwFoAU
+2zULYGeyid6ng2wPOqavIf/SeowHQYDVR0OBBYEFGbbtZTHBcSzPiuRud/IqNBN
KzREMA4GA1UdDwEB/wQEAwIBBjAXBgNVHSAEEDAOMAwGCmCGSAFlAwIBMAEwDwYD
VR0TAQH/BAUwAwEB/zAMBgNVHSQEBTADgAEAMA0GA1UdNgEB/wQDAgEBMA0GCSqG
SIb3DQEBBQUAA4GBAJTqlrUt2/8sAjVasjqUiKDtFgaFp8ueEU93bKb/90sW+uxF
HCyYOqmVYnjKLDGYR0rR9R9hErIFwlqIz3ff2K6cq7ND2uLm8BctGWmvP3s56y7V
CooCKzBgRilaPqsJw12BrGGjZ4CaYx8ov4puyRW11UjrAcWn/8AIWCmIPuzH
-----END CERTIFICATE-----

Certificate Revocation List (CRL):
        Version 2 (0x1)
        Signature Algorithm: sha1WithRSAEncryption
        Issuer: /C=US/O=Test Certificates/CN=inhibitAnyPolicy1 CA
        Last Update: Apr 19 14:57:20 2001 GMT
        Next Update: Apr 19 14:57:20 2011 GMT
        CRL extensions:
            X509v3 Authority Key Identifier: 
                keyid:66:DB:B5:94:C7:05:C4:B3:3E:2B:91:B9:DF:C8:A8:D0:4D:2B:34:44

            X509v3 CRL Number: 
                1
No Revoked Certificates.
    Signature Algorithm: sha1WithRSAEncryption
        03:a6:22:4b:c0:43:a0:ed:e5:8e:d1:8b:0b:d2:cc:b6:8b:9b:
        21:e8:fc:2f:84:a1:cd:3c:a0:bf:73:be:9a:00:f2:b4:90:e5:
        15:a0:31:87:2b:61:f0:cd:3e:ad:db:d8:2d:91:db:ba:8f:5c:
        fd:95:59:36:0c:ba:0b:f1:79:a9:68:96:a1:2e:14:cc:0b:6a:
        43:93:0a:80:71:b7:3e:8e:3a:da:74:31:5c:1c:ec:82:b9:3c:
        88:ff:6f:51:05:f5:f8:d8:47:c2:9f:3d:3c:5c:98:be:f0:de:
        9d:d8:a6:56:e9:53:62:cd:09:56:91:c7:ea:c8:bb:2e:05:a6:
        38:b5
-----BEGIN X509 CRL-----
MIIBQTCBqwIBATANBgkqhkiG9w0BAQUFADBIMQswCQYDVQQGEwJVUzEaMBgGA1UE
ChMRVGVzdCBDZXJ0aWZpY2F0ZXMxHTAbBgNVBAMTFGluaGliaXRBbnlQb2xpY3kx
IENBFw0wMTA0MTkxNDU3MjBaFw0xMTA0MTkxNDU3MjBaoC8wLTAfBgNVHSMEGDAW
gBRm27WUxwXEsz4rkbnfyKjQTSs0RDAKBgNVHRQEAwIBATANBgkqhkiG9w0BAQUF
AAOBgQADpiJLwEOg7eWO0YsL0sy2i5sh6PwvhKHNPKC/c76aAPK0kOUVoDGHK2Hw
zT6t29gtkdu6j1z9lVk2DLoL8XmpaJahLhTMC2pDkwqAcbc+jjradDFcHOyCuTyI
/29RBfX42EfCnz08XJi+8N6d2KZW6VNizQlWkcfqyLsuBaY4tQ==
-----END X509 CRL-----

Certificate Revocation List (CRL):
        Version 2 (0x1)
        Signature Algorithm: sha1WithRSAEncryption
        Issuer: /C=US/O=Test Certificates/CN=inhibitAnyPolicy1 subCA2
        Last Update: Apr 19 14:57:20 2001 GMT
        Next Update: Apr 19 14:57:20 2011 GMT
        CRL extensions:
            X509v3 Authority Key Identifier: 
                keyid:AB:C8:41:00:26:D0:D5:4C:E6:2B:56:67:EC:EF:82:C4:C2:DD:F2:55

            X509v3 CRL Number: 
                1
No Revoked Certificates.
    Signature Algorithm: sha1WithRSAEncryption
        85:eb:03:68:bb:91:5d:9a:09:2a:f7:5c:73:90:8d:e8:4b:23:
        92:c3:d6:b3:8b:81:ba:d2:b9:dc:a1:e4:48:29:a8:98:cf:59:
        db:2b:1e:de:1a:ce:db:cd:5a:dd:de:f5:f3:91:13:9c:1e:a6:
        c8:4c:d1:ee:24:10:7c:95:df:a0:ed:4d:f9:a5:16:43:89:af:
        18:f6:1c:24:b0:70:9c:62:86:07:f8:0c:e1:61:d6:99:ed:7b:
        88:58:9f:79:d6:3a:1e:ba:aa:52:97:13:5e:00:7d:00:ce:9a:
        d2:34:9f:0d:bc:18:09:f8:10:2d:c5:d2:8f:d7:eb:a9:59:25:
        45:1c
-----BEGIN X509 CRL-----
MIIBRTCBrwIBATANBgkqhkiG9w0BAQUFADBMMQswCQYDVQQGEwJVUzEaMBgGA1UE
ChMRVGVzdCBDZXJ0aWZpY2F0ZXMxITAfBgNVBAMTGGluaGliaXRBbnlQb2xpY3kx
IHN1YkNBMhcNMDEwNDE5MTQ1NzIwWhcNMTEwNDE5MTQ1NzIwWqAvMC0wHwYDVR0j
BBgwFoAUq8hBACbQ1UzmK1Zn7O+CxMLd8lUwCgYDVR0UBAMCAQEwDQYJKoZIhvcN
AQEFBQADgYEAhesDaLuRXZoJKvdcc5CN6EsjksPWs4uButK53KHkSCmomM9Z2yse
3hrO281a3d7185ETnB6myEzR7iQQfJXfoO1N+aUWQ4mvGPYcJLBwnGKGB/gM4WHW
me17iFifedY6HrqqUpcTXgB9AM6a0jSfDbwYCfgQLcXSj9frqVklRRw=
-----END X509 CRL-----

Certificate Revocation List (CRL):
        Version 2 (0x1)
        Signature Algorithm: sha1WithRSAEncryption
        Issuer: /C=US/O=Test Certificates/CN=Trust Anchor
        Last Update: Apr 19 14:57:20 2001 GMT
        Next Update: Apr 19 14:57:20 2011 GMT
        CRL extensions:
            X509v3 Authority Key Identifier: 
                keyid:FB:6C:D4:2D:81:9E:CA:27:7A:9E:0D:B0:3C:EA:9A:BC:87:FF:49:EA

            X509v3 CRL Number: 
                1
Revoked Certificates:
    Serial Number: 68
        Revocation Date: Apr 19 14:57:20 2001 GMT
        CRL entry extensions:
            X509v3 CRL Reason Code: 
                Key Compromise
    Signature Algorithm: sha1WithRSAEncryption
        92:12:c4:34:b4:92:ab:ba:71:6b:74:31:16:ce:ed:25:d6:4b:
        1e:fa:f8:20:1e:9d:d7:7f:30:ed:15:f7:8b:5d:64:9b:dd:31:
        40:e4:55:0f:0c:5f:82:69:63:00:76:a5:cf:9e:c4:5f:f2:53:
        9b:9b:7d:f5:69:1d:74:57:38:70:e5:fb:5b:76:58:c9:ec:31:
        dc:94:1b:02:ee:9d:33:9c:38:4b:29:1d:e1:0c:29:8b:6e:c7:
        bf:a0:e8:40:34:83:cf:ff:9f:cd:b5:f7:d9:4d:a7:9f:2e:bf:
        44:98:6b:f2:d3:fe:a8:20:31:c1:33:76:b7:1c:19:65:4d:b9:
        14:39
-----BEGIN X509 CRL-----
MIIBXTCBxwIBATANBgkqhkiG9w0BAQUFADBAMQswCQYDVQQGEwJVUzEaMBgGA1UE
ChMRVGVzdCBDZXJ0aWZpY2F0ZXMxFTATBgNVBAMTDFRydXN0IEFuY2hvchcNMDEw
NDE5MTQ1NzIwWhcNMTEwNDE5MTQ1NzIwWjAiMCACAWgXDTAxMDQxOTE0NTcyMFow
DDAKBgNVHRUEAwoBAaAvMC0wHwYDVR0jBBgwFoAU+2zULYGeyid6ng2wPOqavIf/
SeowCgYDVR0UBAMCAQEwDQYJKoZIhvcNAQEFBQADgYEAkhLENLSSq7pxa3QxFs7t
JdZLHvr4IB6d138w7RX3i11km90xQORVDwxfgmljAHalz57EX/JTm5t99WkddFc4
cOX7W3ZYyewx3JQbAu6dM5w4Sykd4Qwpi27Hv6DoQDSDz/+fzbX32U2nny6/RJhr
8tP+qCAxwTN2txwZZU25FDk=
-----END X509 CRL-----

