subject=/C=US/O=Test Certificates/CN=basicConstraints Not Critical CA
issuer=/C=US/O=Test Certificates/CN=Trust Anchor
-----BEGIN CERTIFICATE-----
MIICgzCCAeygAwIBAgIBGTANBgkqhkiG9w0BAQUFADBAMQswCQYDVQQGEwJVUzEa
MBgGA1UEChMRVGVzdCBDZXJ0aWZpY2F0ZXMxFTATBgNVBAMTDFRydXN0IEFuY2hv
cjAeFw0wMTA0MTkxNDU3MjBaFw0xMTA0MTkxNDU3MjBaMFQxCzAJBgNVBAYTAlVT
MRowGAYDVQQKExFUZXN0IENlcnRpZmljYXRlczEpMCcGA1UEAxMgYmFzaWNDb25z
dHJhaW50cyBOb3QgQ3JpdGljYWwgQ0EwgZ8wDQYJKoZIhvcNAQEBBQADgY0AMIGJ
AoGBANLhA0OA9wRfp95Q7/HTBd7PlWljTlLaWClrNNQ1jWPhuQJN3ww9dy42U/na
HvOcy9yz2ANw44VJKqLn68rVvypadYoWUNUGPHgHSrhj37Dj/mNkFmw18BcEgpED
4OIp2vJW00ZLeMt7ItsFh1pxpaHZl4WDHIWKh0BAuw7VBWhpAgMBAAGjeTB3MB8G
A1UdIwQYMBaAFPts1C2Bnsonep4NsDzqmryH/0nqMB0GA1UdDgQWBBTYuN8r/BQM
rtcTVstcPg56jM+RCDAOBgNVHQ8BAf8EBAMCAQYwFwYDVR0gBBAwDjAMBgpghkgB
ZQMCATABMAwGA1UdEwQFMAMBAf8wDQYJKoZIhvcNAQEFBQADgYEACqRpg4KhHWSs
qfP23ZQX2hAOVVT/0AqaTcnNCQVLGE4sE16rMPQMZQ4qpb1WAPZIq6gs+P43deDu
5M4evZgQVheRR7RqQm7/7ZXAiJ4uzAvJjWP5eYg23OyHqPvaK76reyPgde/gegWq
Lj/0XhyySYlWDr4i138LYLsfUDy2rWw=
-----END CERTIFICATE-----

subject=/C=US/O=Test Certificates/CN=Valid basicConstraints Not Critical EE Certificate Test4
issuer=/C=US/O=Test Certificates/CN=basicConstraints Not Critical CA
-----BEGIN CERTIFICATE-----
MIICoTCCAgqgAwIBAgIBATANBgkqhkiG9w0BAQUFADBUMQswCQYDVQQGEwJVUzEa
MBgGA1UEChMRVGVzdCBDZXJ0aWZpY2F0ZXMxKTAnBgNVBAMTIGJhc2ljQ29uc3Ry
YWludHMgTm90IENyaXRpY2FsIENBMB4XDTAxMDQxOTE0NTcyMFoXDTExMDQxOTE0
NTcyMFowbDELMAkGA1UEBhMCVVMxGjAYBgNVBAoTEVRlc3QgQ2VydGlmaWNhdGVz
MUEwPwYDVQQDEzhWYWxpZCBiYXNpY0NvbnN0cmFpbnRzIE5vdCBDcml0aWNhbCBF
RSBDZXJ0aWZpY2F0ZSBUZXN0NDCBnzANBgkqhkiG9w0BAQEFAAOBjQAwgYkCgYEA
ztwCM4KjCZAusrt0pqJODe24QkEVIKHLb4UAlOxeSbZZ4Ye5BtR5NylouUsMu8Ja
XKoU+BxIWXmUrP7HSt2+D8HI33xczpxfXCUyYmY/ht58WkhRSur9n3XUBErcVOe1
xoV/2CNceuS97TvupEAYDKkcK+Uv+gBZpuLyY2jF4ccCAwEAAaNrMGkwHwYDVR0j
BBgwFoAU2LjfK/wUDK7XE1bLXD4OeozPkQgwHQYDVR0OBBYEFAL9NE678Dg8eh16
3hZvX02XaVPoMA4GA1UdDwEB/wQEAwIE8DAXBgNVHSAEEDAOMAwGCmCGSAFlAwIB
MAEwDQYJKoZIhvcNAQEFBQADgYEAxH3RpgHseEdMz+tdowijXMxxOgAvJ+bDmb4W
VmA6BBlPljNwDeOJ5mu/qq2HaTbeYYkqxfGw/V0Nv5GoG4Ak0xnSFaVz8+dVEzDN
Avks85QOwYREyw/sxlpU7uOjlWBOwfkglUJM8UU2ZpBMlJf6sn7bEf5W9w35ZUo8
Vlf2alk=
-----END CERTIFICATE-----

Certificate Revocation List (CRL):
        Version 2 (0x1)
        Signature Algorithm: sha1WithRSAEncryption
        Issuer: /C=US/O=Test Certificates/CN=basicConstraints Not Critical CA
        Last Update: Apr 19 14:57:20 2001 GMT
        Next Update: Apr 19 14:57:20 2011 GMT
        CRL extensions:
            X509v3 Authority Key Identifier: 
                keyid:D8:B8:DF:2B:FC:14:0C:AE:D7:13:56:CB:5C:3E:0E:7A:8C:CF:91:08

            X509v3 CRL Number: 
                1
No Revoked Certificates.
    Signature Algorithm: sha1WithRSAEncryption
        9d:dc:8e:45:7e:1c:6d:56:eb:08:bd:04:5c:c7:9d:21:a0:ae:
        69:b7:35:a2:b5:31:34:85:f0:0a:92:7d:20:36:2e:32:dc:b9:
        8c:cb:ad:39:97:35:3a:9c:d1:68:37:f0:9a:06:ad:da:42:67:
        92:30:82:b8:52:db:c5:d5:39:d4:2f:cd:7b:ec:18:43:56:6d:
        d7:2f:31:9c:59:48:fa:07:af:f9:fd:3a:b7:e0:b2:4b:0a:7c:
        e9:7b:04:81:75:1f:58:a2:70:bb:30:bb:e2:14:21:0e:34:74:
        ea:e3:41:e5:d0:c0:b4:7d:51:52:f6:7f:51:13:be:78:96:25:
        a5:8a
-----BEGIN X509 CRL-----
MIIBTTCBtwIBATANBgkqhkiG9w0BAQUFADBUMQswCQYDVQQGEwJVUzEaMBgGA1UE
ChMRVGVzdCBDZXJ0aWZpY2F0ZXMxKTAnBgNVBAMTIGJhc2ljQ29uc3RyYWludHMg
Tm90IENyaXRpY2FsIENBFw0wMTA0MTkxNDU3MjBaFw0xMTA0MTkxNDU3MjBaoC8w
LTAfBgNVHSMEGDAWgBTYuN8r/BQMrtcTVstcPg56jM+RCDAKBgNVHRQEAwIBATAN
BgkqhkiG9w0BAQUFAAOBgQCd3I5FfhxtVusIvQRcx50hoK5ptzWitTE0hfAKkn0g
Ni4y3LmMy605lzU6nNFoN/CaBq3aQmeSMIK4UtvF1TnUL8177BhDVm3XLzGcWUj6
B6/5/Tq34LJLCnzpewSBdR9YonC7MLviFCEONHTq40Hl0MC0fVFS9n9RE754liWl
ig==
-----END X509 CRL-----

Certificate Revocation List (CRL):
        Version 2 (0x1)
        Signature Algorithm: sha1WithRSAEncryption
        Issuer: /C=US/O=Test Certificates/CN=Trust Anchor
        Last Update: Apr 19 14:57:20 2001 GMT
        Next Update: Apr 19 14:57:20 2011 GMT
        CRL extensions:
            X509v3 Authority Key Identifier: 
                keyid:FB:6C:D4:2D:81:9E:CA:27:7A:9E:0D:B0:3C:EA:9A:BC:87:FF:49:EA

            X509v3 CRL Number: 
                1
Revoked Certificates:
    Serial Number: 68
        Revocation Date: Apr 19 14:57:20 2001 GMT
        CRL entry extensions:
            X509v3 CRL Reason Code: 
                Key Compromise
    Signature Algorithm: sha1WithRSAEncryption
        92:12:c4:34:b4:92:ab:ba:71:6b:74:31:16:ce:ed:25:d6:4b:
        1e:fa:f8:20:1e:9d:d7:7f:30:ed:15:f7:8b:5d:64:9b:dd:31:
        40:e4:55:0f:0c:5f:82:69:63:00:76:a5:cf:9e:c4:5f:f2:53:
        9b:9b:7d:f5:69:1d:74:57:38:70:e5:fb:5b:76:58:c9:ec:31:
        dc:94:1b:02:ee:9d:33:9c:38:4b:29:1d:e1:0c:29:8b:6e:c7:
        bf:a0:e8:40:34:83:cf:ff:9f:cd:b5:f7:d9:4d:a7:9f:2e:bf:
        44:98:6b:f2:d3:fe:a8:20:31:c1:33:76:b7:1c:19:65:4d:b9:
        14:39
-----BEGIN X509 CRL-----
MIIBXTCBxwIBATANBgkqhkiG9w0BAQUFADBAMQswCQYDVQQGEwJVUzEaMBgGA1UE
ChMRVGVzdCBDZXJ0aWZpY2F0ZXMxFTATBgNVBAMTDFRydXN0IEFuY2hvchcNMDEw
NDE5MTQ1NzIwWhcNMTEwNDE5MTQ1NzIwWjAiMCACAWgXDTAxMDQxOTE0NTcyMFow
DDAKBgNVHRUEAwoBAaAvMC0wHwYDVR0jBBgwFoAU+2zULYGeyid6ng2wPOqavIf/
SeowCgYDVR0UBAMCAQEwDQYJKoZIhvcNAQEFBQADgYEAkhLENLSSq7pxa3QxFs7t
JdZLHvr4IB6d138w7RX3i11km90xQORVDwxfgmljAHalz57EX/JTm5t99WkddFc4
cOX7W3ZYyewx3JQbAu6dM5w4Sykd4Qwpi27Hv6DoQDSDz/+fzbX32U2nny6/RJhr
8tP+qCAxwTN2txwZZU25FDk=
-----END X509 CRL-----

