subject=/C=US/O=Test Certificates/OU=No issuingDistributionPoint CA
issuer=/C=US/O=Test Certificates/CN=Trust Anchor
-----BEGIN CERTIFICATE-----
MIIChDCCAe2gAwIBAgIBTDANBgkqhkiG9w0BAQUFADBAMQswCQYDVQQGEwJVUzEa
MBgGA1UEChMRVGVzdCBDZXJ0aWZpY2F0ZXMxFTATBgNVBAMTDFRydXN0IEFuY2hv
cjAeFw0wMTA0MTkxNDU3MjBaFw0xMTA0MTkxNDU3MjBaMFIxCzAJBgNVBAYTAlVT
MRowGAYDVQQKExFUZXN0IENlcnRpZmljYXRlczEnMCUGA1UECxMeTm8gaXNzdWlu
Z0Rpc3RyaWJ1dGlvblBvaW50IENBMIGfMA0GCSqGSIb3DQEBAQUAA4GNADCBiQKB
gQC+7yNDGaK8AFxVWkjA1JkTRG1Ze29lXbN/99oD+Gw2q2C9yJHbDB2tcVCeM2wJ
8pbpFvzPv6TEGbmHVkvO32/pu/fhM5cGgzsZxXvEaQi6+Kb0nasof2lHEnO5T8BO
HGaef+bGmAPcnJWU3QPU6Ni7kv0b9HLPi9BNFdaUGU+65wIDAQABo3wwejAfBgNV
HSMEGDAWgBT7bNQtgZ7KJ3qeDbA86pq8h/9J6jAdBgNVHQ4EFgQULBOPxQ4nI9HR
Qd/fYYS5T/Ey7DEwDgYDVR0PAQH/BAQDAgEGMBcGA1UdIAQQMA4wDAYKYIZIAWUD
AgEwATAPBgNVHRMBAf8EBTADAQH/MA0GCSqGSIb3DQEBBQUAA4GBAItv1utyf+4Z
3pR/ExgGC7oEyQ8VZYYdil+JMtcrqExHY/zVEbgu4Cq1JTu3uC2MGAYO7BD2aVGI
0g9Ij/ikkEZ2G2mW3Lqar9JL/57BgPyEwIlp9czHYCx4M0tewGXoBeQdmeHK6O+9
YJS+QJZz/98L8lfp6mHuGoZid1McgVLT
-----END CERTIFICATE-----

subject=/C=US/O=Test Certificates/CN=Valid No issuingDistributionPoint EE Certificate Test10
issuer=/C=US/O=Test Certificates/OU=No issuingDistributionPoint CA
-----BEGIN CERTIFICATE-----
MIIDFTCCAn6gAwIBAgIBATANBgkqhkiG9w0BAQUFADBSMQswCQYDVQQGEwJVUzEa
MBgGA1UEChMRVGVzdCBDZXJ0aWZpY2F0ZXMxJzAlBgNVBAsTHk5vIGlzc3VpbmdE
aXN0cmlidXRpb25Qb2ludCBDQTAeFw0wMTA0MTkxNDU3MjBaFw0xMTA0MTkxNDU3
MjBaMGsxCzAJBgNVBAYTAlVTMRowGAYDVQQKExFUZXN0IENlcnRpZmljYXRlczFA
MD4GA1UEAxM3VmFsaWQgTm8gaXNzdWluZ0Rpc3RyaWJ1dGlvblBvaW50IEVFIENl
cnRpZmljYXRlIFRlc3QxMDCBnzANBgkqhkiG9w0BAQEFAAOBjQAwgYkCgYEAuYMU
46Qzp+krE4xNOAL0bJYv9lOdlPMvMyU1ObejWulK7jGlVjYtf+KtVV+/BCajxoDZ
LTSqx7R2RSJMaVQ41OzI3aHD5rR0M/ktYNhTotwcy0tFJQ6nwub0fTsjBLPSZZ6M
UjGg5tiHZ0c/lBKBJj7BTY61F7kTWO5M7Dgz6XkCAwEAAaOB4TCB3jAfBgNVHSME
GDAWgBQsE4/FDicj0dFB399hhLlP8TLsMTAdBgNVHQ4EFgQUpv9aWeCQYlWo0eBZ
Sr+FnrT5hmgwDgYDVR0PAQH/BAQDAgTwMBcGA1UdIAQQMA4wDAYKYIZIAWUDAgEw
ATBzBgNVHR8EbDBqMGigZqBkpGIwYDELMAkGA1UEBhMCVVMxGjAYBgNVBAoTEVRl
c3QgQ2VydGlmaWNhdGVzMScwJQYDVQQLEx5ObyBpc3N1aW5nRGlzdHJpYnV0aW9u
UG9pbnQgQ0ExDDAKBgNVBAMTA0NSTDANBgkqhkiG9w0BAQUFAAOBgQAnygifO5CB
a6drkb7+IIxC6kXu8iPf648/puVdI4z8+u6p7gNdiaLEFmOPTQ8UDz2ih5aIHHl0
hC5DWNF5udEHFCzGgMarH2kgkM08thSsxhe0rfAAjGVbGEQWpFWDS0+CXTEYLu2S
A0fgLzVvlU+60EmmSDdOwNMTeKmElbD6fw==
-----END CERTIFICATE-----

Certificate Revocation List (CRL):
        Version 2 (0x1)
        Signature Algorithm: sha1WithRSAEncryption
        Issuer: /C=US/O=Test Certificates/OU=No issuingDistributionPoint CA
        Last Update: Apr 19 14:57:20 2001 GMT
        Next Update: Apr 19 14:57:20 2011 GMT
        CRL extensions:
            X509v3 Authority Key Identifier: 
                keyid:2C:13:8F:C5:0E:27:23:D1:D1:41:DF:DF:61:84:B9:4F:F1:32:EC:31

            X509v3 CRL Number: 
                1
No Revoked Certificates.
    Signature Algorithm: sha1WithRSAEncryption
        0c:8e:a7:dd:16:a9:a6:c2:0d:1a:ba:ee:cc:e6:7a:59:dd:b1:
        9b:f2:70:22:7e:c4:3a:eb:9c:95:0b:63:0c:39:df:67:b8:5e:
        14:7c:b8:83:75:d8:de:35:fd:9d:bc:1f:2b:87:89:ae:82:85:
        de:35:26:ab:f9:40:16:ae:6c:9e:9a:b0:b5:97:5f:c8:19:7e:
        7e:de:96:79:0b:7d:df:5c:8d:05:a5:99:fa:b5:bc:ad:f8:af:
        9d:7c:75:de:70:73:0e:ae:1e:08:e1:7b:36:8b:23:21:99:bc:
        8b:6c:2d:de:90:f3:c5:df:7f:15:c1:69:89:15:a5:b5:09:21:
        80:c4
-----BEGIN X509 CRL-----
MIIBSzCBtQIBATANBgkqhkiG9w0BAQUFADBSMQswCQYDVQQGEwJVUzEaMBgGA1UE
ChMRVGVzdCBDZXJ0aWZpY2F0ZXMxJzAlBgNVBAsTHk5vIGlzc3VpbmdEaXN0cmli
dXRpb25Qb2ludCBDQRcNMDEwNDE5MTQ1NzIwWhcNMTEwNDE5MTQ1NzIwWqAvMC0w
HwYDVR0jBBgwFoAULBOPxQ4nI9HRQd/fYYS5T/Ey7DEwCgYDVR0UBAMCAQEwDQYJ
KoZIhvcNAQEFBQADgYEADI6n3RappsINGrruzOZ6Wd2xm/JwIn7EOuuclQtjDDnf
Z7heFHy4g3XY3jX9nbwfK4eJroKF3jUmq/lAFq5snpqwtZdfyBl+ft6WeQt931yN
BaWZ+rW8rfivnXx13nBzDq4eCOF7NosjIZm8i2wt3pDzxd9/FcFpiRWltQkhgMQ=
-----END X509 CRL-----

Certificate Revocation List (CRL):
        Version 2 (0x1)
        Signature Algorithm: sha1WithRSAEncryption
        Issuer: /C=US/O=Test Certificates/CN=Trust Anchor
        Last Update: Apr 19 14:57:20 2001 GMT
        Next Update: Apr 19 14:57:20 2011 GMT
        CRL extensions:
            X509v3 Authority Key Identifier: 
                keyid:FB:6C:D4:2D:81:9E:CA:27:7A:9E:0D:B0:3C:EA:9A:BC:87:FF:49:EA

            X509v3 CRL Number: 
                1
Revoked Certificates:
    Serial Number: 68
        Revocation Date: Apr 19 14:57:20 2001 GMT
        CRL entry extensions:
            X509v3 CRL Reason Code: 
                Key Compromise
    Signature Algorithm: sha1WithRSAEncryption
        92:12:c4:34:b4:92:ab:ba:71:6b:74:31:16:ce:ed:25:d6:4b:
        1e:fa:f8:20:1e:9d:d7:7f:30:ed:15:f7:8b:5d:64:9b:dd:31:
        40:e4:55:0f:0c:5f:82:69:63:00:76:a5:cf:9e:c4:5f:f2:53:
        9b:9b:7d:f5:69:1d:74:57:38:70:e5:fb:5b:76:58:c9:ec:31:
        dc:94:1b:02:ee:9d:33:9c:38:4b:29:1d:e1:0c:29:8b:6e:c7:
        bf:a0:e8:40:34:83:cf:ff:9f:cd:b5:f7:d9:4d:a7:9f:2e:bf:
        44:98:6b:f2:d3:fe:a8:20:31:c1:33:76:b7:1c:19:65:4d:b9:
        14:39
-----BEGIN X509 CRL-----
MIIBXTCBxwIBATANBgkqhkiG9w0BAQUFADBAMQswCQYDVQQGEwJVUzEaMBgGA1UE
ChMRVGVzdCBDZXJ0aWZpY2F0ZXMxFTATBgNVBAMTDFRydXN0IEFuY2hvchcNMDEw
NDE5MTQ1NzIwWhcNMTEwNDE5MTQ1NzIwWjAiMCACAWgXDTAxMDQxOTE0NTcyMFow
DDAKBgNVHRUEAwoBAaAvMC0wHwYDVR0jBBgwFoAU+2zULYGeyid6ng2wPOqavIf/
SeowCgYDVR0UBAMCAQEwDQYJKoZIhvcNAQEFBQADgYEAkhLENLSSq7pxa3QxFs7t
JdZLHvr4IB6d138w7RX3i11km90xQORVDwxfgmljAHalz57EX/JTm5t99WkddFc4
cOX7W3ZYyewx3JQbAu6dM5w4Sykd4Qwpi27Hv6DoQDSDz/+fzbX32U2nny6/RJhr
8tP+qCAxwTN2txwZZU25FDk=
-----END X509 CRL-----

