subject=/C=US/O=Test Certificates/CN=Valid Policy Mapping EE Certificate Test13
issuer=/C=US/O=Test Certificates/CN=P1anyPolicy Mapping 1to2 CA
-----BEGIN CERTIFICATE-----
MIICjjCCAfegAwIBAgIBATANBgkqhkiG9w0BAQUFADBPMQswCQYDVQQGEwJVUzEa
MBgGA1UEChMRVGVzdCBDZXJ0aWZpY2F0ZXMxJDAiBgNVBAMTG1AxYW55UG9saWN5
IE1hcHBpbmcgMXRvMiBDQTAeFw0wMTA0MTkxNDU3MjBaFw0xMTA0MTkxNDU3MjBa
MF4xCzAJBgNVBAYTAlVTMRowGAYDVQQKExFUZXN0IENlcnRpZmljYXRlczEzMDEG
A1UEAxMqVmFsaWQgUG9saWN5IE1hcHBpbmcgRUUgQ2VydGlmaWNhdGUgVGVzdDEz
MIGfMA0GCSqGSIb3DQEBAQUAA4GNADCBiQKBgQCr5cG4yqBgXjIPkt7dHP/MFNci
pUHmbTfWoxKfaC+QY/7vElma6sMegYccM49fDN8CJSa7iF0vwS05cS1euHk2PfLF
nJJamoTpf2iKxjqy6wemAmTH1cnEAtuhyArNadJXjvFmwV8bxyyaFW4GGnMj+yFe
IJoTD65IuQMOLLg+xwIDAQABo2swaTAfBgNVHSMEGDAWgBQtN9I/nlnZ5r5Xovdr
DxCCpq0D7jAdBgNVHQ4EFgQU3ZrqolFiawE0EWsHD7qUUa6V4pkwDgYDVR0PAQH/
BAQDAgTwMBcGA1UdIAQQMA4wDAYKYIZIAWUDAgEwAjANBgkqhkiG9w0BAQUFAAOB
gQDgNwimYbq6g5crdMRHe8S69POQl1I4Qg6ZD511fwO2OUU/rmIbvqW5faGKHPMq
Ubun6DrzamYGfx8HCa/vn46jaRVC2tTqXgiy6aWGMHv4MJl1bxS/yR8hqdTEWjG5
GFkA7UWgU8A3MmmIUaBCs2QK5ZqTmsYuqX2inlGtBcvTrQ==
-----END CERTIFICATE-----

subject=/C=US/O=Test Certificates/CN=P1anyPolicy Mapping 1to2 CA
issuer=/C=US/O=Test Certificates/CN=Trust Anchor
-----BEGIN CERTIFICATE-----
MIIEHjCCA4egAwIBAgIBNjANBgkqhkiG9w0BAQUFADBAMQswCQYDVQQGEwJVUzEa
MBgGA1UEChMRVGVzdCBDZXJ0aWZpY2F0ZXMxFTATBgNVBAMTDFRydXN0IEFuY2hv
cjAeFw0wMTA0MTkxNDU3MjBaFw0xMTA0MTkxNDU3MjBaME8xCzAJBgNVBAYTAlVT
MRowGAYDVQQKExFUZXN0IENlcnRpZmljYXRlczEkMCIGA1UEAxMbUDFhbnlQb2xp
Y3kgTWFwcGluZyAxdG8yIENBMIGfMA0GCSqGSIb3DQEBAQUAA4GNADCBiQKBgQDs
qiRQp8ZU1kWOS/tvtPAlHT9dGf17useanNh/sRHafDBRsOVVlS+kMA8Ti/8uecSP
PEMznqfzcf7wvC64FNOt2P3rD/W3oZ7MShTLQF6C5mqsh8A4T+DDgdhNG5xtOAfg
buRxp+A4KybQ7YMzRHnb5Z6UEKCAOv1NmaQpQU6lFQIDAQABo4ICFzCCAhMwHwYD
VR0jBBgwFoAU+2zULYGeyid6ng2wPOqavIf/SeowHQYDVR0OBBYEFC030j+eWdnm
vlei92sPEIKmrQPuMA4GA1UdDwEB/wQEAwIBBjCCAXgGA1UdIASCAW8wggFrMIG5
BgpghkgBZQMCATABMIGqMIGnBggrBgEFBQcCAjCBmhqBl3E5OiAgVGhpcyBpcyB0
aGUgdXNlciBub3RpY2UgZnJvbSBxdWFsaWZpZXIgOSBhc3NvY2lhdGVkIHdpdGgg
TklTVC10ZXN0LXBvbGljeS0xLiAgVGhpcyB1c2VyIG5vdGljZSBzaG91bGQgYmUg
ZGlzcGxheWVkIGZvciBWYWxpZCBQb2xpY3kgTWFwcGluZyBUZXN0MTMwgawGBFUd
IAAwgaMwgaAGCCsGAQUFBwICMIGTGoGQcTEwOiAgVGhpcyBpcyB0aGUgdXNlciBu
b3RpY2UgZnJvbSBxdWFsaWZpZXIgMTAgYXNzb2NpYXRlZCB3aXRoIGFueVBvbGlj
eS4gIFRoaXMgdXNlciBub3RpY2Ugc2hvdWxkIGJlIGRpc3BsYXllZCBmb3IgVmFs
aWQgUG9saWN5IE1hcHBpbmcgVGVzdDE0MCYGA1UdIQEB/wQcMBowGAYKYIZIAWUD
AgEwAQYKYIZIAWUDAgEwAjAPBgNVHRMBAf8EBTADAQH/MAwGA1UdJAQFMAOAAQAw
DQYJKoZIhvcNAQEFBQADgYEAqZ6Cif011+oMzp6bcMsfzt9sTBgpT4l35AbTC5sm
zp3ur8X5X2G604yKkSXe1cf0F+fZSE6zjwizb1YG0owt1eGWSxCdAlkIFRang7OG
Z93bEKBx3ysDYCKvemx0f3shGqJVVzMBo6JP6JX7Jnn385UdwdKO2dWzVhHXsP+P
9sY=
-----END CERTIFICATE-----

Certificate Revocation List (CRL):
        Version 2 (0x1)
        Signature Algorithm: sha1WithRSAEncryption
        Issuer: /C=US/O=Test Certificates/CN=P1anyPolicy Mapping 1to2 CA
        Last Update: Apr 19 14:57:20 2001 GMT
        Next Update: Apr 19 14:57:20 2011 GMT
        CRL extensions:
            X509v3 Authority Key Identifier: 
                keyid:2D:37:D2:3F:9E:59:D9:E6:BE:57:A2:F7:6B:0F:10:82:A6:AD:03:EE

            X509v3 CRL Number: 
                1
No Revoked Certificates.
    Signature Algorithm: sha1WithRSAEncryption
        56:52:84:5c:c6:67:e1:f5:70:94:c5:af:b8:de:1f:38:dc:b0:
        65:8a:69:80:b5:9a:f9:2f:6c:13:8e:83:5a:5b:33:01:1c:d2:
        a9:c6:c7:09:92:cd:17:9f:bc:f4:30:d8:bf:8e:05:c0:98:d4:
        dc:be:b5:31:80:76:30:f8:35:48:45:a5:25:2a:92:df:1d:ae:
        4c:88:5e:34:d5:ea:39:8c:f2:e4:c7:e4:c1:35:45:3b:6f:6f:
        f3:81:e3:2f:43:ad:ae:e3:98:3a:7e:0e:48:51:cc:a8:15:38:
        ce:38:31:9c:36:5e:a0:eb:f5:16:e9:43:a9:5f:77:a4:bc:44:
        c4:0b
-----BEGIN X509 CRL-----
MIIBSDCBsgIBATANBgkqhkiG9w0BAQUFADBPMQswCQYDVQQGEwJVUzEaMBgGA1UE
ChMRVGVzdCBDZXJ0aWZpY2F0ZXMxJDAiBgNVBAMTG1AxYW55UG9saWN5IE1hcHBp
bmcgMXRvMiBDQRcNMDEwNDE5MTQ1NzIwWhcNMTEwNDE5MTQ1NzIwWqAvMC0wHwYD
VR0jBBgwFoAULTfSP55Z2ea+V6L3aw8QgqatA+4wCgYDVR0UBAMCAQEwDQYJKoZI
hvcNAQEFBQADgYEAVlKEXMZn4fVwlMWvuN4fONywZYppgLWa+S9sE46DWlszARzS
qcbHCZLNF5+89DDYv44FwJjU3L61MYB2MPg1SEWlJSqS3x2uTIheNNXqOYzy5Mfk
wTVFO29v84HjL0OtruOYOn4OSFHMqBU4zjgxnDZeoOv1FulDqV93pLxExAs=
-----END X509 CRL-----

Certificate Revocation List (CRL):
        Version 2 (0x1)
        Signature Algorithm: sha1WithRSAEncryption
        Issuer: /C=US/O=Test Certificates/CN=Trust Anchor
        Last Update: Apr 19 14:57:20 2001 GMT
        Next Update: Apr 19 14:57:20 2011 GMT
        CRL extensions:
            X509v3 Authority Key Identifier: 
                keyid:FB:6C:D4:2D:81:9E:CA:27:7A:9E:0D:B0:3C:EA:9A:BC:87:FF:49:EA

            X509v3 CRL Number: 
                1
Revoked Certificates:
    Serial Number: 68
        Revocation Date: Apr 19 14:57:20 2001 GMT
        CRL entry extensions:
            X509v3 CRL Reason Code: 
                Key Compromise
    Signature Algorithm: sha1WithRSAEncryption
        92:12:c4:34:b4:92:ab:ba:71:6b:74:31:16:ce:ed:25:d6:4b:
        1e:fa:f8:20:1e:9d:d7:7f:30:ed:15:f7:8b:5d:64:9b:dd:31:
        40:e4:55:0f:0c:5f:82:69:63:00:76:a5:cf:9e:c4:5f:f2:53:
        9b:9b:7d:f5:69:1d:74:57:38:70:e5:fb:5b:76:58:c9:ec:31:
        dc:94:1b:02:ee:9d:33:9c:38:4b:29:1d:e1:0c:29:8b:6e:c7:
        bf:a0:e8:40:34:83:cf:ff:9f:cd:b5:f7:d9:4d:a7:9f:2e:bf:
        44:98:6b:f2:d3:fe:a8:20:31:c1:33:76:b7:1c:19:65:4d:b9:
        14:39
-----BEGIN X509 CRL-----
MIIBXTCBxwIBATANBgkqhkiG9w0BAQUFADBAMQswCQYDVQQGEwJVUzEaMBgGA1UE
ChMRVGVzdCBDZXJ0aWZpY2F0ZXMxFTATBgNVBAMTDFRydXN0IEFuY2hvchcNMDEw
NDE5MTQ1NzIwWhcNMTEwNDE5MTQ1NzIwWjAiMCACAWgXDTAxMDQxOTE0NTcyMFow
DDAKBgNVHRUEAwoBAaAvMC0wHwYDVR0jBBgwFoAU+2zULYGeyid6ng2wPOqavIf/
SeowCgYDVR0UBAMCAQEwDQYJKoZIhvcNAQEFBQADgYEAkhLENLSSq7pxa3QxFs7t
JdZLHvr4IB6d138w7RX3i11km90xQORVDwxfgmljAHalz57EX/JTm5t99WkddFc4
cOX7W3ZYyewx3JQbAu6dM5w4Sykd4Qwpi27Hv6DoQDSDz/+fzbX32U2nny6/RJhr
8tP+qCAxwTN2txwZZU25FDk=
-----END X509 CRL-----

