subject=/C=US/O=Test Certificates/CN=deltaCRL CA2
issuer=/C=US/O=Test Certificates/CN=Trust Anchor
-----BEGIN CERTIFICATE-----
MIICcjCCAdugAwIBAgIBXDANBgkqhkiG9w0BAQUFADBAMQswCQYDVQQGEwJVUzEa
MBgGA1UEChMRVGVzdCBDZXJ0aWZpY2F0ZXMxFTATBgNVBAMTDFRydXN0IEFuY2hv
cjAeFw0wMTA0MTkxNDU3MjBaFw0xMTA0MTkxNDU3MjBaMEAxCzAJBgNVBAYTAlVT
MRowGAYDVQQKExFUZXN0IENlcnRpZmljYXRlczEVMBMGA1UEAxMMZGVsdGFDUkwg
Q0EyMIGfMA0GCSqGSIb3DQEBAQUAA4GNADCBiQKBgQCr2MUpxzH8HIqzmAylEvng
qJvVIxI4xzM8NSpC7P7T2R1dmFXK/19W+m5yqOagB9VxgxP9IYbI2VJ/FrbQSD/+
afpuHA8++piSAs2e/1BoRagiln3PnQTLemPsmVy00eSLnsw6QRdC0MIZjme0/SHv
Z6XuWPNvicDyA/Uml2pCqQIDAQABo3wwejAfBgNVHSMEGDAWgBT7bNQtgZ7KJ3qe
DbA86pq8h/9J6jAdBgNVHQ4EFgQUo5OrV2YmbXI6bLyDZaOa/I4MQwswDgYDVR0P
AQH/BAQDAgEGMBcGA1UdIAQQMA4wDAYKYIZIAWUDAgEwATAPBgNVHRMBAf8EBTAD
AQH/MA0GCSqGSIb3DQEBBQUAA4GBAFnKbCQCHJI6HhnaoKJkHKk3dBK/E1DNHc3a
u9yx3wYdmqwkoG5iKJjssQDLcbLfpjuF7jU9nKbk2gcmOIa5//lgCmUaok4WZSUA
u8bzMnpiZyzIjjoW78RyuntCMXbZzcs7umsOKfOlDXj4wwsev4E7m5nvP2Qv7hEX
ECR/9DaG
-----END CERTIFICATE-----

subject=/C=US/O=Test Certificates/CN=Valid deltaCRL EE Certificate Test8
issuer=/C=US/O=Test Certificates/CN=deltaCRL CA2
-----BEGIN CERTIFICATE-----
MIIDJjCCAo+gAwIBAgIBATANBgkqhkiG9w0BAQUFADBAMQswCQYDVQQGEwJVUzEa
MBgGA1UEChMRVGVzdCBDZXJ0aWZpY2F0ZXMxFTATBgNVBAMTDGRlbHRhQ1JMIENB
MjAeFw0wMTA0MTkxNDU3MjBaFw0xMTA0MTkxNDU3MjBaMFcxCzAJBgNVBAYTAlVT
MRowGAYDVQQKExFUZXN0IENlcnRpZmljYXRlczEsMCoGA1UEAxMjVmFsaWQgZGVs
dGFDUkwgRUUgQ2VydGlmaWNhdGUgVGVzdDgwgZ8wDQYJKoZIhvcNAQEBBQADgY0A
MIGJAoGBANNXQWv/s3VtlajbHeAAaJZ+taow3YYnDMLz9tXUqMSOOKnoHR59ec/A
1XsEc02zK6rj6cC8db6LqebYOUJ1kpBl3t2oEH25mVFiBhgdYiLGeezrLNiAm2vF
dBdoOCER9Y5PshspgHG45kPR88sRxRuN+NtvOBQ+rS3ZagNzOydDAgMBAAGjggEX
MIIBEzAfBgNVHSMEGDAWgBSjk6tXZiZtcjpsvINlo5r8jgxDCzAdBgNVHQ4EFgQU
rDZIHgyRpXqIY0zNvpsz15jbVrcwDgYDVR0PAQH/BAQDAgTwMBcGA1UdIAQQMA4w
DAYKYIZIAWUDAgEwATBTBgNVHR8ETDBKMEigRqBEpEIwQDELMAkGA1UEBhMCVVMx
GjAYBgNVBAoTEVRlc3QgQ2VydGlmaWNhdGVzMRUwEwYDVQQDEwxkZWx0YUNSTCBD
QTIwUwYDVR0uBEwwSjBIoEagRKRCMEAxCzAJBgNVBAYTAlVTMRowGAYDVQQKExFU
ZXN0IENlcnRpZmljYXRlczEVMBMGA1UEAxMMZGVsdGFDUkwgQ0EyMA0GCSqGSIb3
DQEBBQUAA4GBACi9fCMcVs6WjeEeE35GgRLIbCVWQ1PbtOFwwJiaM7f/c4i1F3Kt
A2BcHex6T21Ea9eSra37uvPdAUSc0Dc3klZS96pU6v0oZtXl07daAhbR8mKRmoPq
tVcto5YqOd/STL2egFKzNVhfR5UZo1wycobU3FZtmFyr9DFIEKb/mFt0
-----END CERTIFICATE-----

Certificate Revocation List (CRL):
        Version 2 (0x1)
        Signature Algorithm: sha1WithRSAEncryption
        Issuer: /C=US/O=Test Certificates/CN=Trust Anchor
        Last Update: Apr 19 14:57:20 2001 GMT
        Next Update: Apr 19 14:57:20 2011 GMT
        CRL extensions:
            X509v3 Authority Key Identifier: 
                keyid:FB:6C:D4:2D:81:9E:CA:27:7A:9E:0D:B0:3C:EA:9A:BC:87:FF:49:EA

            X509v3 CRL Number: 
                1
Revoked Certificates:
    Serial Number: 68
        Revocation Date: Apr 19 14:57:20 2001 GMT
        CRL entry extensions:
            X509v3 CRL Reason Code: 
                Key Compromise
    Signature Algorithm: sha1WithRSAEncryption
        92:12:c4:34:b4:92:ab:ba:71:6b:74:31:16:ce:ed:25:d6:4b:
        1e:fa:f8:20:1e:9d:d7:7f:30:ed:15:f7:8b:5d:64:9b:dd:31:
        40:e4:55:0f:0c:5f:82:69:63:00:76:a5:cf:9e:c4:5f:f2:53:
        9b:9b:7d:f5:69:1d:74:57:38:70:e5:fb:5b:76:58:c9:ec:31:
        dc:94:1b:02:ee:9d:33:9c:38:4b:29:1d:e1:0c:29:8b:6e:c7:
        bf:a0:e8:40:34:83:cf:ff:9f:cd:b5:f7:d9:4d:a7:9f:2e:bf:
        44:98:6b:f2:d3:fe:a8:20:31:c1:33:76:b7:1c:19:65:4d:b9:
        14:39
-----BEGIN X509 CRL-----
MIIBXTCBxwIBATANBgkqhkiG9w0BAQUFADBAMQswCQYDVQQGEwJVUzEaMBgGA1UE
ChMRVGVzdCBDZXJ0aWZpY2F0ZXMxFTATBgNVBAMTDFRydXN0IEFuY2hvchcNMDEw
NDE5MTQ1NzIwWhcNMTEwNDE5MTQ1NzIwWjAiMCACAWgXDTAxMDQxOTE0NTcyMFow
DDAKBgNVHRUEAwoBAaAvMC0wHwYDVR0jBBgwFoAU+2zULYGeyid6ng2wPOqavIf/
SeowCgYDVR0UBAMCAQEwDQYJKoZIhvcNAQEFBQADgYEAkhLENLSSq7pxa3QxFs7t
JdZLHvr4IB6d138w7RX3i11km90xQORVDwxfgmljAHalz57EX/JTm5t99WkddFc4
cOX7W3ZYyewx3JQbAu6dM5w4Sykd4Qwpi27Hv6DoQDSDz/+fzbX32U2nny6/RJhr
8tP+qCAxwTN2txwZZU25FDk=
-----END X509 CRL-----

Certificate Revocation List (CRL):
        Version 2 (0x1)
        Signature Algorithm: sha1WithRSAEncryption
        Issuer: /C=US/O=Test Certificates/CN=deltaCRL CA2
        Last Update: Jan  1 12:00:00 2003 GMT
        Next Update: Apr 19 14:57:20 2011 GMT
        CRL extensions:
            X509v3 Authority Key Identifier: 
                keyid:A3:93:AB:57:66:26:6D:72:3A:6C:BC:83:65:A3:9A:FC:8E:0C:43:0B

            X509v3 CRL Number: 
                3
            X509v3 Delta CRL Indicator: critical
                1
Revoked Certificates:
    Serial Number: 02
        Revocation Date: Apr 19 14:57:20 2001 GMT
        CRL entry extensions:
            X509v3 CRL Reason Code: 
                Key Compromise
    Signature Algorithm: sha1WithRSAEncryption
        25:e0:e6:a0:65:11:f0:81:2b:f1:ed:47:8c:1c:a4:dd:79:26:
        78:05:22:84:96:35:60:de:7b:13:ec:70:ee:50:3d:ac:d4:9a:
        22:fe:e3:9a:77:a4:fb:bb:86:98:21:80:3e:d3:20:85:57:b2:
        0f:2e:bd:53:d4:7a:ac:96:02:3e:17:00:67:67:6d:16:01:9d:
        93:cb:fc:b6:f1:c2:23:0b:e2:de:c2:02:5a:70:05:34:35:8a:
        72:8c:cb:78:ad:62:96:86:50:5d:6c:ba:1a:bb:e5:b8:e8:5f:
        b6:7c:33:8f:8b:aa:c6:b1:78:a7:e4:56:12:76:09:7a:db:ae:
        f5:ff
-----BEGIN X509 CRL-----
MIIBbDCB1gIBATANBgkqhkiG9w0BAQUFADBAMQswCQYDVQQGEwJVUzEaMBgGA1UE
ChMRVGVzdCBDZXJ0aWZpY2F0ZXMxFTATBgNVBAMTDGRlbHRhQ1JMIENBMhcNMDMw
MTAxMTIwMDAwWhcNMTEwNDE5MTQ1NzIwWjAiMCACAQIXDTAxMDQxOTE0NTcyMFow
DDAKBgNVHRUEAwoBAaA+MDwwHwYDVR0jBBgwFoAUo5OrV2YmbXI6bLyDZaOa/I4M
QwswCgYDVR0UBAMCAQMwDQYDVR0bAQH/BAMCAQEwDQYJKoZIhvcNAQEFBQADgYEA
JeDmoGUR8IEr8e1HjByk3XkmeAUihJY1YN57E+xw7lA9rNSaIv7jmnek+7uGmCGA
PtMghVeyDy69U9R6rJYCPhcAZ2dtFgGdk8v8tvHCIwvi3sICWnAFNDWKcozLeK1i
loZQXWy6GrvluOhftnwzj4uqxrF4p+RWEnYJetuu9f8=
-----END X509 CRL-----

Certificate Revocation List (CRL):
        Version 2 (0x1)
        Signature Algorithm: sha1WithRSAEncryption
        Issuer: /C=US/O=Test Certificates/CN=deltaCRL CA2
        Last Update: Apr 19 14:57:20 2001 GMT
        Next Update: Apr 19 14:57:20 2011 GMT
        CRL extensions:
            X509v3 Authority Key Identifier: 
                keyid:A3:93:AB:57:66:26:6D:72:3A:6C:BC:83:65:A3:9A:FC:8E:0C:43:0B

            X509v3 CRL Number: 
                2
            2.5.29.46: 
                0J0H.F.D.B0@1.0...U....US1.0...U.
..Test Certificates1.0...U....deltaCRL CA2
Revoked Certificates:
    Serial Number: 02
        Revocation Date: Apr 19 14:57:20 2001 GMT
        CRL entry extensions:
            X509v3 CRL Reason Code: 
                Key Compromise
    Signature Algorithm: sha1WithRSAEncryption
        6a:af:6c:a0:70:12:90:02:5b:70:fd:d4:b6:8d:28:9a:51:5c:
        fd:04:ed:47:e1:a0:5a:60:e7:41:83:23:ff:a3:e0:c6:b1:fc:
        71:db:cb:8e:a7:20:0e:f6:9a:ae:e3:fd:61:33:a6:21:69:4f:
        7f:7f:23:cc:33:47:45:23:bc:fc:a1:79:02:31:3f:8d:77:e7:
        c0:9c:8d:90:ef:6a:9d:38:fe:13:b7:03:dd:ac:36:72:b5:94:
        e5:7b:43:a8:7a:96:ce:16:bc:55:00:bd:cc:1b:a7:81:93:40:
        f7:f6:11:bf:c6:dd:7a:ab:32:e5:be:fb:88:32:e2:06:41:9f:
        5f:d5
-----BEGIN X509 CRL-----
MIIBtTCCAR4CAQEwDQYJKoZIhvcNAQEFBQAwQDELMAkGA1UEBhMCVVMxGjAYBgNV
BAoTEVRlc3QgQ2VydGlmaWNhdGVzMRUwEwYDVQQDEwxkZWx0YUNSTCBDQTIXDTAx
MDQxOTE0NTcyMFoXDTExMDQxOTE0NTcyMFowIjAgAgECFw0wMTA0MTkxNDU3MjBa
MAwwCgYDVR0VBAMKAQGggYUwgYIwHwYDVR0jBBgwFoAUo5OrV2YmbXI6bLyDZaOa
/I4MQwswCgYDVR0UBAMCAQIwUwYDVR0uBEwwSjBIoEagRKRCMEAxCzAJBgNVBAYT
AlVTMRowGAYDVQQKExFUZXN0IENlcnRpZmljYXRlczEVMBMGA1UEAxMMZGVsdGFD
UkwgQ0EyMA0GCSqGSIb3DQEBBQUAA4GBAGqvbKBwEpACW3D91LaNKJpRXP0E7Ufh
oFpg50GDI/+j4Max/HHby46nIA72mq7j/WEzpiFpT39/I8wzR0UjvPyheQIxP413
58CcjZDvap04/hO3A92sNnK1lOV7Q6h6ls4WvFUAvcwbp4GTQPf2Eb/G3XqrMuW+
+4gy4gZBn1/V
-----END X509 CRL-----

