subject=/C=US/O=Test Certificates/CN=nameConstraints DNS1 CA
issuer=/C=US/O=Test Certificates/CN=Trust Anchor
-----BEGIN CERTIFICATE-----
MIICpzCCAhCgAwIBAgIBRjANBgkqhkiG9w0BAQUFADBAMQswCQYDVQQGEwJVUzEa
MBgGA1UEChMRVGVzdCBDZXJ0aWZpY2F0ZXMxFTATBgNVBAMTDFRydXN0IEFuY2hv
cjAeFw0wMTA0MTkxNDU3MjBaFw0xMTA0MTkxNDU3MjBaMEsxCzAJBgNVBAYTAlVT
MRowGAYDVQQKExFUZXN0IENlcnRpZmljYXRlczEgMB4GA1UEAxMXbmFtZUNvbnN0
cmFpbnRzIEROUzEgQ0EwgZ8wDQYJKoZIhvcNAQEBBQADgY0AMIGJAoGBAKF4cGWB
eAaOHCGkAPlmkE9/9XtvEpanIGNf1g0ab0PBnZR8ffY+IK2+rwOeMVtfXmJbaxi/
Z70teNn94XkPXH6Pmz/pL170Q96CasAsPU2uQC4AtNjkUSeFbSoY7Ul2NaBYqLrW
yQ7O3jEXdX76KQWqYcihAq1Jw+AEruMq98WrAgMBAAGjgaUwgaIwHwYDVR0jBBgw
FoAU+2zULYGeyid6ng2wPOqavIf/SeowHQYDVR0OBBYEFHXnZ0cYCavxiIjbno3V
F1KO/HN4MA4GA1UdDwEB/wQEAwIBBjAXBgNVHSAEEDAOMAwGCmCGSAFlAwIBMAEw
DwYDVR0TAQH/BAUwAwEB/zAmBgNVHR4BAf8EHDAaoBgwFoIUdGVzdGNlcnRpZmlj
YXRlcy5nb3YwDQYJKoZIhvcNAQEFBQADgYEAzUV5anoiOD8wQQnetIFcg5wLnNlr
dPixWje4q2JQcPnqZk3TW9O0GDtWHmZwVoS3PixQlJPHZGvkliTKM9vO7a8J2FDl
/ZFRNrm2rHFjZxygk+UTwj+SI4CO8kmtSesvV0ViWwNNyfOV/nmvBjqy6pEbTnCD
pax2/2P2ruVALCk=
-----END CERTIFICATE-----

subject=/C=US/O=Test Certificates/CN=Valid DNS nameConstraints EE Certificate Test30
issuer=/C=US/O=Test Certificates/CN=nameConstraints DNS1 CA
-----BEGIN CERTIFICATE-----
MIICvTCCAiagAwIBAgIBATANBgkqhkiG9w0BAQUFADBLMQswCQYDVQQGEwJVUzEa
MBgGA1UEChMRVGVzdCBDZXJ0aWZpY2F0ZXMxIDAeBgNVBAMTF25hbWVDb25zdHJh
aW50cyBETlMxIENBMB4XDTAxMDQxOTE0NTcyMFoXDTExMDQxOTE0NTcyMFowYzEL
MAkGA1UEBhMCVVMxGjAYBgNVBAoTEVRlc3QgQ2VydGlmaWNhdGVzMTgwNgYDVQQD
Ey9WYWxpZCBETlMgbmFtZUNvbnN0cmFpbnRzIEVFIENlcnRpZmljYXRlIFRlc3Qz
MDCBnzANBgkqhkiG9w0BAQEFAAOBjQAwgYkCgYEA08C22ZtMqDmJQjt6hWE9rPJX
rWB8T165lEh/iTleDZqyVWl5PRT8V1PTxkkp5aURAXm8BsNc1b7YFZfdsiMx1bjU
iBSvqDWP8HtarPF6+J0wsXO8Zxp8OV8kCjU1gA4hLHUvVghURkKoVXwzB2cwhlqm
iJcKkvv65JpzZPinbCsCAwEAAaOBmDCBlTAfBgNVHSMEGDAWgBR152dHGAmr8YiI
256N1RdSjvxzeDAdBgNVHQ4EFgQUYmleNHVLgQPdh5BhovyETaAgDeAwDgYDVR0P
AQH/BAQDAgTwMBcGA1UdIAQQMA4wDAYKYIZIAWUDAgEwATAqBgNVHREEIzAhgh90
ZXN0c2VydmVyLnRlc3RjZXJ0aWZpY2F0ZXMuZ292MA0GCSqGSIb3DQEBBQUAA4GB
AJCvVAtnYWZDsmocwYuC7e6N0annLwnm6MvbUgS7+KHuXfm1ty9YuZRe3t1SFQxX
yhuTKj9iERpNsz7ldpdAKftS6PasptiZLlqhi3Z6csOnVtmFErdgN56iJoZgkDlv
YTSVuG8xVfNBvOTHve/LWxGMlTGPDLMLf0hamDdBTfCK
-----END CERTIFICATE-----

Certificate Revocation List (CRL):
        Version 2 (0x1)
        Signature Algorithm: sha1WithRSAEncryption
        Issuer: /C=US/O=Test Certificates/CN=nameConstraints DNS1 CA
        Last Update: Apr 19 14:57:20 2001 GMT
        Next Update: Apr 19 14:57:20 2011 GMT
        CRL extensions:
            X509v3 Authority Key Identifier: 
                keyid:75:E7:67:47:18:09:AB:F1:88:88:DB:9E:8D:D5:17:52:8E:FC:73:78

            X509v3 CRL Number: 
                1
No Revoked Certificates.
    Signature Algorithm: sha1WithRSAEncryption
        90:61:77:a1:94:8e:c3:62:6b:dd:eb:ec:3f:0d:e0:dc:1f:b9:
        04:fa:e1:74:e4:5d:d2:0a:cb:42:4f:41:9a:a5:91:d4:2d:57:
        d2:6f:1d:5f:cd:9a:2c:24:5f:3d:21:9f:87:78:17:33:96:09:
        1b:d1:bd:f9:50:b7:17:c1:e0:af:50:95:7a:9d:03:9e:2c:95:
        ef:f2:c2:a2:74:93:d3:9c:c2:73:74:96:90:b0:78:15:69:e5:
        eb:b4:5d:dd:19:4d:ea:9a:78:af:ae:a4:b5:69:78:58:aa:7d:
        5d:9e:05:ee:a8:8d:2d:16:03:86:18:62:6b:cd:67:8c:5e:13:
        1d:46
-----BEGIN X509 CRL-----
MIIBRDCBrgIBATANBgkqhkiG9w0BAQUFADBLMQswCQYDVQQGEwJVUzEaMBgGA1UE
ChMRVGVzdCBDZXJ0aWZpY2F0ZXMxIDAeBgNVBAMTF25hbWVDb25zdHJhaW50cyBE
TlMxIENBFw0wMTA0MTkxNDU3MjBaFw0xMTA0MTkxNDU3MjBaoC8wLTAfBgNVHSME
GDAWgBR152dHGAmr8YiI256N1RdSjvxzeDAKBgNVHRQEAwIBATANBgkqhkiG9w0B
AQUFAAOBgQCQYXehlI7DYmvd6+w/DeDcH7kE+uF05F3SCstCT0GapZHULVfSbx1f
zZosJF89IZ+HeBczlgkb0b35ULcXweCvUJV6nQOeLJXv8sKidJPTnMJzdJaQsHgV
aeXrtF3dGU3qmnivrqS1aXhYqn1dngXuqI0tFgOGGGJrzWeMXhMdRg==
-----END X509 CRL-----

Certificate Revocation List (CRL):
        Version 2 (0x1)
        Signature Algorithm: sha1WithRSAEncryption
        Issuer: /C=US/O=Test Certificates/CN=Trust Anchor
        Last Update: Apr 19 14:57:20 2001 GMT
        Next Update: Apr 19 14:57:20 2011 GMT
        CRL extensions:
            X509v3 Authority Key Identifier: 
                keyid:FB:6C:D4:2D:81:9E:CA:27:7A:9E:0D:B0:3C:EA:9A:BC:87:FF:49:EA

            X509v3 CRL Number: 
                1
Revoked Certificates:
    Serial Number: 68
        Revocation Date: Apr 19 14:57:20 2001 GMT
        CRL entry extensions:
            X509v3 CRL Reason Code: 
                Key Compromise
    Signature Algorithm: sha1WithRSAEncryption
        92:12:c4:34:b4:92:ab:ba:71:6b:74:31:16:ce:ed:25:d6:4b:
        1e:fa:f8:20:1e:9d:d7:7f:30:ed:15:f7:8b:5d:64:9b:dd:31:
        40:e4:55:0f:0c:5f:82:69:63:00:76:a5:cf:9e:c4:5f:f2:53:
        9b:9b:7d:f5:69:1d:74:57:38:70:e5:fb:5b:76:58:c9:ec:31:
        dc:94:1b:02:ee:9d:33:9c:38:4b:29:1d:e1:0c:29:8b:6e:c7:
        bf:a0:e8:40:34:83:cf:ff:9f:cd:b5:f7:d9:4d:a7:9f:2e:bf:
        44:98:6b:f2:d3:fe:a8:20:31:c1:33:76:b7:1c:19:65:4d:b9:
        14:39
-----BEGIN X509 CRL-----
MIIBXTCBxwIBATANBgkqhkiG9w0BAQUFADBAMQswCQYDVQQGEwJVUzEaMBgGA1UE
ChMRVGVzdCBDZXJ0aWZpY2F0ZXMxFTATBgNVBAMTDFRydXN0IEFuY2hvchcNMDEw
NDE5MTQ1NzIwWhcNMTEwNDE5MTQ1NzIwWjAiMCACAWgXDTAxMDQxOTE0NTcyMFow
DDAKBgNVHRUEAwoBAaAvMC0wHwYDVR0jBBgwFoAU+2zULYGeyid6ng2wPOqavIf/
SeowCgYDVR0UBAMCAQEwDQYJKoZIhvcNAQEFBQADgYEAkhLENLSSq7pxa3QxFs7t
JdZLHvr4IB6d138w7RX3i11km90xQORVDwxfgmljAHalz57EX/JTm5t99WkddFc4
cOX7W3ZYyewx3JQbAu6dM5w4Sykd4Qwpi27Hv6DoQDSDz/+fzbX32U2nny6/RJhr
8tP+qCAxwTN2txwZZU25FDk=
-----END X509 CRL-----

