subject=/C=US/O=Test Certificates/DC=gov/DC=testcertificates/ST=Maryland/serialNumber=345/dnQualifier=CA
issuer=/C=US/O=Test Certificates/CN=Trust Anchor
-----BEGIN CERTIFICATE-----
MIICwTCCAiqgAwIBAgIBYDANBgkqhkiG9w0BAQUFADBAMQswCQYDVQQGEwJVUzEa
MBgGA1UEChMRVGVzdCBDZXJ0aWZpY2F0ZXMxFTATBgNVBAMTDFRydXN0IEFuY2hv
cjAeFw0wMTA0MTkxNDU3MjBaFw0xMTA0MTkxNDU3MjBaMIGOMQswCQYDVQQGEwJV
UzEaMBgGA1UEChMRVGVzdCBDZXJ0aWZpY2F0ZXMxEzARBgoJkiaJk/IsZAEZFgNn
b3YxIDAeBgoJkiaJk/IsZAEZFhB0ZXN0Y2VydGlmaWNhdGVzMREwDwYDVQQIEwhN
YXJ5bGFuZDEMMAoGA1UEBRMDMzQ1MQswCQYDVQQuEwJDQTCBnzANBgkqhkiG9w0B
AQEFAAOBjQAwgYkCgYEAmPmvvNuLBaXi3cYQQzuNFOtq2aeNq1YZodT/+7SSfjl2
uz1wsLHI7XjOGOuWrE9N0oNBrARmSYh6WrYCJj1cd8vcj+FTymvx5DWEeqPCDmxU
EO4e+/R+utHsFmCRzrOOUEqKkiHNGoR3iyrYr5zszJRgRDwf1QiYInu0cLMsHr8C
AwEAAaN8MHowHwYDVR0jBBgwFoAU+2zULYGeyid6ng2wPOqavIf/SeowHQYDVR0O
BBYEFKAtjaBcqIIIYio2ok1SyOUsUH0rMA4GA1UdDwEB/wQEAwIBBjAXBgNVHSAE
EDAOMAwGCmCGSAFlAwIBMAEwDwYDVR0TAQH/BAUwAwEB/zANBgkqhkiG9w0BAQUF
AAOBgQCXoXCIH5TuCf84dVOweSMfOdb5MzKTudOw55mU7VgDzMk7vzQIEx3jCeP0
7h8byDM0i/okjN0Ugm4DzOwxx5lAjs/uGGhGRGBVCJIPQ4QemsX3L24YpqSQKoJj
K+YL+sz8pdoaqX69dDAyIcZNG2i9L/WEvmacw0AnJZ+Rd06jqw==
-----END CERTIFICATE-----

subject=/C=US/O=Test Certificates/CN=Valid RFC3280 Mandatory Attribute Types EE Certificate Test7
issuer=/C=US/O=Test Certificates/DC=gov/DC=testcertificates/ST=Maryland/serialNumber=345/dnQualifier=CA
-----BEGIN CERTIFICATE-----
MIIC4DCCAkmgAwIBAgIBATANBgkqhkiG9w0BAQUFADCBjjELMAkGA1UEBhMCVVMx
GjAYBgNVBAoTEVRlc3QgQ2VydGlmaWNhdGVzMRMwEQYKCZImiZPyLGQBGRYDZ292
MSAwHgYKCZImiZPyLGQBGRYQdGVzdGNlcnRpZmljYXRlczERMA8GA1UECBMITWFy
eWxhbmQxDDAKBgNVBAUTAzM0NTELMAkGA1UELhMCQ0EwHhcNMDEwNDE5MTQ1NzIw
WhcNMTEwNDE5MTQ1NzIwWjBwMQswCQYDVQQGEwJVUzEaMBgGA1UEChMRVGVzdCBD
ZXJ0aWZpY2F0ZXMxRTBDBgNVBAMTPFZhbGlkIFJGQzMyODAgTWFuZGF0b3J5IEF0
dHJpYnV0ZSBUeXBlcyBFRSBDZXJ0aWZpY2F0ZSBUZXN0NzCBnzANBgkqhkiG9w0B
AQEFAAOBjQAwgYkCgYEAn3sUmVtQ1OLPODq7WXtzygEZ0tKb60KjAITF+WQQwfYO
katDsSHQU19m7Uxi3JX3wKeIZOJLDR14VB8aGUsN6pNaKKFCB1B2pgQsjDZsCLDz
ckA7lYdIC40Smu+8Nb2IGgncTW1Dye6r36lxhEpAU0cqXdOKkhteDDOW42tuZlMC
AwEAAaNrMGkwHwYDVR0jBBgwFoAUoC2NoFyogghiKjaiTVLI5SxQfSswHQYDVR0O
BBYEFHv2CemcO4grJLwWGJqNhA9NXdicMA4GA1UdDwEB/wQEAwIE8DAXBgNVHSAE
EDAOMAwGCmCGSAFlAwIBMAEwDQYJKoZIhvcNAQEFBQADgYEAQAimtwbz7YQ8Pm8M
Cg/LHjRpGXaJL82W85ioX8T7hsFsGlQbHp6uAq/Zkk44mG2ziuI5pJF/HnuAXPiF
xHcnCfDDpHpNh7deC53/nPf9Co375lZRWlBT233KSL14GTyiBZPipzbsUvJ+7FOp
alTeRK4fPr3lNDo9SEVo4e97i5w=
-----END CERTIFICATE-----

Certificate Revocation List (CRL):
        Version 2 (0x1)
        Signature Algorithm: sha1WithRSAEncryption
        Issuer: /C=US/O=Test Certificates/CN=Trust Anchor
        Last Update: Apr 19 14:57:20 2001 GMT
        Next Update: Apr 19 14:57:20 2011 GMT
        CRL extensions:
            X509v3 Authority Key Identifier: 
                keyid:FB:6C:D4:2D:81:9E:CA:27:7A:9E:0D:B0:3C:EA:9A:BC:87:FF:49:EA

            X509v3 CRL Number: 
                1
Revoked Certificates:
    Serial Number: 68
        Revocation Date: Apr 19 14:57:20 2001 GMT
        CRL entry extensions:
            X509v3 CRL Reason Code: 
                Key Compromise
    Signature Algorithm: sha1WithRSAEncryption
        92:12:c4:34:b4:92:ab:ba:71:6b:74:31:16:ce:ed:25:d6:4b:
        1e:fa:f8:20:1e:9d:d7:7f:30:ed:15:f7:8b:5d:64:9b:dd:31:
        40:e4:55:0f:0c:5f:82:69:63:00:76:a5:cf:9e:c4:5f:f2:53:
        9b:9b:7d:f5:69:1d:74:57:38:70:e5:fb:5b:76:58:c9:ec:31:
        dc:94:1b:02:ee:9d:33:9c:38:4b:29:1d:e1:0c:29:8b:6e:c7:
        bf:a0:e8:40:34:83:cf:ff:9f:cd:b5:f7:d9:4d:a7:9f:2e:bf:
        44:98:6b:f2:d3:fe:a8:20:31:c1:33:76:b7:1c:19:65:4d:b9:
        14:39
-----BEGIN X509 CRL-----
MIIBXTCBxwIBATANBgkqhkiG9w0BAQUFADBAMQswCQYDVQQGEwJVUzEaMBgGA1UE
ChMRVGVzdCBDZXJ0aWZpY2F0ZXMxFTATBgNVBAMTDFRydXN0IEFuY2hvchcNMDEw
NDE5MTQ1NzIwWhcNMTEwNDE5MTQ1NzIwWjAiMCACAWgXDTAxMDQxOTE0NTcyMFow
DDAKBgNVHRUEAwoBAaAvMC0wHwYDVR0jBBgwFoAU+2zULYGeyid6ng2wPOqavIf/
SeowCgYDVR0UBAMCAQEwDQYJKoZIhvcNAQEFBQADgYEAkhLENLSSq7pxa3QxFs7t
JdZLHvr4IB6d138w7RX3i11km90xQORVDwxfgmljAHalz57EX/JTm5t99WkddFc4
cOX7W3ZYyewx3JQbAu6dM5w4Sykd4Qwpi27Hv6DoQDSDz/+fzbX32U2nny6/RJhr
8tP+qCAxwTN2txwZZU25FDk=
-----END X509 CRL-----

Certificate Revocation List (CRL):
        Version 2 (0x1)
        Signature Algorithm: sha1WithRSAEncryption
        Issuer: /C=US/O=Test Certificates/DC=gov/DC=testcertificates/ST=Maryland/serialNumber=345/dnQualifier=CA
        Last Update: Apr 19 14:57:20 2001 GMT
        Next Update: Apr 19 14:57:20 2011 GMT
        CRL extensions:
            X509v3 Authority Key Identifier: 
                keyid:A0:2D:8D:A0:5C:A8:82:08:62:2A:36:A2:4D:52:C8:E5:2C:50:7D:2B

            X509v3 CRL Number: 
                1
No Revoked Certificates.
    Signature Algorithm: sha1WithRSAEncryption
        52:d1:8a:cb:32:66:cf:87:3e:a9:ea:a2:35:90:42:18:74:4f:
        9e:43:5d:6c:73:09:4e:ec:45:68:bf:3d:c3:1a:97:e5:83:66:
        e0:2a:1c:84:97:8e:d2:29:2a:c6:f2:41:e8:fc:63:3c:8a:5a:
        1a:8c:40:eb:c3:12:1d:ef:5e:70:a9:af:d9:dc:89:28:03:76:
        ff:b6:cb:5e:e0:82:f7:ad:32:3c:60:58:3c:fe:24:3d:9f:68:
        79:98:14:e4:0c:80:1a:f7:63:eb:5b:cd:ca:1c:69:80:93:8a:
        26:55:e3:ac:b9:05:7e:83:64:d4:3b:11:26:bf:fd:df:5f:3f:
        40:30
-----BEGIN X509 CRL-----
MIIBiDCB8gIBATANBgkqhkiG9w0BAQUFADCBjjELMAkGA1UEBhMCVVMxGjAYBgNV
BAoTEVRlc3QgQ2VydGlmaWNhdGVzMRMwEQYKCZImiZPyLGQBGRYDZ292MSAwHgYK
CZImiZPyLGQBGRYQdGVzdGNlcnRpZmljYXRlczERMA8GA1UECBMITWFyeWxhbmQx
DDAKBgNVBAUTAzM0NTELMAkGA1UELhMCQ0EXDTAxMDQxOTE0NTcyMFoXDTExMDQx
OTE0NTcyMFqgLzAtMB8GA1UdIwQYMBaAFKAtjaBcqIIIYio2ok1SyOUsUH0rMAoG
A1UdFAQDAgEBMA0GCSqGSIb3DQEBBQUAA4GBAFLRissyZs+HPqnqojWQQhh0T55D
XWxzCU7sRWi/PcMal+WDZuAqHISXjtIpKsbyQej8YzyKWhqMQOvDEh3vXnCpr9nc
iSgDdv+2y17ggvetMjxgWDz+JD2faHmYFOQMgBr3Y+tbzcocaYCTiiZV46y5BX6D
ZNQ7ESa//d9fP0Aw
-----END X509 CRL-----

