subject=/C=US/O=Test Certificates/CN=Valid Self-Issued requireExplicitPolicy EE Certificate Test6
issuer=/C=US/O=Test Certificates/CN=requireExplicitPolicy2 CA
-----BEGIN CERTIFICATE-----
MIIChTCCAe6gAwIBAgIBAjANBgkqhkiG9w0BAQUFADBNMQswCQYDVQQGEwJVUzEa
MBgGA1UEChMRVGVzdCBDZXJ0aWZpY2F0ZXMxIjAgBgNVBAMTGXJlcXVpcmVFeHBs
aWNpdFBvbGljeTIgQ0EwHhcNMDEwNDE5MTQ1NzIwWhcNMTEwNDE5MTQ1NzIwWjBw
MQswCQYDVQQGEwJVUzEaMBgGA1UEChMRVGVzdCBDZXJ0aWZpY2F0ZXMxRTBDBgNV
BAMTPFZhbGlkIFNlbGYtSXNzdWVkIHJlcXVpcmVFeHBsaWNpdFBvbGljeSBFRSBD
ZXJ0aWZpY2F0ZSBUZXN0NjCBnzANBgkqhkiG9w0BAQEFAAOBjQAwgYkCgYEAoQSf
MbaUeJHJyhveLx+voUuSWxwNEG56mZ5evCeaSjObXqfeHXkjtfpbQd04wlsSw3CO
OP2TR4ompdtrgHYGZeSsXW6VhkWz68SG78tn8laoXw3lTMhgrYqAdk+giv71qeBZ
DYVr+mZTxBnmhrgRiiAQi8fhl9p+Bf89nbW03icCAwEAAaNSMFAwHwYDVR0jBBgw
FoAUE+aMwSsPZ0tMeh0OtsAhWiSZUIQwHQYDVR0OBBYEFIGUYNMP2TtFxnkarnPH
B1oeM5PXMA4GA1UdDwEB/wQEAwIE8DANBgkqhkiG9w0BAQUFAAOBgQAXMz/QAcFC
0oNUODgnlOJdP3lcECIPpmtJbhAmc3UABEXUG9ak3/kkMNENOktNt62qe1/K1c+l
uYkAMsmUn3oOGYV9Zu77IiiChOYDH6touQtxBGtVTG9Ki/gdaPWfqZdfBs0xkGRg
7mzJCvRrEXDgQZW0kR3C2LJ9B4f2yt2GlA==
-----END CERTIFICATE-----

subject=/C=US/O=Test Certificates/CN=requireExplicitPolicy2 CA
issuer=/C=US/O=Test Certificates/CN=requireExplicitPolicy2 CA
-----BEGIN CERTIFICATE-----
MIICjDCCAfWgAwIBAgIBATANBgkqhkiG9w0BAQUFADBNMQswCQYDVQQGEwJVUzEa
MBgGA1UEChMRVGVzdCBDZXJ0aWZpY2F0ZXMxIjAgBgNVBAMTGXJlcXVpcmVFeHBs
aWNpdFBvbGljeTIgQ0EwHhcNMDEwNDE5MTQ1NzIwWhcNMTEwNDE5MTQ1NzIwWjBN
MQswCQYDVQQGEwJVUzEaMBgGA1UEChMRVGVzdCBDZXJ0aWZpY2F0ZXMxIjAgBgNV
BAMTGXJlcXVpcmVFeHBsaWNpdFBvbGljeTIgQ0EwgZ8wDQYJKoZIhvcNAQEBBQAD
gY0AMIGJAoGBALnxr9bA0oGlaihhiPR0d8F/y9ai99F6w8+DtAfGlFtJ4WU3GPih
ftUTRqZelcu+u6hZgekMwVhjUHyo6sFt5SfbCzJEmjWxI1anTrGAAcH6pG7zF2Z0
iae8kVE7C8GOgwm+F1Y1RHkw8Wz/UbZ4QGIhzA++KPDi2du40LEGD4BZAgMBAAGj
fDB6MB8GA1UdIwQYMBaAFHHCPE47NWL3JYefvaMBHjjgJXTIMB0GA1UdDgQWBBQT
5ozBKw9nS0x6HQ62wCFaJJlQhDAOBgNVHQ8BAf8EBAMCAQYwFwYDVR0gBBAwDjAM
BgpghkgBZQMCATABMA8GA1UdEwEB/wQFMAMBAf8wDQYJKoZIhvcNAQEFBQADgYEA
B6X+ALEMO8yG/lXfGuoX4XPyaZrb1A8oWFk2ZNCx9QIzI6CQ0vRfO47TF20iK5wr
HN8y7yXpJGZcNTa5+697/kRziJ/zrNiL4b4BP6QRxYv+3Edq7FOb842JguqWw6nP
SfsshPhMilo3C4X3PESiI67m18AlqgJcYcmemF1R6Ng=
-----END CERTIFICATE-----

subject=/C=US/O=Test Certificates/CN=requireExplicitPolicy2 CA
issuer=/C=US/O=Test Certificates/CN=Trust Anchor
-----BEGIN CERTIFICATE-----
MIICkjCCAfugAwIBAgIBLzANBgkqhkiG9w0BAQUFADBAMQswCQYDVQQGEwJVUzEa
MBgGA1UEChMRVGVzdCBDZXJ0aWZpY2F0ZXMxFTATBgNVBAMTDFRydXN0IEFuY2hv
cjAeFw0wMTA0MTkxNDU3MjBaFw0xMTA0MTkxNDU3MjBaME0xCzAJBgNVBAYTAlVT
MRowGAYDVQQKExFUZXN0IENlcnRpZmljYXRlczEiMCAGA1UEAxMZcmVxdWlyZUV4
cGxpY2l0UG9saWN5MiBDQTCBnzANBgkqhkiG9w0BAQEFAAOBjQAwgYkCgYEAnrdC
9sroeA9MJlV1ukIu8XNT9cUF70XCDwxMm5vKZZc2+XVNwgxe4aGse4bPdZ9okZ7y
2ZMuLyDLEBZaA7GsBzG6snQRgHkmMFS6v+pC3ep9ieqtpnrP3b1f743Y1jFp9zvX
ZDoddeI/xvYF/73KgiYdTFPLa9ARaKiwpQPMXyECAwEAAaOBjjCBizAfBgNVHSME
GDAWgBT7bNQtgZ7KJ3qeDbA86pq8h/9J6jAdBgNVHQ4EFgQUccI8Tjs1Yvclh5+9
owEeOOAldMgwDgYDVR0PAQH/BAQDAgEGMBcGA1UdIAQQMA4wDAYKYIZIAWUDAgEw
ATAPBgNVHRMBAf8EBTADAQH/MA8GA1UdJAEB/wQFMAOAAQIwDQYJKoZIhvcNAQEF
BQADgYEADGhYvyIjl02LK5PZdbH9TrAFF66SGgdk+7nl93vr3XB9UnpvJqUfyG55
ljoX+kKaRd7Z2O+GLTMmH+tqjMQ6bW+7RawMpFVzfhE3EdAr9/K31K6Q6lft8NuP
wgqhDrrVqYMPa3YM7n+ebATJ0DJ26evfQu5HfIL7Cs/w+CpXi2E=
-----END CERTIFICATE-----

Certificate Revocation List (CRL):
        Version 2 (0x1)
        Signature Algorithm: sha1WithRSAEncryption
        Issuer: /C=US/O=Test Certificates/CN=requireExplicitPolicy2 CA
        Last Update: Apr 19 14:57:20 2001 GMT
        Next Update: Apr 19 14:57:20 2011 GMT
        CRL extensions:
            X509v3 Authority Key Identifier: 
                keyid:71:C2:3C:4E:3B:35:62:F7:25:87:9F:BD:A3:01:1E:38:E0:25:74:C8

            X509v3 CRL Number: 
                1
No Revoked Certificates.
    Signature Algorithm: sha1WithRSAEncryption
        95:0a:96:af:24:83:ca:92:a2:7b:e7:d9:50:bb:49:ec:22:19:
        7b:a3:b9:3d:5f:b4:8c:5b:76:25:27:88:6a:26:24:c1:e1:cd:
        3e:b6:ef:b4:0f:ef:85:7c:0e:95:9b:13:fa:dd:c0:bf:7c:fe:
        e1:d9:fc:2a:7a:2f:fd:48:0d:11:58:69:6d:5a:e8:37:26:30:
        67:83:83:90:4c:b1:9e:6b:1b:04:d0:8d:60:42:88:13:25:91:
        ae:42:24:ea:61:ba:5d:34:6a:7c:22:6b:be:cf:2c:e0:67:36:
        db:28:0e:5c:be:bd:7a:75:3d:ac:cf:3c:9a:44:8e:ca:30:7a:
        e9:97
-----BEGIN X509 CRL-----
MIIBRjCBsAIBATANBgkqhkiG9w0BAQUFADBNMQswCQYDVQQGEwJVUzEaMBgGA1UE
ChMRVGVzdCBDZXJ0aWZpY2F0ZXMxIjAgBgNVBAMTGXJlcXVpcmVFeHBsaWNpdFBv
bGljeTIgQ0EXDTAxMDQxOTE0NTcyMFoXDTExMDQxOTE0NTcyMFqgLzAtMB8GA1Ud
IwQYMBaAFHHCPE47NWL3JYefvaMBHjjgJXTIMAoGA1UdFAQDAgEBMA0GCSqGSIb3
DQEBBQUAA4GBAJUKlq8kg8qSonvn2VC7SewiGXujuT1ftIxbdiUniGomJMHhzT62
77QP74V8DpWbE/rdwL98/uHZ/Cp6L/1IDRFYaW1a6DcmMGeDg5BMsZ5rGwTQjWBC
iBMlka5CJOphul00anwia77PLOBnNtsoDly+vXp1PazPPJpEjsoweumX
-----END X509 CRL-----

Certificate Revocation List (CRL):
        Version 2 (0x1)
        Signature Algorithm: sha1WithRSAEncryption
        Issuer: /C=US/O=Test Certificates/CN=Trust Anchor
        Last Update: Apr 19 14:57:20 2001 GMT
        Next Update: Apr 19 14:57:20 2011 GMT
        CRL extensions:
            X509v3 Authority Key Identifier: 
                keyid:FB:6C:D4:2D:81:9E:CA:27:7A:9E:0D:B0:3C:EA:9A:BC:87:FF:49:EA

            X509v3 CRL Number: 
                1
Revoked Certificates:
    Serial Number: 68
        Revocation Date: Apr 19 14:57:20 2001 GMT
        CRL entry extensions:
            X509v3 CRL Reason Code: 
                Key Compromise
    Signature Algorithm: sha1WithRSAEncryption
        92:12:c4:34:b4:92:ab:ba:71:6b:74:31:16:ce:ed:25:d6:4b:
        1e:fa:f8:20:1e:9d:d7:7f:30:ed:15:f7:8b:5d:64:9b:dd:31:
        40:e4:55:0f:0c:5f:82:69:63:00:76:a5:cf:9e:c4:5f:f2:53:
        9b:9b:7d:f5:69:1d:74:57:38:70:e5:fb:5b:76:58:c9:ec:31:
        dc:94:1b:02:ee:9d:33:9c:38:4b:29:1d:e1:0c:29:8b:6e:c7:
        bf:a0:e8:40:34:83:cf:ff:9f:cd:b5:f7:d9:4d:a7:9f:2e:bf:
        44:98:6b:f2:d3:fe:a8:20:31:c1:33:76:b7:1c:19:65:4d:b9:
        14:39
-----BEGIN X509 CRL-----
MIIBXTCBxwIBATANBgkqhkiG9w0BAQUFADBAMQswCQYDVQQGEwJVUzEaMBgGA1UE
ChMRVGVzdCBDZXJ0aWZpY2F0ZXMxFTATBgNVBAMTDFRydXN0IEFuY2hvchcNMDEw
NDE5MTQ1NzIwWhcNMTEwNDE5MTQ1NzIwWjAiMCACAWgXDTAxMDQxOTE0NTcyMFow
DDAKBgNVHRUEAwoBAaAvMC0wHwYDVR0jBBgwFoAU+2zULYGeyid6ng2wPOqavIf/
SeowCgYDVR0UBAMCAQEwDQYJKoZIhvcNAQEFBQADgYEAkhLENLSSq7pxa3QxFs7t
JdZLHvr4IB6d138w7RX3i11km90xQORVDwxfgmljAHalz57EX/JTm5t99WkddFc4
cOX7W3ZYyewx3JQbAu6dM5w4Sykd4Qwpi27Hv6DoQDSDz/+fzbX32U2nny6/RJhr
8tP+qCAxwTN2txwZZU25FDk=
-----END X509 CRL-----

