subject=/C=US/O=Test Certificates/CN=Basic Self-Issued Old Key CA
issuer=/C=US/O=Test Certificates/CN=Trust Anchor
-----BEGIN CERTIFICATE-----
MIICgjCCAeugAwIBAgIBFDANBgkqhkiG9w0BAQUFADBAMQswCQYDVQQGEwJVUzEa
MBgGA1UEChMRVGVzdCBDZXJ0aWZpY2F0ZXMxFTATBgNVBAMTDFRydXN0IEFuY2hv
cjAeFw0wMTA0MTkxNDU3MjBaFw0xMTA0MTkxNDU3MjBaMFAxCzAJBgNVBAYTAlVT
MRowGAYDVQQKExFUZXN0IENlcnRpZmljYXRlczElMCMGA1UEAxMcQmFzaWMgU2Vs
Zi1Jc3N1ZWQgT2xkIEtleSBDQTCBnzANBgkqhkiG9w0BAQEFAAOBjQAwgYkCgYEA
q8Gbt04t1VYDzow3lv3G+lNNQ/gCP0fz7/PBxNPzAwluA2Qzeix8gg74cXMpRe8u
PosT3EZZ9iK1PyFmcNq+CjzCuvi8d+1gaGS36wkcQBB6g7HiKRQ8ERQ4cEE6CH21
ntbFzVbn3d+NofzVo6e1AIdHDNPm7G0+F6f034Lo508CAwEAAaN8MHowHwYDVR0j
BBgwFoAU+2zULYGeyid6ng2wPOqavIf/SeowHQYDVR0OBBYEFPqiarnu+k/Fcp11
00t6bYzkXDkkMA4GA1UdDwEB/wQEAwIBBjAXBgNVHSAEEDAOMAwGCmCGSAFlAwIB
MAEwDwYDVR0TAQH/BAUwAwEB/zANBgkqhkiG9w0BAQUFAAOBgQBzQl++7X/MYd9h
3E0XroNDuD8TflER0UTgWOwN5UO8BXz8j402hmhEPyw66u6R27V7U1/wf8wtCAli
W7LnTcJKWFy9HKnpibiz50ike8zgsVmv1godVgDn/xvQPRAnWq+OX9Abc+6OTqiw
aDNRQp2WD1ph+daLu1XQgeAoD4Gajw==
-----END CERTIFICATE-----

subject=/C=US/O=Test Certificates/CN=Valid Basic Self-Issued New With Old EE Certificate Test3
issuer=/C=US/O=Test Certificates/CN=Basic Self-Issued Old Key CA
-----BEGIN CERTIFICATE-----
MIICnjCCAgegAwIBAgIBAjANBgkqhkiG9w0BAQUFADBQMQswCQYDVQQGEwJVUzEa
MBgGA1UEChMRVGVzdCBDZXJ0aWZpY2F0ZXMxJTAjBgNVBAMTHEJhc2ljIFNlbGYt
SXNzdWVkIE9sZCBLZXkgQ0EwHhcNMDEwNDE5MTQ1NzIwWhcNMTEwNDE5MTQ1NzIw
WjBtMQswCQYDVQQGEwJVUzEaMBgGA1UEChMRVGVzdCBDZXJ0aWZpY2F0ZXMxQjBA
BgNVBAMTOVZhbGlkIEJhc2ljIFNlbGYtSXNzdWVkIE5ldyBXaXRoIE9sZCBFRSBD
ZXJ0aWZpY2F0ZSBUZXN0MzCBnzANBgkqhkiG9w0BAQEFAAOBjQAwgYkCgYEAln5v
UhL9o7sN5MyQTZEB3Fhj6lKfzTNHMBCsngHpQqTP8zlmPvaEGpR53N+RNthxaW8K
XmN4WVFvyXl8eaVl8+U5cewY1K/m/6OqDIZ6kvjXugMkKLbjL7ptsAGx5VoyHs/F
xy4n0cEOmAXTZ7dbzFqM4xfqJRLqi2CgQUHnb1kCAwEAAaNrMGkwHwYDVR0jBBgw
FoAUG7qMIYdzBwWY+uu52W9BpEXVhuowHQYDVR0OBBYEFKVAiq/jp5QN4XgK0S+E
OKaV0NBCMA4GA1UdDwEB/wQEAwIE8DAXBgNVHSAEEDAOMAwGCmCGSAFlAwIBMAEw
DQYJKoZIhvcNAQEFBQADgYEAIgeBhcCa3jeEq1F6/+iNWMXRVgzyV3vsDielCRFy
wKdpYGocHPJG59OSZEHCUsdDRF2n3hhGkEILL4huEgX+oiiOhyGM/Xrr+ACuEIaS
qfs4gBQ/HrYydCxNN4OHOuLoFDmotodh/lvY9igeeaRZ1AFI7AicI0D4CAqXyLcU
9WI=
-----END CERTIFICATE-----

subject=/C=US/O=Test Certificates/CN=Basic Self-Issued Old Key CA
issuer=/C=US/O=Test Certificates/CN=Basic Self-Issued Old Key CA
-----BEGIN CERTIFICATE-----
MIIDETCCAnqgAwIBAgIBATANBgkqhkiG9w0BAQUFADBQMQswCQYDVQQGEwJVUzEa
MBgGA1UEChMRVGVzdCBDZXJ0aWZpY2F0ZXMxJTAjBgNVBAMTHEJhc2ljIFNlbGYt
SXNzdWVkIE9sZCBLZXkgQ0EwHhcNMDEwNDE5MTQ1NzIwWhcNMTEwNDE5MTQ1NzIw
WjBQMQswCQYDVQQGEwJVUzEaMBgGA1UEChMRVGVzdCBDZXJ0aWZpY2F0ZXMxJTAj
BgNVBAMTHEJhc2ljIFNlbGYtSXNzdWVkIE9sZCBLZXkgQ0EwgZ8wDQYJKoZIhvcN
AQEBBQADgY0AMIGJAoGBALQ4a61C9wpu5W0cACccONm+QLNESmbHtLwy498fByU6
h5UnHkutUfy7DbIv3rELFXUd2yM5xQI/QuQZ20EjXOZiCSJEcvzfoAyFLrAPf1pN
xQybX5HhLnJK+oGlwmD4ZatL7oDqV5IhlIS0So7g+SBOCh5lkKdzbH3l6D7nQXSD
AgMBAAGjgfowgfcwHwYDVR0jBBgwFoAU+qJque76T8VynXXTS3ptjORcOSQwHQYD
VR0OBBYEFBu6jCGHcwcFmPrrudlvQaRF1YbqMA4GA1UdDwEB/wQEAwIBBjAXBgNV
HSAEEDAOMAwGCmCGSAFlAwIBMAEwDwYDVR0TAQH/BAUwAwEB/zB7BgNVHR8EdDBy
MHCgbqBspGowaDELMAkGA1UEBhMCVVMxGjAYBgNVBAoTEVRlc3QgQ2VydGlmaWNh
dGVzMT0wOwYDVQQDEzRTZWxmLUlzc3VlZCBDZXJ0IERQIGZvciBCYXNpYyBTZWxm
LUlzc3VlZCBPbGQgS2V5IENBMA0GCSqGSIb3DQEBBQUAA4GBAHDVnYLXKN//Mu1w
BZS8DbfQ8p/DlXZ0n9EmdXRzoHXReDWeOaoiHU1H1HNJcLMe4YgEjsttTEBGfsZo
OvyNNUZ7C/oQymaDykP9W/m1TX3ZVLmx96zj36gCkVPczoG78kQ5zVjoLl5G5BJQ
4YX3NumsNd2WpHY34K21Cd/KJ5KJ
-----END CERTIFICATE-----

Certificate Revocation List (CRL):
        Version 2 (0x1)
        Signature Algorithm: sha1WithRSAEncryption
        Issuer: /C=US/O=Test Certificates/CN=Trust Anchor
        Last Update: Apr 19 14:57:20 2001 GMT
        Next Update: Apr 19 14:57:20 2011 GMT
        CRL extensions:
            X509v3 Authority Key Identifier: 
                keyid:FB:6C:D4:2D:81:9E:CA:27:7A:9E:0D:B0:3C:EA:9A:BC:87:FF:49:EA

            X509v3 CRL Number: 
                1
Revoked Certificates:
    Serial Number: 68
        Revocation Date: Apr 19 14:57:20 2001 GMT
        CRL entry extensions:
            X509v3 CRL Reason Code: 
                Key Compromise
    Signature Algorithm: sha1WithRSAEncryption
        92:12:c4:34:b4:92:ab:ba:71:6b:74:31:16:ce:ed:25:d6:4b:
        1e:fa:f8:20:1e:9d:d7:7f:30:ed:15:f7:8b:5d:64:9b:dd:31:
        40:e4:55:0f:0c:5f:82:69:63:00:76:a5:cf:9e:c4:5f:f2:53:
        9b:9b:7d:f5:69:1d:74:57:38:70:e5:fb:5b:76:58:c9:ec:31:
        dc:94:1b:02:ee:9d:33:9c:38:4b:29:1d:e1:0c:29:8b:6e:c7:
        bf:a0:e8:40:34:83:cf:ff:9f:cd:b5:f7:d9:4d:a7:9f:2e:bf:
        44:98:6b:f2:d3:fe:a8:20:31:c1:33:76:b7:1c:19:65:4d:b9:
        14:39
-----BEGIN X509 CRL-----
MIIBXTCBxwIBATANBgkqhkiG9w0BAQUFADBAMQswCQYDVQQGEwJVUzEaMBgGA1UE
ChMRVGVzdCBDZXJ0aWZpY2F0ZXMxFTATBgNVBAMTDFRydXN0IEFuY2hvchcNMDEw
NDE5MTQ1NzIwWhcNMTEwNDE5MTQ1NzIwWjAiMCACAWgXDTAxMDQxOTE0NTcyMFow
DDAKBgNVHRUEAwoBAaAvMC0wHwYDVR0jBBgwFoAU+2zULYGeyid6ng2wPOqavIf/
SeowCgYDVR0UBAMCAQEwDQYJKoZIhvcNAQEFBQADgYEAkhLENLSSq7pxa3QxFs7t
JdZLHvr4IB6d138w7RX3i11km90xQORVDwxfgmljAHalz57EX/JTm5t99WkddFc4
cOX7W3ZYyewx3JQbAu6dM5w4Sykd4Qwpi27Hv6DoQDSDz/+fzbX32U2nny6/RJhr
8tP+qCAxwTN2txwZZU25FDk=
-----END X509 CRL-----

Certificate Revocation List (CRL):
        Version 2 (0x1)
        Signature Algorithm: sha1WithRSAEncryption
        Issuer: /C=US/O=Test Certificates/CN=Basic Self-Issued Old Key CA
        Last Update: Apr 19 14:57:20 2001 GMT
        Next Update: Apr 19 14:57:20 2011 GMT
        CRL extensions:
            X509v3 Authority Key Identifier: 
                keyid:1B:BA:8C:21:87:73:07:05:98:FA:EB:B9:D9:6F:41:A4:45:D5:86:EA

            X509v3 CRL Number: 
                1
Revoked Certificates:
    Serial Number: 04
        Revocation Date: Apr 19 14:57:20 2001 GMT
        CRL entry extensions:
            X509v3 CRL Reason Code: 
                Key Compromise
    Signature Algorithm: sha1WithRSAEncryption
        62:de:93:8c:36:dd:b2:71:56:bb:4e:e4:32:37:51:de:6e:19:
        01:dd:3e:25:8c:d4:81:7e:fc:66:54:74:0d:32:30:d2:11:49:
        dc:ad:6a:b4:fc:8f:ec:e6:56:fe:e6:ec:53:9e:41:66:31:2c:
        ee:3a:be:bd:74:34:9b:71:c1:67:1d:3b:28:04:b9:85:e5:72:
        cd:f0:2b:a7:d9:d5:e3:43:25:4a:52:2e:79:24:52:cf:75:e1:
        3c:35:82:d1:5d:1e:f6:05:8b:45:24:67:ed:84:9f:c7:8d:c0:
        19:55:5e:52:76:3e:2f:f4:af:13:ae:d8:24:a3:17:68:5d:b5:
        45:74
-----BEGIN X509 CRL-----
MIIBbTCB1wIBATANBgkqhkiG9w0BAQUFADBQMQswCQYDVQQGEwJVUzEaMBgGA1UE
ChMRVGVzdCBDZXJ0aWZpY2F0ZXMxJTAjBgNVBAMTHEJhc2ljIFNlbGYtSXNzdWVk
IE9sZCBLZXkgQ0EXDTAxMDQxOTE0NTcyMFoXDTExMDQxOTE0NTcyMFowIjAgAgEE
Fw0wMTA0MTkxNDU3MjBaMAwwCgYDVR0VBAMKAQGgLzAtMB8GA1UdIwQYMBaAFBu6
jCGHcwcFmPrrudlvQaRF1YbqMAoGA1UdFAQDAgEBMA0GCSqGSIb3DQEBBQUAA4GB
AGLek4w23bJxVrtO5DI3Ud5uGQHdPiWM1IF+/GZUdA0yMNIRSdytarT8j+zmVv7m
7FOeQWYxLO46vr10NJtxwWcdOygEuYXlcs3wK6fZ1eNDJUpSLnkkUs914Tw1gtFd
HvYFi0UkZ+2En8eNwBlVXlJ2Pi/0rxOu2CSjF2hdtUV0
-----END X509 CRL-----

Certificate Revocation List (CRL):
        Version 2 (0x1)
        Signature Algorithm: sha1WithRSAEncryption
        Issuer: /C=US/O=Test Certificates/CN=Basic Self-Issued Old Key CA
        Last Update: Apr 19 14:57:20 2001 GMT
        Next Update: Apr 19 14:57:20 2011 GMT
        CRL extensions:
            X509v3 Authority Key Identifier: 
                keyid:FA:A2:6A:B9:EE:FA:4F:C5:72:9D:75:D3:4B:7A:6D:8C:E4:5C:39:24

            X509v3 CRL Number: 
                1
            2.5.29.28: critical
                0p.n.l.j0h1.0...U....US1.0...U.
..Test Certificates1=0;..U...4Self-Issued Cert DP for Basic Self-Issued Old Key CA
No Revoked Certificates.
    Signature Algorithm: sha1WithRSAEncryption
        8c:6b:ec:1f:5b:3d:31:1c:fe:c6:40:ca:e3:c5:52:30:a0:9a:
        55:ee:f8:c3:bd:cd:b1:45:d0:7f:44:f6:42:1c:0f:b9:df:8f:
        4d:25:0b:ba:5b:bd:0c:68:c2:ce:b0:c4:17:e7:be:81:de:73:
        55:5c:6b:d6:3d:e5:e2:18:31:d7:5f:6e:1d:4b:0b:31:cd:44:
        fe:29:d5:27:77:f5:83:bc:ee:3f:46:31:d5:66:5a:a1:9b:1f:
        16:d0:8c:ef:ae:bb:36:75:a4:b3:62:be:16:cd:de:b8:90:bd:
        5f:26:1f:a7:d8:1e:59:ce:27:af:ee:ab:de:9d:1d:66:ef:9e:
        49:cb
-----BEGIN X509 CRL-----
MIIByjCCATMCAQEwDQYJKoZIhvcNAQEFBQAwUDELMAkGA1UEBhMCVVMxGjAYBgNV
BAoTEVRlc3QgQ2VydGlmaWNhdGVzMSUwIwYDVQQDExxCYXNpYyBTZWxmLUlzc3Vl
ZCBPbGQgS2V5IENBFw0wMTA0MTkxNDU3MjBaFw0xMTA0MTkxNDU3MjBaoIGuMIGr
MB8GA1UdIwQYMBaAFPqiarnu+k/Fcp1100t6bYzkXDkkMAoGA1UdFAQDAgEBMHwG
A1UdHAEB/wRyMHCgbqBspGowaDELMAkGA1UEBhMCVVMxGjAYBgNVBAoTEVRlc3Qg
Q2VydGlmaWNhdGVzMT0wOwYDVQQDEzRTZWxmLUlzc3VlZCBDZXJ0IERQIGZvciBC
YXNpYyBTZWxmLUlzc3VlZCBPbGQgS2V5IENBMA0GCSqGSIb3DQEBBQUAA4GBAIxr
7B9bPTEc/sZAyuPFUjCgmlXu+MO9zbFF0H9E9kIcD7nfj00lC7pbvQxows6wxBfn
voHec1Vca9Y95eIYMddfbh1LCzHNRP4p1Sd39YO87j9GMdVmWqGbHxbQjO+uuzZ1
pLNivhbN3riQvV8mH6fYHlnOJ6/uq96dHWbvnknL
-----END X509 CRL-----

