subject=/C=US/O=Test Certificates/CN=P12 Mapping 1to3 CA
issuer=/C=US/O=Test Certificates/CN=Trust Anchor
-----BEGIN CERTIFICATE-----
MIICvzCCAiigAwIBAgIBMTANBgkqhkiG9w0BAQUFADBAMQswCQYDVQQGEwJVUzEa
MBgGA1UEChMRVGVzdCBDZXJ0aWZpY2F0ZXMxFTATBgNVBAMTDFRydXN0IEFuY2hv
cjAeFw0wMTA0MTkxNDU3MjBaFw0xMTA0MTkxNDU3MjBaMEcxCzAJBgNVBAYTAlVT
MRowGAYDVQQKExFUZXN0IENlcnRpZmljYXRlczEcMBoGA1UEAxMTUDEyIE1hcHBp
bmcgMXRvMyBDQTCBnzANBgkqhkiG9w0BAQEFAAOBjQAwgYkCgYEAmTEwLH6u6mb6
kvz4ulbBVFC2Ea6WdEv2uH/vNi23mER2Nl+xAbeopiy3OLEiXavvD3uvVjX0bSOH
BGk2j/ern/Urw6djfKt5V4O3NMYi6Grvfm346kdutjJuBcNlhLOE8mLXUguspocr
AoAEjrQtuS4Bkb9A5wj3OYy4jr2JhtMCAwEAAaOBwTCBvjAfBgNVHSMEGDAWgBT7
bNQtgZ7KJ3qeDbA86pq8h/9J6jAdBgNVHQ4EFgQUreIKE61SbSWszamYogoEaK1y
rrIwDgYDVR0PAQH/BAQDAgEGMCUGA1UdIAQeMBwwDAYKYIZIAWUDAgEwATAMBgpg
hkgBZQMCATACMCYGA1UdIQEB/wQcMBowGAYKYIZIAWUDAgEwAQYKYIZIAWUDAgEw
AzAPBgNVHRMBAf8EBTADAQH/MAwGA1UdJAQFMAOAAQAwDQYJKoZIhvcNAQEFBQAD
gYEAEelnHhW6SAs3Zj4a5YMVTKDe7vCThen9bA1Awt3yFincViRt5/s2ZyzTN5fr
Xi+2m42Gm+Anb3D7rpV9IJ/PahHq4yrKSrcAzhT3IcHbuHFNwiw8Z3T+31hhjJUx
3atYpYOZZPYwuT0inFHJWRfBNA8NGBtqYlxI1C+/ucdy7ik=
-----END CERTIFICATE-----

subject=/C=US/O=Test Certificates/CN=Valid Policy Mapping EE Certificate Test12
issuer=/C=US/O=Test Certificates/CN=P12 Mapping 1to3 CA
-----BEGIN CERTIFICATE-----
MIIEKDCCA5GgAwIBAgIBAjANBgkqhkiG9w0BAQUFADBHMQswCQYDVQQGEwJVUzEa
MBgGA1UEChMRVGVzdCBDZXJ0aWZpY2F0ZXMxHDAaBgNVBAMTE1AxMiBNYXBwaW5n
IDF0bzMgQ0EwHhcNMDEwNDE5MTQ1NzIwWhcNMTEwNDE5MTQ1NzIwWjBeMQswCQYD
VQQGEwJVUzEaMBgGA1UEChMRVGVzdCBDZXJ0aWZpY2F0ZXMxMzAxBgNVBAMTKlZh
bGlkIFBvbGljeSBNYXBwaW5nIEVFIENlcnRpZmljYXRlIFRlc3QxMjCBnzANBgkq
hkiG9w0BAQEFAAOBjQAwgYkCgYEAiDGZx3j4WZj3UIYQBpID5IJr0ES7lhC5FAa2
ErfScZEz3LrPW5r859dobtF5TBB1IGznyZmZBhwl2vmDMTOAJV827Mwn19ELd+Vx
wAtFUtNszWAw1CQdx+kH+WJka6JxXPNQGWzgn/Q+Cbrq5BStqcZTHtF1NhVX4c+/
9RdkUesCAwEAAaOCAgswggIHMB8GA1UdIwQYMBaAFK3iChOtUm0lrM2pmKIKBGit
cq6yMB0GA1UdDgQWBBTkwpjC2Np+iZ8a8Y6b6DTyrLrvrzAOBgNVHQ8BAf8EBAMC
BPAwggGzBgNVHSAEggGqMIIBpjCB2AYKYIZIAWUDAgEwAzCByTCBxgYIKwYBBQUH
AgIwgbkagbZxNzogIFRoaXMgaXMgdGhlIHVzZXIgbm90aWNlIGZyb20gcXVhbGlm
aWVyIDcgYXNzb2NpYXRlZCB3aXRoIE5JU1QtdGVzdC1wb2xpY3ktMy4gIFRoaXMg
dXNlciBub3RpY2Ugc2hvdWxkIGJlIGRpc3BsYXllZCB3aGVuICBOSVNULXRlc3Qt
cG9saWN5LTEgaXMgaW4gdGhlIHVzZXItY29uc3RyYWluZWQtcG9saWN5LXNldDCB
yAYEVR0gADCBvzCBvAYIKwYBBQUHAgIwga8agaxxODogIFRoaXMgaXMgdGhlIHVz
ZXIgbm90aWNlIGZyb20gcXVhbGlmaWVyIDggYXNzb2NpYXRlZCB3aXRoIGFueVBv
bGljeS4gIFRoaXMgdXNlciBub3RpY2Ugc2hvdWxkIGJlIGRpc3BsYXllZCB3aGVu
IE5JU1QtdGVzdC1wb2xpY3ktMiBpcyBpbiB0aGUgdXNlci1jb25zdHJhaW5lZC1w
b2xpY3ktc2V0MA0GCSqGSIb3DQEBBQUAA4GBACzi00c5I7zzf41Ca5Ln8KYqgDts
W6Jh0j2NzYtm2W1us5l1tx6UsE5uygoREiVScCXanYaKtiwW5QDqMZb/Uu+izmIW
QRefqnHnyJqXxKQx8UwS+yNaIjT+ph7SJNF/DQrNwYWtNBD1vKhcNe8MDKWjAr9J
P7k+rI8qg8ug3og+
-----END CERTIFICATE-----

Certificate Revocation List (CRL):
        Version 2 (0x1)
        Signature Algorithm: sha1WithRSAEncryption
        Issuer: /C=US/O=Test Certificates/CN=P12 Mapping 1to3 CA
        Last Update: Apr 19 14:57:20 2001 GMT
        Next Update: Apr 19 14:57:20 2011 GMT
        CRL extensions:
            X509v3 Authority Key Identifier: 
                keyid:AD:E2:0A:13:AD:52:6D:25:AC:CD:A9:98:A2:0A:04:68:AD:72:AE:B2

            X509v3 CRL Number: 
                1
No Revoked Certificates.
    Signature Algorithm: sha1WithRSAEncryption
        94:34:62:ba:34:51:b4:ad:dd:01:40:fe:3d:eb:bc:6c:7c:89:
        cb:f0:7e:e5:38:03:50:93:5b:68:ba:d1:ca:14:39:ec:a8:9c:
        37:24:c3:0f:01:eb:14:67:8c:07:fc:37:1f:bb:45:b9:4f:5f:
        56:ad:f3:85:03:23:a8:bd:93:1c:ca:01:e8:b5:1c:c8:60:18:
        13:95:bf:5a:11:11:b2:3c:3c:27:69:bf:97:08:c0:b7:4a:7a:
        39:5e:03:2c:67:5a:11:a0:4f:6f:8d:70:4e:e2:b5:31:73:2a:
        bf:5b:15:af:5b:4e:14:e0:73:5b:f1:2d:cd:bc:75:44:42:d4:
        da:3b
-----BEGIN X509 CRL-----
MIIBQDCBqgIBATANBgkqhkiG9w0BAQUFADBHMQswCQYDVQQGEwJVUzEaMBgGA1UE
ChMRVGVzdCBDZXJ0aWZpY2F0ZXMxHDAaBgNVBAMTE1AxMiBNYXBwaW5nIDF0bzMg
Q0EXDTAxMDQxOTE0NTcyMFoXDTExMDQxOTE0NTcyMFqgLzAtMB8GA1UdIwQYMBaA
FK3iChOtUm0lrM2pmKIKBGitcq6yMAoGA1UdFAQDAgEBMA0GCSqGSIb3DQEBBQUA
A4GBAJQ0Yro0UbSt3QFA/j3rvGx8icvwfuU4A1CTW2i60coUOeyonDckww8B6xRn
jAf8Nx+7RblPX1at84UDI6i9kxzKAei1HMhgGBOVv1oREbI8PCdpv5cIwLdKejle
AyxnWhGgT2+NcE7itTFzKr9bFa9bThTgc1vxLc28dURC1No7
-----END X509 CRL-----

Certificate Revocation List (CRL):
        Version 2 (0x1)
        Signature Algorithm: sha1WithRSAEncryption
        Issuer: /C=US/O=Test Certificates/CN=Trust Anchor
        Last Update: Apr 19 14:57:20 2001 GMT
        Next Update: Apr 19 14:57:20 2011 GMT
        CRL extensions:
            X509v3 Authority Key Identifier: 
                keyid:FB:6C:D4:2D:81:9E:CA:27:7A:9E:0D:B0:3C:EA:9A:BC:87:FF:49:EA

            X509v3 CRL Number: 
                1
Revoked Certificates:
    Serial Number: 68
        Revocation Date: Apr 19 14:57:20 2001 GMT
        CRL entry extensions:
            X509v3 CRL Reason Code: 
                Key Compromise
    Signature Algorithm: sha1WithRSAEncryption
        92:12:c4:34:b4:92:ab:ba:71:6b:74:31:16:ce:ed:25:d6:4b:
        1e:fa:f8:20:1e:9d:d7:7f:30:ed:15:f7:8b:5d:64:9b:dd:31:
        40:e4:55:0f:0c:5f:82:69:63:00:76:a5:cf:9e:c4:5f:f2:53:
        9b:9b:7d:f5:69:1d:74:57:38:70:e5:fb:5b:76:58:c9:ec:31:
        dc:94:1b:02:ee:9d:33:9c:38:4b:29:1d:e1:0c:29:8b:6e:c7:
        bf:a0:e8:40:34:83:cf:ff:9f:cd:b5:f7:d9:4d:a7:9f:2e:bf:
        44:98:6b:f2:d3:fe:a8:20:31:c1:33:76:b7:1c:19:65:4d:b9:
        14:39
-----BEGIN X509 CRL-----
MIIBXTCBxwIBATANBgkqhkiG9w0BAQUFADBAMQswCQYDVQQGEwJVUzEaMBgGA1UE
ChMRVGVzdCBDZXJ0aWZpY2F0ZXMxFTATBgNVBAMTDFRydXN0IEFuY2hvchcNMDEw
NDE5MTQ1NzIwWhcNMTEwNDE5MTQ1NzIwWjAiMCACAWgXDTAxMDQxOTE0NTcyMFow
DDAKBgNVHRUEAwoBAaAvMC0wHwYDVR0jBBgwFoAU+2zULYGeyid6ng2wPOqavIf/
SeowCgYDVR0UBAMCAQEwDQYJKoZIhvcNAQEFBQADgYEAkhLENLSSq7pxa3QxFs7t
JdZLHvr4IB6d138w7RX3i11km90xQORVDwxfgmljAHalz57EX/JTm5t99WkddFc4
cOX7W3ZYyewx3JQbAu6dM5w4Sykd4Qwpi27Hv6DoQDSDz/+fzbX32U2nny6/RJhr
8tP+qCAxwTN2txwZZU25FDk=
-----END X509 CRL-----

