subject=/C=US/O=Test Certificates/CN=Two CRLs CA
issuer=/C=US/O=Test Certificates/CN=Trust Anchor
-----BEGIN CERTIFICATE-----
MIICcTCCAdqgAwIBAgIBCzANBgkqhkiG9w0BAQUFADBAMQswCQYDVQQGEwJVUzEa
MBgGA1UEChMRVGVzdCBDZXJ0aWZpY2F0ZXMxFTATBgNVBAMTDFRydXN0IEFuY2hv
cjAeFw0wMTA0MTkxNDU3MjBaFw0xMTA0MTkxNDU3MjBaMD8xCzAJBgNVBAYTAlVT
MRowGAYDVQQKExFUZXN0IENlcnRpZmljYXRlczEUMBIGA1UEAxMLVHdvIENSTHMg
Q0EwgZ8wDQYJKoZIhvcNAQEBBQADgY0AMIGJAoGBANF1dMq4ulaNZm1L3KlBM9wi
a4eu7sCry3O20zzWCttHHqG1W9UYLqqivx3HTyKvc/acTndqBtaz9HcdrETCRreu
UjKFAa19JAnjF88BluoZ7A7TjdhsGfsa8gcLUZCN6ZkJJok2wENNh0xdsVhVlmnV
p9rqIgYFPbZd0tvUp44xAgMBAAGjfDB6MB8GA1UdIwQYMBaAFPts1C2Bnsonep4N
sDzqmryH/0nqMB0GA1UdDgQWBBQwyOlKAd5DJkEjjFNTjLNHFheOyjAOBgNVHQ8B
Af8EBAMCAQYwFwYDVR0gBBAwDjAMBgpghkgBZQMCATABMA8GA1UdEwEB/wQFMAMB
Af8wDQYJKoZIhvcNAQEFBQADgYEAW8JONjczN4V2xpuIs064NZkR/ZEqwuPDedoS
bQMZtQfK7+587JhXzGM3Hv2INUge/GRWUS6Y0Ra74Z4EU0UjKIM0PfCkokiU9cMg
APFxIwTaaIfmrFY5FOAr0tvJXX1fwvLB2EEzFoD3m3FT5dKH3fV0l07W+rAzXGXd
Mhqyx5o=
-----END CERTIFICATE-----

subject=/C=US/O=Test Certificates/CN=Valid Two CRLs EE Certificate Test7
issuer=/C=US/O=Test Certificates/CN=Two CRLs CA
-----BEGIN CERTIFICATE-----
MIICdzCCAeCgAwIBAgIBATANBgkqhkiG9w0BAQUFADA/MQswCQYDVQQGEwJVUzEa
MBgGA1UEChMRVGVzdCBDZXJ0aWZpY2F0ZXMxFDASBgNVBAMTC1R3byBDUkxzIENB
MB4XDTAxMDQxOTE0NTcyMFoXDTExMDQxOTE0NTcyMFowVzELMAkGA1UEBhMCVVMx
GjAYBgNVBAoTEVRlc3QgQ2VydGlmaWNhdGVzMSwwKgYDVQQDEyNWYWxpZCBUd28g
Q1JMcyBFRSBDZXJ0aWZpY2F0ZSBUZXN0NzCBnzANBgkqhkiG9w0BAQEFAAOBjQAw
gYkCgYEAiWTa6oG+nNhsn3jFI0IU5eab51kPtxwKr8QO22md2ezjZi0Si3bkH+nL
d969Tfp3AtKQbsaNJVgYIP+GLylF1YmawBW39kLy8yuACUb9k0OlG02sW8u9SsTJ
ifK2hvRv/2dGMe6eOR0Rpknk/8CHUgPJHyU3wSewsookv22AcdsCAwEAAaNrMGkw
HwYDVR0jBBgwFoAUMMjpSgHeQyZBI4xTU4yzRxYXjsowHQYDVR0OBBYEFBVyE7Sc
ZE9qRg0qsIBnbUWvDEhPMA4GA1UdDwEB/wQEAwIE8DAXBgNVHSAEEDAOMAwGCmCG
SAFlAwIBMAEwDQYJKoZIhvcNAQEFBQADgYEAb3ltD/JZHS9eilXbrUwx4XAfOxMl
l62TnSCbUwvD3VvSBp6CSL9/GAcOIQvGvsbyaFCCtCfPwSDw+Ub4vONlBK5+8uGE
ceErncuILRQcNTwK8U3olehAt6Smh7aEcGBpdeMkSSZhoBSMe0GaIzCeDKELtG5d
3yyDUN+RlEGX0tE=
-----END CERTIFICATE-----

Certificate Revocation List (CRL):
        Version 2 (0x1)
        Signature Algorithm: sha1WithRSAEncryption
        Issuer: /C=US/O=Test Certificates/CN=Two CRLs CA
        Last Update: Apr 19 14:57:20 2001 GMT
        Next Update: Apr 19 14:57:20 2011 GMT
        CRL extensions:
            X509v3 Authority Key Identifier: 
                keyid:30:C8:E9:4A:01:DE:43:26:41:23:8C:53:53:8C:B3:47:16:17:8E:CA

            X509v3 CRL Number: 
                1
No Revoked Certificates.
    Signature Algorithm: sha1WithRSAEncryption
        af:97:f6:38:91:3b:72:79:fe:fe:8c:3e:65:dc:61:a8:72:ef:
        9f:73:2e:dc:16:db:92:3e:2a:dc:ba:32:f9:97:0c:6b:52:32:
        0c:7c:8b:89:a2:82:f2:81:6f:30:10:dd:5f:e9:ec:26:c6:35:
        c1:fa:94:79:ec:4c:9a:9a:82:ab:3f:be:9d:2a:3e:af:d8:e4:
        8e:c3:c1:c5:08:81:25:c7:11:83:98:6e:42:89:5e:6f:d6:c7:
        f8:d2:39:63:34:22:95:56:7f:f2:24:a1:62:18:b6:9e:ff:d4:
        0e:30:e1:b7:2c:03:90:70:81:51:bf:74:13:3c:dc:a9:28:55:
        98:d5
-----BEGIN X509 CRL-----
MIIBODCBogIBATANBgkqhkiG9w0BAQUFADA/MQswCQYDVQQGEwJVUzEaMBgGA1UE
ChMRVGVzdCBDZXJ0aWZpY2F0ZXMxFDASBgNVBAMTC1R3byBDUkxzIENBFw0wMTA0
MTkxNDU3MjBaFw0xMTA0MTkxNDU3MjBaoC8wLTAfBgNVHSMEGDAWgBQwyOlKAd5D
JkEjjFNTjLNHFheOyjAKBgNVHRQEAwIBATANBgkqhkiG9w0BAQUFAAOBgQCvl/Y4
kTtyef7+jD5l3GGocu+fcy7cFtuSPircujL5lwxrUjIMfIuJooLygW8wEN1f6ewm
xjXB+pR57EyamoKrP76dKj6v2OSOw8HFCIElxxGDmG5CiV5v1sf40jljNCKVVn/y
JKFiGLae/9QOMOG3LAOQcIFRv3QTPNypKFWY1Q==
-----END X509 CRL-----

Certificate Revocation List (CRL):
        Version 2 (0x1)
        Signature Algorithm: sha1WithRSAEncryption
        Issuer: /C=US/O=Test Certificates/CN=Trust Anchor
        Last Update: Apr 19 14:57:20 2001 GMT
        Next Update: Apr 19 14:57:20 2011 GMT
        CRL extensions:
            X509v3 Authority Key Identifier: 
                keyid:FB:6C:D4:2D:81:9E:CA:27:7A:9E:0D:B0:3C:EA:9A:BC:87:FF:49:EA

            X509v3 CRL Number: 
                1
Revoked Certificates:
    Serial Number: 68
        Revocation Date: Apr 19 14:57:20 2001 GMT
        CRL entry extensions:
            X509v3 CRL Reason Code: 
                Key Compromise
    Signature Algorithm: sha1WithRSAEncryption
        92:12:c4:34:b4:92:ab:ba:71:6b:74:31:16:ce:ed:25:d6:4b:
        1e:fa:f8:20:1e:9d:d7:7f:30:ed:15:f7:8b:5d:64:9b:dd:31:
        40:e4:55:0f:0c:5f:82:69:63:00:76:a5:cf:9e:c4:5f:f2:53:
        9b:9b:7d:f5:69:1d:74:57:38:70:e5:fb:5b:76:58:c9:ec:31:
        dc:94:1b:02:ee:9d:33:9c:38:4b:29:1d:e1:0c:29:8b:6e:c7:
        bf:a0:e8:40:34:83:cf:ff:9f:cd:b5:f7:d9:4d:a7:9f:2e:bf:
        44:98:6b:f2:d3:fe:a8:20:31:c1:33:76:b7:1c:19:65:4d:b9:
        14:39
-----BEGIN X509 CRL-----
MIIBXTCBxwIBATANBgkqhkiG9w0BAQUFADBAMQswCQYDVQQGEwJVUzEaMBgGA1UE
ChMRVGVzdCBDZXJ0aWZpY2F0ZXMxFTATBgNVBAMTDFRydXN0IEFuY2hvchcNMDEw
NDE5MTQ1NzIwWhcNMTEwNDE5MTQ1NzIwWjAiMCACAWgXDTAxMDQxOTE0NTcyMFow
DDAKBgNVHRUEAwoBAaAvMC0wHwYDVR0jBBgwFoAU+2zULYGeyid6ng2wPOqavIf/
SeowCgYDVR0UBAMCAQEwDQYJKoZIhvcNAQEFBQADgYEAkhLENLSSq7pxa3QxFs7t
JdZLHvr4IB6d138w7RX3i11km90xQORVDwxfgmljAHalz57EX/JTm5t99WkddFc4
cOX7W3ZYyewx3JQbAu6dM5w4Sykd4Qwpi27Hv6DoQDSDz/+fzbX32U2nny6/RJhr
8tP+qCAxwTN2txwZZU25FDk=
-----END X509 CRL-----

Certificate Revocation List (CRL):
        Version 2 (0x1)
        Signature Algorithm: sha1WithRSAEncryption
        Issuer: /C=US/O=Test Certificates/CN=Bad CRL for Two CRLs CA
        Last Update: Apr 19 14:57:20 2001 GMT
        Next Update: Apr 19 14:57:20 2011 GMT
        CRL extensions:
            X509v3 Authority Key Identifier: 
                keyid:30:C8:E9:4A:01:DE:43:26:41:23:8C:53:53:8C:B3:47:16:17:8E:CA

            X509v3 CRL Number: 
                1
Revoked Certificates:
    Serial Number: 01
        Revocation Date: Apr 19 14:57:20 2001 GMT
        CRL entry extensions:
            X509v3 CRL Reason Code: 
                Key Compromise
    Signature Algorithm: sha1WithRSAEncryption
        02:fb:a8:69:0a:aa:8c:4d:f2:07:f4:6a:6b:38:ae:da:15:1a:
        b8:c0:8b:d2:23:96:1d:3a:fd:d4:82:0f:c5:de:56:ba:c2:59:
        8f:9e:97:67:06:1a:d1:4b:d6:24:40:98:4b:b1:c2:85:3c:be:
        e3:be:28:9a:3e:56:1f:98:4c:9d:68:36:a8:eb:e6:1c:d5:52:
        de:30:49:e0:76:0b:bf:be:3e:9a:b2:18:f8:de:51:f0:f4:da:
        59:48:c5:00:9f:47:21:32:29:d9:f0:1b:75:18:a6:6f:d1:3c:
        56:b1:5a:e8:6f:06:ce:ce:5a:4e:97:c2:91:cf:6d:40:63:8f:
        d5:71
-----BEGIN X509 CRL-----
MIIBaDCB0gIBATANBgkqhkiG9w0BAQUFADBLMQswCQYDVQQGEwJVUzEaMBgGA1UE
ChMRVGVzdCBDZXJ0aWZpY2F0ZXMxIDAeBgNVBAMTF0JhZCBDUkwgZm9yIFR3byBD
UkxzIENBFw0wMTA0MTkxNDU3MjBaFw0xMTA0MTkxNDU3MjBaMCIwIAIBARcNMDEw
NDE5MTQ1NzIwWjAMMAoGA1UdFQQDCgEBoC8wLTAfBgNVHSMEGDAWgBQwyOlKAd5D
JkEjjFNTjLNHFheOyjAKBgNVHRQEAwIBATANBgkqhkiG9w0BAQUFAAOBgQAC+6hp
CqqMTfIH9GprOK7aFRq4wIvSI5YdOv3Ugg/F3la6wlmPnpdnBhrRS9YkQJhLscKF
PL7jviiaPlYfmEydaDao6+Yc1VLeMEngdgu/vj6ashj43lHw9NpZSMUAn0chMinZ
8Bt1GKZv0TxWsVrobwbOzlpOl8KRz21AY4/VcQ==
-----END X509 CRL-----

