subject=/C=US/O=Test Certificates/CN=nameConstraints DN2 CA
issuer=/C=US/O=Test Certificates/CN=Trust Anchor
-----BEGIN CERTIFICATE-----
MIIDKjCCApOgAwIBAgIBPzANBgkqhkiG9w0BAQUFADBAMQswCQYDVQQGEwJVUzEa
MBgGA1UEChMRVGVzdCBDZXJ0aWZpY2F0ZXMxFTATBgNVBAMTDFRydXN0IEFuY2hv
cjAeFw0wMTA0MTkxNDU3MjBaFw0xMTA0MTkxNDU3MjBaMEoxCzAJBgNVBAYTAlVT
MRowGAYDVQQKExFUZXN0IENlcnRpZmljYXRlczEfMB0GA1UEAxMWbmFtZUNvbnN0
cmFpbnRzIEROMiBDQTCBnzANBgkqhkiG9w0BAQEFAAOBjQAwgYkCgYEAtF5CubXL
7jLiEaC4u7BvRC1Z977doXE+03Y8hW6dFiuPJTcVnlMN2mSck2x6VylflhI7XVIB
PNiZZeRcEzbCJk3AmJL2NDh/20nxHhEr3jxWLmVeyLg1SXhD6WfJKwuvd61cnQkt
xvFXQEmlzIxBohRZv/YwermH858cZ4wH/9ECAwEAAaOCASgwggEkMB8GA1UdIwQY
MBaAFPts1C2Bnsonep4NsDzqmryH/0nqMB0GA1UdDgQWBBShfMTSexMLJgKOUfag
rNt28dFirTAOBgNVHQ8BAf8EBAMCAQYwFwYDVR0gBBAwDjAMBgpghkgBZQMCATAB
MA8GA1UdEwEB/wQFMAMBAf8wgacGA1UdHgEB/wSBnDCBmaCBljBJpEcwRTELMAkG
A1UEBhMCVVMxGjAYBgNVBAoTEVRlc3QgQ2VydGlmaWNhdGVzMRowGAYDVQQLExFw
ZXJtaXR0ZWRTdWJ0cmVlMTBJpEcwRTELMAkGA1UEBhMCVVMxGjAYBgNVBAoTEVRl
c3QgQ2VydGlmaWNhdGVzMRowGAYDVQQLExFwZXJtaXR0ZWRTdWJ0cmVlMjANBgkq
hkiG9w0BAQUFAAOBgQAw7If++YRGfq6fz1Wm8RpFEbKLi3110GORteylvI+G75Hu
d6luoo/n/arIfKwWChanGI39YZQ4zYhx00qVeQRbUUuLMjkx14XQVntKAG8sI+KE
mWmt2cip5+XbIJonQDFQAnQWrhAGpw+ilvfv7v2f+9Q87cYLEoIOPHWstobcug==
-----END CERTIFICATE-----

subject=/C=US/O=Test Certificates/OU=permittedSubtree1/CN=Valid DN nameConstraints EE Certificate Test5
issuer=/C=US/O=Test Certificates/CN=nameConstraints DN2 CA
-----BEGIN CERTIFICATE-----
MIIDOTCCAqKgAwIBAgIBATANBgkqhkiG9w0BAQUFADBKMQswCQYDVQQGEwJVUzEa
MBgGA1UEChMRVGVzdCBDZXJ0aWZpY2F0ZXMxHzAdBgNVBAMTFm5hbWVDb25zdHJh
aW50cyBETjIgQ0EwHhcNMDEwNDE5MTQ1NzIwWhcNMTEwNDE5MTQ1NzIwWjB9MQsw
CQYDVQQGEwJVUzEaMBgGA1UEChMRVGVzdCBDZXJ0aWZpY2F0ZXMxGjAYBgNVBAsT
EXBlcm1pdHRlZFN1YnRyZWUxMTYwNAYDVQQDEy1WYWxpZCBETiBuYW1lQ29uc3Ry
YWludHMgRUUgQ2VydGlmaWNhdGUgVGVzdDUwgZ8wDQYJKoZIhvcNAQEBBQADgY0A
MIGJAoGBAMMSbKt/wrsfhfsOqi60ijsWABK1LY20O0SAKCNKW2LuoK3iYZRMPRMT
2Oym1z29akHaZ5ftLz/WGQ5JuabuVkg4Gx1xRloNkS0RQlIuRMJfLM2mzlXWH5ud
oXHeHmwbUiYvWFbmwrx4xZbeSaePIYctisexGIa20LJ67Pd8t6OvAgMBAAGjgfsw
gfgwHwYDVR0jBBgwFoAUoXzE0nsTCyYCjlH2oKzbdvHRYq0wHQYDVR0OBBYEFMRD
3dYx5+B/4AavhJ+9quSyY66XMA4GA1UdDwEB/wQEAwIE8DAXBgNVHSAEEDAOMAwG
CmCGSAFlAwIBMAEwgYwGA1UdEQSBhDCBgaR/MH0xCzAJBgNVBAYTAlVTMRowGAYD
VQQKExFUZXN0IENlcnRpZmljYXRlczEaMBgGA1UECxMRcGVybWl0dGVkU3VidHJl
ZTIxNjA0BgNVBAMTLVZhbGlkIEROIG5hbWVDb25zdHJhaW50cyBFRSBDZXJ0aWZp
Y2F0ZSBUZXN0NTANBgkqhkiG9w0BAQUFAAOBgQCfVuaBKnayPluCi5d9KyF783Oi
JpQn0SY2yAfXdRAH3cugsfzlo0rsjHyRPj+g5QW5yabg7uJbj11/tnQ/En7u56cj
mnDBuLqUFrqkJY3Md+k/bCXomEjddbEGKjV8d54oD8ngld0Oy4+fBPQbNo1apc7K
LqdooapvnR5Nm8qsWQ==
-----END CERTIFICATE-----

Certificate Revocation List (CRL):
        Version 2 (0x1)
        Signature Algorithm: sha1WithRSAEncryption
        Issuer: /C=US/O=Test Certificates/CN=nameConstraints DN2 CA
        Last Update: Apr 19 14:57:20 2001 GMT
        Next Update: Apr 19 14:57:20 2011 GMT
        CRL extensions:
            X509v3 Authority Key Identifier: 
                keyid:A1:7C:C4:D2:7B:13:0B:26:02:8E:51:F6:A0:AC:DB:76:F1:D1:62:AD

            X509v3 CRL Number: 
                1
No Revoked Certificates.
    Signature Algorithm: sha1WithRSAEncryption
        61:8f:48:c3:1c:a7:3f:ae:b4:6b:c3:99:b1:72:4c:ea:6a:b7:
        e7:93:fc:d6:ef:4b:64:a2:cd:a8:45:04:4c:b5:14:5b:60:24:
        83:f1:36:22:75:b9:96:22:2f:48:86:bd:a9:8d:f5:9b:f0:bb:
        c8:f4:70:13:6d:71:a3:8b:0c:a5:ea:5f:8f:42:45:b7:e0:4d:
        ee:47:1a:39:53:3a:5a:61:3a:6b:8b:39:26:ca:38:f8:b5:c7:
        8d:44:d3:47:7d:68:29:b9:4d:86:af:fc:26:11:da:02:07:63:
        ff:9a:19:51:33:84:bc:a6:ee:f2:12:61:24:92:86:ae:73:41:
        1f:b6
-----BEGIN X509 CRL-----
MIIBQzCBrQIBATANBgkqhkiG9w0BAQUFADBKMQswCQYDVQQGEwJVUzEaMBgGA1UE
ChMRVGVzdCBDZXJ0aWZpY2F0ZXMxHzAdBgNVBAMTFm5hbWVDb25zdHJhaW50cyBE
TjIgQ0EXDTAxMDQxOTE0NTcyMFoXDTExMDQxOTE0NTcyMFqgLzAtMB8GA1UdIwQY
MBaAFKF8xNJ7EwsmAo5R9qCs23bx0WKtMAoGA1UdFAQDAgEBMA0GCSqGSIb3DQEB
BQUAA4GBAGGPSMMcpz+utGvDmbFyTOpqt+eT/NbvS2SizahFBEy1FFtgJIPxNiJ1
uZYiL0iGvamN9Zvwu8j0cBNtcaOLDKXqX49CRbfgTe5HGjlTOlphOmuLOSbKOPi1
x41E00d9aCm5TYav/CYR2gIHY/+aGVEzhLym7vISYSSShq5zQR+2
-----END X509 CRL-----

Certificate Revocation List (CRL):
        Version 2 (0x1)
        Signature Algorithm: sha1WithRSAEncryption
        Issuer: /C=US/O=Test Certificates/CN=Trust Anchor
        Last Update: Apr 19 14:57:20 2001 GMT
        Next Update: Apr 19 14:57:20 2011 GMT
        CRL extensions:
            X509v3 Authority Key Identifier: 
                keyid:FB:6C:D4:2D:81:9E:CA:27:7A:9E:0D:B0:3C:EA:9A:BC:87:FF:49:EA

            X509v3 CRL Number: 
                1
Revoked Certificates:
    Serial Number: 68
        Revocation Date: Apr 19 14:57:20 2001 GMT
        CRL entry extensions:
            X509v3 CRL Reason Code: 
                Key Compromise
    Signature Algorithm: sha1WithRSAEncryption
        92:12:c4:34:b4:92:ab:ba:71:6b:74:31:16:ce:ed:25:d6:4b:
        1e:fa:f8:20:1e:9d:d7:7f:30:ed:15:f7:8b:5d:64:9b:dd:31:
        40:e4:55:0f:0c:5f:82:69:63:00:76:a5:cf:9e:c4:5f:f2:53:
        9b:9b:7d:f5:69:1d:74:57:38:70:e5:fb:5b:76:58:c9:ec:31:
        dc:94:1b:02:ee:9d:33:9c:38:4b:29:1d:e1:0c:29:8b:6e:c7:
        bf:a0:e8:40:34:83:cf:ff:9f:cd:b5:f7:d9:4d:a7:9f:2e:bf:
        44:98:6b:f2:d3:fe:a8:20:31:c1:33:76:b7:1c:19:65:4d:b9:
        14:39
-----BEGIN X509 CRL-----
MIIBXTCBxwIBATANBgkqhkiG9w0BAQUFADBAMQswCQYDVQQGEwJVUzEaMBgGA1UE
ChMRVGVzdCBDZXJ0aWZpY2F0ZXMxFTATBgNVBAMTDFRydXN0IEFuY2hvchcNMDEw
NDE5MTQ1NzIwWhcNMTEwNDE5MTQ1NzIwWjAiMCACAWgXDTAxMDQxOTE0NTcyMFow
DDAKBgNVHRUEAwoBAaAvMC0wHwYDVR0jBBgwFoAU+2zULYGeyid6ng2wPOqavIf/
SeowCgYDVR0UBAMCAQEwDQYJKoZIhvcNAQEFBQADgYEAkhLENLSSq7pxa3QxFs7t
JdZLHvr4IB6d138w7RX3i11km90xQORVDwxfgmljAHalz57EX/JTm5t99WkddFc4
cOX7W3ZYyewx3JQbAu6dM5w4Sykd4Qwpi27Hv6DoQDSDz/+fzbX32U2nny6/RJhr
8tP+qCAxwTN2txwZZU25FDk=
-----END X509 CRL-----

