subject=
issuer=/C=US/O=Test Certificates/OU=permittedSubtree1/CN=nameConstraints DN1 subCA2
-----BEGIN CERTIFICATE-----
MIICkDCCAfmgAwIBAgIBAjANBgkqhkiG9w0BAQUFADBqMQswCQYDVQQGEwJVUzEa
MBgGA1UEChMRVGVzdCBDZXJ0aWZpY2F0ZXMxGjAYBgNVBAsTEXBlcm1pdHRlZFN1
YnRyZWUxMSMwIQYDVQQDExpuYW1lQ29uc3RyYWludHMgRE4xIHN1YkNBMjAeFw0w
MTA0MTkxNDU3MjBaFw0xMTA0MTkxNDU3MjBaMAAwgZ8wDQYJKoZIhvcNAQEBBQAD
gY0AMIGJAoGBAK5n11EFLCX399YnLoDu+WMSsdD5RH6rHhn9p0cp2PAWiwDuXGka
pOpn/ZgxpgF/Ydw7ASh9/R0rJD0EfAG7rADF6j3ECZntAJmdiO7euB16HhemfpVN
ZRiCcehJVtTK+G3vptIsyPFsdWYusjaRHdEniqEv0+rI8ZdP2RBn/pn5AgMBAAGj
ga8wgawwHwYDVR0jBBgwFoAU1a9rKA2drUhsDIIq/9JoCS8UbVcwHQYDVR0OBBYE
FDv0z/QxqCSlpmLnB0ps7mSrkwUoMA4GA1UdDwEB/wQEAwIE8DAXBgNVHSAEEDAO
MAwGCmCGSAFlAwIBMAEwQQYDVR0RAQH/BDcwNYEzVmFsaWRETm5hbWVDb25zdHJh
aW50c1Rlc3QxNEVFQHRlc3RjZXJ0aWZpY2F0ZXMuZ292MA0GCSqGSIb3DQEBBQUA
A4GBAEfjsvrVypBwFe1Fa4RRq10LsqrrCLc1NPiFR0B2yliqIBq81FAJcdEDNmZq
D8C5gctYTrk9OgXYKgTzUkO8UGNtOYhDPrz1LyBnpND5D1ggYJe+xur2EX0ilhDO
iq9+08Vo59/dYFQlttOeyY+LJMNzWqQAxxtf3p89oTOgQfxW
-----END CERTIFICATE-----

subject=/C=US/O=Test Certificates/CN=nameConstraints DN1 CA
issuer=/C=US/O=Test Certificates/CN=Trust Anchor
-----BEGIN CERTIFICATE-----
MIIC2TCCAkKgAwIBAgIBPjANBgkqhkiG9w0BAQUFADBAMQswCQYDVQQGEwJVUzEa
MBgGA1UEChMRVGVzdCBDZXJ0aWZpY2F0ZXMxFTATBgNVBAMTDFRydXN0IEFuY2hv
cjAeFw0wMTA0MTkxNDU3MjBaFw0xMTA0MTkxNDU3MjBaMEoxCzAJBgNVBAYTAlVT
MRowGAYDVQQKExFUZXN0IENlcnRpZmljYXRlczEfMB0GA1UEAxMWbmFtZUNvbnN0
cmFpbnRzIEROMSBDQTCBnzANBgkqhkiG9w0BAQEFAAOBjQAwgYkCgYEAnL2vzTK+
WcGR2rmlezdUTUQkfIvzcTWRIVW2x+BxQPrPfoLqmpYZar4sY8ND0l3pQWcIFsGY
AYmm2vHULqUxZMW9R/dM3wqstOXd2JJVxvw/v4ajYB5lPNcrv8LyxxjVU2daqlYX
BCfL9/O6417oYys1UKNtEp6n6HV/ZbEJG70CAwEAAaOB2DCB1TAfBgNVHSMEGDAW
gBT7bNQtgZ7KJ3qeDbA86pq8h/9J6jAdBgNVHQ4EFgQUTi6j59ndi6eCO0FKw558
WSNXTlMwDgYDVR0PAQH/BAQDAgEGMBcGA1UdIAQQMA4wDAYKYIZIAWUDAgEwATAP
BgNVHRMBAf8EBTADAQH/MFkGA1UdHgEB/wRPME2gSzBJpEcwRTELMAkGA1UEBhMC
VVMxGjAYBgNVBAoTEVRlc3QgQ2VydGlmaWNhdGVzMRowGAYDVQQLExFwZXJtaXR0
ZWRTdWJ0cmVlMTANBgkqhkiG9w0BAQUFAAOBgQC9ypqhZWCmrISRla+Nxp/vshOs
UQcyF9Se7PBrkAfl37dg70aSgX0/6Xef8i5v3MRCar6lM8x+coBMHK41VUG9g6VW
2DAoCG3ajBCj48vN0Gd4dUwvsGAmmVuIwH0R/+2IBMp00341fpjIjUrMpxcxDFwe
Ve3YFugTb2fMnETR7A==
-----END CERTIFICATE-----

subject=/C=US/O=Test Certificates/OU=permittedSubtree1/CN=nameConstraints DN1 subCA2
issuer=/C=US/O=Test Certificates/CN=nameConstraints DN1 CA
-----BEGIN CERTIFICATE-----
MIIDAzCCAmygAwIBAgIBBjANBgkqhkiG9w0BAQUFADBKMQswCQYDVQQGEwJVUzEa
MBgGA1UEChMRVGVzdCBDZXJ0aWZpY2F0ZXMxHzAdBgNVBAMTFm5hbWVDb25zdHJh
aW50cyBETjEgQ0EwHhcNMDEwNDE5MTQ1NzIwWhcNMTEwNDE5MTQ1NzIwWjBqMQsw
CQYDVQQGEwJVUzEaMBgGA1UEChMRVGVzdCBDZXJ0aWZpY2F0ZXMxGjAYBgNVBAsT
EXBlcm1pdHRlZFN1YnRyZWUxMSMwIQYDVQQDExpuYW1lQ29uc3RyYWludHMgRE4x
IHN1YkNBMjCBnzANBgkqhkiG9w0BAQEFAAOBjQAwgYkCgYEAteRgCqKcIeCHmYMc
xyzmM+fCjW6MAEl+OFQ9Q7UJ1n9YE0TuaGiSxjTkrTXwDF2JoDwMtC6FoqnvEyEk
kAxNlM0oiLhRxM9FcNCow3VK458jtPozrIgd/7PAP+FXsqPanD2DRYj4c1gNKSl4
U/l6HyTj+yV6ax5EkPgQDLQlJksCAwEAAaOB2DCB1TAfBgNVHSMEGDAWgBROLqPn
2d2Lp4I7QUrDnnxZI1dOUzAdBgNVHQ4EFgQU1a9rKA2drUhsDIIq/9JoCS8UbVcw
DgYDVR0PAQH/BAQDAgEGMBcGA1UdIAQQMA4wDAYKYIZIAWUDAgEwATAPBgNVHRMB
Af8EBTADAQH/MFkGA1UdHgEB/wRPME2gSzBJpEcwRTELMAkGA1UEBhMCVVMxGjAY
BgNVBAoTEVRlc3QgQ2VydGlmaWNhdGVzMRowGAYDVQQLExFwZXJtaXR0ZWRTdWJ0
cmVlMjANBgkqhkiG9w0BAQUFAAOBgQANN5YtrqXFWfdpK19qY+rn50d/fYdLaOU5
dSIAqmnB5woTCXdWF0LUADF4DkPfcWBxbE36lwBuGXBfiInH/5yLRy0Y9cZbtHSg
QwTIf2a+38pR6QyBniftVBmBTuhO/PV+/kA8gKAZ6X4+vGMv69YjU9avYeS1o+XW
liQdX8l7vg==
-----END CERTIFICATE-----

Certificate Revocation List (CRL):
        Version 2 (0x1)
        Signature Algorithm: sha1WithRSAEncryption
        Issuer: /C=US/O=Test Certificates/CN=nameConstraints DN1 CA
        Last Update: Apr 19 14:57:20 2001 GMT
        Next Update: Apr 19 14:57:20 2011 GMT
        CRL extensions:
            X509v3 Authority Key Identifier: 
                keyid:4E:2E:A3:E7:D9:DD:8B:A7:82:3B:41:4A:C3:9E:7C:59:23:57:4E:53

            X509v3 CRL Number: 
                1
No Revoked Certificates.
    Signature Algorithm: sha1WithRSAEncryption
        99:8a:59:ed:d0:76:00:b5:5b:70:91:75:a0:4d:60:16:df:72:
        71:89:61:43:5b:d4:65:f6:8d:0b:25:39:17:86:6d:1d:c4:cc:
        19:3c:20:21:71:5f:a3:5f:d4:52:e6:d1:c4:cb:39:92:65:80:
        74:46:a9:5c:7c:7c:c2:4c:1f:8d:fb:aa:bd:4a:de:6a:3b:0a:
        29:ba:9c:70:13:84:fd:c7:aa:d3:03:99:f0:93:3a:cf:cb:e2:
        39:e9:e3:1b:ff:10:07:a3:51:5c:ff:dd:da:a9:29:05:12:3a:
        f0:10:a1:d8:9c:5e:ec:0f:c3:02:cd:f9:ab:b2:d0:36:32:0e:
        e8:eb
-----BEGIN X509 CRL-----
MIIBQzCBrQIBATANBgkqhkiG9w0BAQUFADBKMQswCQYDVQQGEwJVUzEaMBgGA1UE
ChMRVGVzdCBDZXJ0aWZpY2F0ZXMxHzAdBgNVBAMTFm5hbWVDb25zdHJhaW50cyBE
TjEgQ0EXDTAxMDQxOTE0NTcyMFoXDTExMDQxOTE0NTcyMFqgLzAtMB8GA1UdIwQY
MBaAFE4uo+fZ3YungjtBSsOefFkjV05TMAoGA1UdFAQDAgEBMA0GCSqGSIb3DQEB
BQUAA4GBAJmKWe3QdgC1W3CRdaBNYBbfcnGJYUNb1GX2jQslOReGbR3EzBk8ICFx
X6Nf1FLm0cTLOZJlgHRGqVx8fMJMH437qr1K3mo7Cim6nHAThP3HqtMDmfCTOs/L
4jnp4xv/EAejUVz/3dqpKQUSOvAQodicXuwPwwLN+auy0DYyDujr
-----END X509 CRL-----

Certificate Revocation List (CRL):
        Version 2 (0x1)
        Signature Algorithm: sha1WithRSAEncryption
        Issuer: /C=US/O=Test Certificates/CN=Trust Anchor
        Last Update: Apr 19 14:57:20 2001 GMT
        Next Update: Apr 19 14:57:20 2011 GMT
        CRL extensions:
            X509v3 Authority Key Identifier: 
                keyid:FB:6C:D4:2D:81:9E:CA:27:7A:9E:0D:B0:3C:EA:9A:BC:87:FF:49:EA

            X509v3 CRL Number: 
                1
Revoked Certificates:
    Serial Number: 68
        Revocation Date: Apr 19 14:57:20 2001 GMT
        CRL entry extensions:
            X509v3 CRL Reason Code: 
                Key Compromise
    Signature Algorithm: sha1WithRSAEncryption
        92:12:c4:34:b4:92:ab:ba:71:6b:74:31:16:ce:ed:25:d6:4b:
        1e:fa:f8:20:1e:9d:d7:7f:30:ed:15:f7:8b:5d:64:9b:dd:31:
        40:e4:55:0f:0c:5f:82:69:63:00:76:a5:cf:9e:c4:5f:f2:53:
        9b:9b:7d:f5:69:1d:74:57:38:70:e5:fb:5b:76:58:c9:ec:31:
        dc:94:1b:02:ee:9d:33:9c:38:4b:29:1d:e1:0c:29:8b:6e:c7:
        bf:a0:e8:40:34:83:cf:ff:9f:cd:b5:f7:d9:4d:a7:9f:2e:bf:
        44:98:6b:f2:d3:fe:a8:20:31:c1:33:76:b7:1c:19:65:4d:b9:
        14:39
-----BEGIN X509 CRL-----
MIIBXTCBxwIBATANBgkqhkiG9w0BAQUFADBAMQswCQYDVQQGEwJVUzEaMBgGA1UE
ChMRVGVzdCBDZXJ0aWZpY2F0ZXMxFTATBgNVBAMTDFRydXN0IEFuY2hvchcNMDEw
NDE5MTQ1NzIwWhcNMTEwNDE5MTQ1NzIwWjAiMCACAWgXDTAxMDQxOTE0NTcyMFow
DDAKBgNVHRUEAwoBAaAvMC0wHwYDVR0jBBgwFoAU+2zULYGeyid6ng2wPOqavIf/
SeowCgYDVR0UBAMCAQEwDQYJKoZIhvcNAQEFBQADgYEAkhLENLSSq7pxa3QxFs7t
JdZLHvr4IB6d138w7RX3i11km90xQORVDwxfgmljAHalz57EX/JTm5t99WkddFc4
cOX7W3ZYyewx3JQbAu6dM5w4Sykd4Qwpi27Hv6DoQDSDz/+fzbX32U2nny6/RJhr
8tP+qCAxwTN2txwZZU25FDk=
-----END X509 CRL-----

Certificate Revocation List (CRL):
        Version 2 (0x1)
        Signature Algorithm: sha1WithRSAEncryption
        Issuer: /C=US/O=Test Certificates/OU=permittedSubtree1/CN=nameConstraints DN1 subCA2
        Last Update: Apr 19 14:57:20 2001 GMT
        Next Update: Apr 19 14:57:20 2011 GMT
        CRL extensions:
            X509v3 Authority Key Identifier: 
                keyid:D5:AF:6B:28:0D:9D:AD:48:6C:0C:82:2A:FF:D2:68:09:2F:14:6D:57

            X509v3 CRL Number: 
                1
No Revoked Certificates.
    Signature Algorithm: sha1WithRSAEncryption
        af:f5:73:47:0b:2b:ce:c1:5c:82:7a:07:ed:cd:ce:55:02:85:
        34:07:7e:46:10:13:e0:94:7e:8c:27:9c:f5:52:89:55:5b:fc:
        e9:08:32:b3:54:75:03:c0:ad:8a:b7:e3:fa:5e:73:10:90:5f:
        26:ca:6e:1c:e2:68:e4:99:4c:06:38:3b:56:25:ce:82:a5:7a:
        3f:0e:c5:a4:78:8b:19:d2:fc:a6:4f:f2:6d:d6:12:5f:69:03:
        98:b8:00:c2:0d:4f:9e:47:fd:66:3e:ac:e4:fb:55:f3:4b:bf:
        42:54:ce:46:a2:5c:fd:c4:5f:d8:61:5a:61:9b:a1:2c:af:0a:
        a2:2e
-----BEGIN X509 CRL-----
MIIBYzCBzQIBATANBgkqhkiG9w0BAQUFADBqMQswCQYDVQQGEwJVUzEaMBgGA1UE
ChMRVGVzdCBDZXJ0aWZpY2F0ZXMxGjAYBgNVBAsTEXBlcm1pdHRlZFN1YnRyZWUx
MSMwIQYDVQQDExpuYW1lQ29uc3RyYWludHMgRE4xIHN1YkNBMhcNMDEwNDE5MTQ1
NzIwWhcNMTEwNDE5MTQ1NzIwWqAvMC0wHwYDVR0jBBgwFoAU1a9rKA2drUhsDIIq
/9JoCS8UbVcwCgYDVR0UBAMCAQEwDQYJKoZIhvcNAQEFBQADgYEAr/VzRwsrzsFc
gnoH7c3OVQKFNAd+RhAT4JR+jCec9VKJVVv86Qgys1R1A8Ctirfj+l5zEJBfJspu
HOJo5JlMBjg7ViXOgqV6Pw7FpHiLGdL8pk/ybdYSX2kDmLgAwg1Pnkf9Zj6s5PtV
80u/QlTORqJc/cRf2GFaYZuhLK8Koi4=
-----END X509 CRL-----

