subject=/C=US/O=Test Certificates/CN=onlyContainsCACerts CA
issuer=/C=US/O=Test Certificates/CN=Trust Anchor
-----BEGIN CERTIFICATE-----
MIICfDCCAeWgAwIBAgIBTjANBgkqhkiG9w0BAQUFADBAMQswCQYDVQQGEwJVUzEa
MBgGA1UEChMRVGVzdCBDZXJ0aWZpY2F0ZXMxFTATBgNVBAMTDFRydXN0IEFuY2hv
cjAeFw0wMTA0MTkxNDU3MjBaFw0xMTA0MTkxNDU3MjBaMEoxCzAJBgNVBAYTAlVT
MRowGAYDVQQKExFUZXN0IENlcnRpZmljYXRlczEfMB0GA1UEAxMWb25seUNvbnRh
aW5zQ0FDZXJ0cyBDQTCBnzANBgkqhkiG9w0BAQEFAAOBjQAwgYkCgYEAqP8z3Y0v
UCVXIVXCpbr+dcdoZFi0UZQPvl77hqqVORSs9FefV5mTeuoDDfhtUYa+O6Wzh2v/
Yzv1MzPQzePG3eho/6CLs4pzqVWZDzYTG6OXubjPvYT10WykqfaWuivcn5YxbHuA
cRitNsBAvY1Nq/kPDtsPJz1t5+PDRVO64gsCAwEAAaN8MHowHwYDVR0jBBgwFoAU
+2zULYGeyid6ng2wPOqavIf/SeowHQYDVR0OBBYEFPOhB0Zne+mPWavrVYaTyKzk
VbcYMA4GA1UdDwEB/wQEAwIBBjAXBgNVHSAEEDAOMAwGCmCGSAFlAwIBMAEwDwYD
VR0TAQH/BAUwAwEB/zANBgkqhkiG9w0BAQUFAAOBgQDGkMUjQFfto4SQpRJ2fAeU
qXp2dn4kt+s/ITPOIykUFaybQ6eaGRcWN4kTi7IufbSeI7lmaa4SC+bq14tfSf/w
gJSpwu58pIbPHKN0IgB+9S8eRS8wmB4HcBflmNZz/NX6wJzwJt15ZC+gek+eZGUw
Qck6L9wt5i1wMFyRwBmAHQ==
-----END CERTIFICATE-----

subject=/C=US/O=Test Certificates/CN=Valid onlyContainsCACerts EE Certificate Test13
issuer=/C=US/O=Test Certificates/CN=onlyContainsCACerts CA
-----BEGIN CERTIFICATE-----
MIICnzCCAgigAwIBAgIBAjANBgkqhkiG9w0BAQUFADBKMQswCQYDVQQGEwJVUzEa
MBgGA1UEChMRVGVzdCBDZXJ0aWZpY2F0ZXMxHzAdBgNVBAMTFm9ubHlDb250YWlu
c0NBQ2VydHMgQ0EwHhcNMDEwNDE5MTQ1NzIwWhcNMTEwNDE5MTQ1NzIwWjBjMQsw
CQYDVQQGEwJVUzEaMBgGA1UEChMRVGVzdCBDZXJ0aWZpY2F0ZXMxODA2BgNVBAMT
L1ZhbGlkIG9ubHlDb250YWluc0NBQ2VydHMgRUUgQ2VydGlmaWNhdGUgVGVzdDEz
MIGfMA0GCSqGSIb3DQEBAQUAA4GNADCBiQKBgQCleZwZx1DWjtQUI6sccnzSSv3J
scTabLlHXVLbXj57OzT/9XuVVLkRe6ZB95/CCO8YM/bYdtmJEwtT3S7J7jaSI1XM
NBi9E5Uc2y6RXOEZ4dL8LFJjZYIQNbRUgg2o5rtJ55N7Hp/uA5zJYKH9wtNBXAlj
i0eULWMWi42zHc/w1wIDAQABo3wwejAfBgNVHSMEGDAWgBTzoQdGZ3vpj1mr61WG
k8is5FW3GDAdBgNVHQ4EFgQUQrE9JN7MpRBHp0VYS792Fg2IxOMwDgYDVR0PAQH/
BAQDAgH2MBcGA1UdIAQQMA4wDAYKYIZIAWUDAgEwATAPBgNVHRMBAf8EBTADAQH/
MA0GCSqGSIb3DQEBBQUAA4GBAI7d4izaGul72X3r0YD8tjwHlxMMBg7/4nO6PrJd
+blNKJwn/eqMJdekiTWjl2E+PKS4nBCBSeFeoboUHLnQ/AHevzxnJiEUK7otOXim
UFRLlktEMASIbfUjiJrkwmL6JxvDXlbmhJNVlXZI6bRfAxi2XXt6o+ZO0VAFlebG
iga9
-----END CERTIFICATE-----

Certificate Revocation List (CRL):
        Version 2 (0x1)
        Signature Algorithm: sha1WithRSAEncryption
        Issuer: /C=US/O=Test Certificates/CN=onlyContainsCACerts CA
        Last Update: Apr 19 14:57:20 2001 GMT
        Next Update: Apr 19 14:57:20 2011 GMT
        CRL extensions:
            X509v3 Authority Key Identifier: 
                keyid:F3:A1:07:46:67:7B:E9:8F:59:AB:EB:55:86:93:C8:AC:E4:55:B7:18

            X509v3 CRL Number: 
                1
            2.5.29.28: critical
                0....
No Revoked Certificates.
    Signature Algorithm: sha1WithRSAEncryption
        54:27:ac:fc:b5:7a:93:93:e7:f2:e9:63:f7:52:ad:20:08:4c:
        52:08:62:e6:f6:81:71:1d:72:f4:1d:bf:db:06:52:d6:4f:8b:
        86:68:4a:ca:01:4a:fd:b9:7e:5d:7a:df:48:67:36:9b:31:12:
        dd:13:29:b2:8e:b6:ba:c4:20:31:57:4f:7e:c6:d1:3c:0b:e5:
        1c:a0:c2:15:c6:09:5b:77:ca:95:37:31:7d:a8:08:4d:ae:60:
        4f:3c:b4:ef:92:9d:f1:11:5f:a1:1b:2d:ff:e6:2e:07:88:4e:
        2c:88:54:b8:e1:be:4e:6c:22:90:0e:37:0d:b2:8d:61:21:46:
        36:29
-----BEGIN X509 CRL-----
MIIBVDCBvgIBATANBgkqhkiG9w0BAQUFADBKMQswCQYDVQQGEwJVUzEaMBgGA1UE
ChMRVGVzdCBDZXJ0aWZpY2F0ZXMxHzAdBgNVBAMTFm9ubHlDb250YWluc0NBQ2Vy
dHMgQ0EXDTAxMDQxOTE0NTcyMFoXDTExMDQxOTE0NTcyMFqgQDA+MB8GA1UdIwQY
MBaAFPOhB0Zne+mPWavrVYaTyKzkVbcYMAoGA1UdFAQDAgEBMA8GA1UdHAEB/wQF
MAOCAf8wDQYJKoZIhvcNAQEFBQADgYEAVCes/LV6k5Pn8ulj91KtIAhMUghi5vaB
cR1y9B2/2wZS1k+LhmhKygFK/bl+XXrfSGc2mzES3RMpso62usQgMVdPfsbRPAvl
HKDCFcYJW3fKlTcxfagITa5gTzy075Kd8RFfoRst/+YuB4hOLIhUuOG+TmwikA43
DbKNYSFGNik=
-----END X509 CRL-----

Certificate Revocation List (CRL):
        Version 2 (0x1)
        Signature Algorithm: sha1WithRSAEncryption
        Issuer: /C=US/O=Test Certificates/CN=Trust Anchor
        Last Update: Apr 19 14:57:20 2001 GMT
        Next Update: Apr 19 14:57:20 2011 GMT
        CRL extensions:
            X509v3 Authority Key Identifier: 
                keyid:FB:6C:D4:2D:81:9E:CA:27:7A:9E:0D:B0:3C:EA:9A:BC:87:FF:49:EA

            X509v3 CRL Number: 
                1
Revoked Certificates:
    Serial Number: 68
        Revocation Date: Apr 19 14:57:20 2001 GMT
        CRL entry extensions:
            X509v3 CRL Reason Code: 
                Key Compromise
    Signature Algorithm: sha1WithRSAEncryption
        92:12:c4:34:b4:92:ab:ba:71:6b:74:31:16:ce:ed:25:d6:4b:
        1e:fa:f8:20:1e:9d:d7:7f:30:ed:15:f7:8b:5d:64:9b:dd:31:
        40:e4:55:0f:0c:5f:82:69:63:00:76:a5:cf:9e:c4:5f:f2:53:
        9b:9b:7d:f5:69:1d:74:57:38:70:e5:fb:5b:76:58:c9:ec:31:
        dc:94:1b:02:ee:9d:33:9c:38:4b:29:1d:e1:0c:29:8b:6e:c7:
        bf:a0:e8:40:34:83:cf:ff:9f:cd:b5:f7:d9:4d:a7:9f:2e:bf:
        44:98:6b:f2:d3:fe:a8:20:31:c1:33:76:b7:1c:19:65:4d:b9:
        14:39
-----BEGIN X509 CRL-----
MIIBXTCBxwIBATANBgkqhkiG9w0BAQUFADBAMQswCQYDVQQGEwJVUzEaMBgGA1UE
ChMRVGVzdCBDZXJ0aWZpY2F0ZXMxFTATBgNVBAMTDFRydXN0IEFuY2hvchcNMDEw
NDE5MTQ1NzIwWhcNMTEwNDE5MTQ1NzIwWjAiMCACAWgXDTAxMDQxOTE0NTcyMFow
DDAKBgNVHRUEAwoBAaAvMC0wHwYDVR0jBBgwFoAU+2zULYGeyid6ng2wPOqavIf/
SeowCgYDVR0UBAMCAQEwDQYJKoZIhvcNAQEFBQADgYEAkhLENLSSq7pxa3QxFs7t
JdZLHvr4IB6d138w7RX3i11km90xQORVDwxfgmljAHalz57EX/JTm5t99WkddFc4
cOX7W3ZYyewx3JQbAu6dM5w4Sykd4Qwpi27Hv6DoQDSDz/+fzbX32U2nny6/RJhr
8tP+qCAxwTN2txwZZU25FDk=
-----END X509 CRL-----

