subject=/C=US/O=Test Certificates/CN=requireExplicitPolicy0 subCA
issuer=/C=US/O=Test Certificates/CN=requireExplicitPolicy0 CA
-----BEGIN CERTIFICATE-----
MIICjzCCAfigAwIBAgIBATANBgkqhkiG9w0BAQUFADBNMQswCQYDVQQGEwJVUzEa
MBgGA1UEChMRVGVzdCBDZXJ0aWZpY2F0ZXMxIjAgBgNVBAMTGXJlcXVpcmVFeHBs
aWNpdFBvbGljeTAgQ0EwHhcNMDEwNDE5MTQ1NzIwWhcNMTEwNDE5MTQ1NzIwWjBQ
MQswCQYDVQQGEwJVUzEaMBgGA1UEChMRVGVzdCBDZXJ0aWZpY2F0ZXMxJTAjBgNV
BAMTHHJlcXVpcmVFeHBsaWNpdFBvbGljeTAgc3ViQ0EwgZ8wDQYJKoZIhvcNAQEB
BQADgY0AMIGJAoGBALoSt6pV4IRQVJ5TV99GOGi3yhBt0wvylEs6VYZL0D677yoV
AIY3CQWXG27SKUYB8SQ1XC+a1sO4M5Q25mdWLXIN+TUmlNJW4BzLGh6B63bGDSnK
FG+aVvh8ZvHloIu61d5gw3FokPmBeS0NF6XVBsbJMiLn7TdWeSFqYYTw+awhAgMB
AAGjfDB6MB8GA1UdIwQYMBaAFHdqs2T1sexRei1lhv8CGH4LSo4nMB0GA1UdDgQW
BBQHH/BwA0diipbRgYmqAFSJ+JxtKTAOBgNVHQ8BAf8EBAMCAQYwFwYDVR0gBBAw
DjAMBgpghkgBZQMCATABMA8GA1UdEwEB/wQFMAMBAf8wDQYJKoZIhvcNAQEFBQAD
gYEADvf91AyVaeC72JRsi71sKWf3f71NGoRSjxBnKh8VS/G0fIQElDmHHe01TZ3W
t2zRBZROqLoG10YCxSheQdd0gE0yoqTdcc9l3kr0ZMhgfM4mRPYNL6kma3azT78F
OqMJAUrnjjMYruGcLm7MLp3Lq2/7NjAN5q3ffuSrtwUwLHY=
-----END CERTIFICATE-----

subject=/C=US/O=Test Certificates/CN=requireExplicitPolicy0 CA
issuer=/C=US/O=Test Certificates/CN=Trust Anchor
-----BEGIN CERTIFICATE-----
MIICkjCCAfugAwIBAgIBLTANBgkqhkiG9w0BAQUFADBAMQswCQYDVQQGEwJVUzEa
MBgGA1UEChMRVGVzdCBDZXJ0aWZpY2F0ZXMxFTATBgNVBAMTDFRydXN0IEFuY2hv
cjAeFw0wMTA0MTkxNDU3MjBaFw0xMTA0MTkxNDU3MjBaME0xCzAJBgNVBAYTAlVT
MRowGAYDVQQKExFUZXN0IENlcnRpZmljYXRlczEiMCAGA1UEAxMZcmVxdWlyZUV4
cGxpY2l0UG9saWN5MCBDQTCBnzANBgkqhkiG9w0BAQEFAAOBjQAwgYkCgYEAvEVs
LML3To+EEs99KIoLdE98+LzQkf1wQzrLhuqlF6UH8BJvupeClmchb4TFyXh3mkhT
/DsdlWlScKGl1KiqKyXIrb5x0AebEDEHylhNhUgn7O/zU7WyuGDE4SU0QNR2T/C0
mOEbjV9WR06GcmbMCp1GUY7zmfThFrZP2Cfj2PMCAwEAAaOBjjCBizAfBgNVHSME
GDAWgBT7bNQtgZ7KJ3qeDbA86pq8h/9J6jAdBgNVHQ4EFgQUd2qzZPWx7FF6LWWG
/wIYfgtKjicwDgYDVR0PAQH/BAQDAgEGMBcGA1UdIAQQMA4wDAYKYIZIAWUDAgEw
ATAPBgNVHRMBAf8EBTADAQH/MA8GA1UdJAEB/wQFMAOAAQAwDQYJKoZIhvcNAQEF
BQADgYEAWoBbngBiHa90n2Kdb0iXazi7wmnvtPZxJ2xLA/Ubv9qPzFUwoUM/Ikm8
6o8sI8TYNuCwwni3ZrQwCfagtNsOeUXp0O86mLIVH7jr9YS2nBtuZdXAnL3lZW5r
VHXxf0Fnmk+Nx3Frxf7tJfZVGGLCJCabwObF9o6Bgya4GP0FL20=
-----END CERTIFICATE-----

subject=/C=US/O=Test Certificates/CN=requireExplicitPolicy0 subsubCA
issuer=/C=US/O=Test Certificates/CN=requireExplicitPolicy0 subCA
-----BEGIN CERTIFICATE-----
MIIClTCCAf6gAwIBAgIBATANBgkqhkiG9w0BAQUFADBQMQswCQYDVQQGEwJVUzEa
MBgGA1UEChMRVGVzdCBDZXJ0aWZpY2F0ZXMxJTAjBgNVBAMTHHJlcXVpcmVFeHBs
aWNpdFBvbGljeTAgc3ViQ0EwHhcNMDEwNDE5MTQ1NzIwWhcNMTEwNDE5MTQ1NzIw
WjBTMQswCQYDVQQGEwJVUzEaMBgGA1UEChMRVGVzdCBDZXJ0aWZpY2F0ZXMxKDAm
BgNVBAMTH3JlcXVpcmVFeHBsaWNpdFBvbGljeTAgc3Vic3ViQ0EwgZ8wDQYJKoZI
hvcNAQEBBQADgY0AMIGJAoGBAMJOPDBu3Iqmav4DjiTzIKi6FmFd6HGBsW+dDPbs
l6jZbrkDavBUtuqC5RMVJKvOyWY7GYIsUdgoSOJ2YHl38HO6nXhq3OFO8v0r0kU3
SRPPM7vpiPYf3eMZm5Z77GT5XuGNUPSkepAfxaN1IEAqFoePT7wsGa9Zg77WcLUd
nEw3AgMBAAGjfDB6MB8GA1UdIwQYMBaAFAcf8HADR2KKltGBiaoAVIn4nG0pMB0G
A1UdDgQWBBSwQkkzaPMCKs1UIV3mYuFwzqUjQDAOBgNVHQ8BAf8EBAMCAQYwFwYD
VR0gBBAwDjAMBgpghkgBZQMCATABMA8GA1UdEwEB/wQFMAMBAf8wDQYJKoZIhvcN
AQEFBQADgYEADXoLz5MBvHFKs5z47OgavmZKJQp+vIcDSOu4QUlIZgmIWcbcI7g9
GKG0SIg5gXZhwoH3OXx3g5miGPzOi9iFtdkZXAZPX9JHsISpHfB9VcZYTfmW1T49
ZrnCugvmdUnDLBitS9MKHkyU7zL/ACtlXB82SFbiCS1R8bEfU4Oozf4=
-----END CERTIFICATE-----

subject=/C=US/O=Test Certificates/CN=requireExplicitPolicy0 subsubsubCA
issuer=/C=US/O=Test Certificates/CN=requireExplicitPolicy0 subsubCA
-----BEGIN CERTIFICATE-----
MIICmzCCAgSgAwIBAgIBATANBgkqhkiG9w0BAQUFADBTMQswCQYDVQQGEwJVUzEa
MBgGA1UEChMRVGVzdCBDZXJ0aWZpY2F0ZXMxKDAmBgNVBAMTH3JlcXVpcmVFeHBs
aWNpdFBvbGljeTAgc3Vic3ViQ0EwHhcNMDEwNDE5MTQ1NzIwWhcNMTEwNDE5MTQ1
NzIwWjBWMQswCQYDVQQGEwJVUzEaMBgGA1UEChMRVGVzdCBDZXJ0aWZpY2F0ZXMx
KzApBgNVBAMTInJlcXVpcmVFeHBsaWNpdFBvbGljeTAgc3Vic3Vic3ViQ0EwgZ8w
DQYJKoZIhvcNAQEBBQADgY0AMIGJAoGBANk012Iq+sazBXGTgqICIE0GnFvathib
YlOHsK/Iop6+DNGleJoAH6bqvS2ZWtkkIKE7WU3nfDUjMVp3IJyr8WDesDKvSJyg
zy3y0e+XuMv3QtyFXxESXxHmY62UaILPgE9XMgcyAhOnVU4mQe7ScJDAcUeLgjcZ
fQdBnGGCT/LVAgMBAAGjfDB6MB8GA1UdIwQYMBaAFLBCSTNo8wIqzVQhXeZi4XDO
pSNAMB0GA1UdDgQWBBRZ1+jibtd5cIJhiBzPFFLktwdJKjAOBgNVHQ8BAf8EBAMC
AQYwFwYDVR0gBBAwDjAMBgpghkgBZQMCATABMA8GA1UdEwEB/wQFMAMBAf8wDQYJ
KoZIhvcNAQEFBQADgYEArZnuuewqU0IgdJEU6osnzsuX6E6A4igNSK1ZYUKmhRvn
eyfrU5kHavTwnM+h7SkVB73S2w+OqHUGin2xIu92RcWzN7NV+oLWldhnYtalSyh1
KiuKC41mAZweQv1Mrz/+5lIQDOUOtV2JXOjaA+T/JR/qFLo0MoqC+mBxk/w5eDg=
-----END CERTIFICATE-----

subject=/C=US/O=Test Certificates/CN=Valid requireExplicitPolicy EE Certificate Test4
issuer=/C=US/O=Test Certificates/CN=requireExplicitPolicy0 subsubsubCA
-----BEGIN CERTIFICATE-----
MIICmzCCAgSgAwIBAgIBATANBgkqhkiG9w0BAQUFADBWMQswCQYDVQQGEwJVUzEa
MBgGA1UEChMRVGVzdCBDZXJ0aWZpY2F0ZXMxKzApBgNVBAMTInJlcXVpcmVFeHBs
aWNpdFBvbGljeTAgc3Vic3Vic3ViQ0EwHhcNMDEwNDE5MTQ1NzIwWhcNMTEwNDE5
MTQ1NzIwWjBkMQswCQYDVQQGEwJVUzEaMBgGA1UEChMRVGVzdCBDZXJ0aWZpY2F0
ZXMxOTA3BgNVBAMTMFZhbGlkIHJlcXVpcmVFeHBsaWNpdFBvbGljeSBFRSBDZXJ0
aWZpY2F0ZSBUZXN0NDCBnzANBgkqhkiG9w0BAQEFAAOBjQAwgYkCgYEAvs6xd2Lv
4717eCUDGaJKN9HVbjqiBoJd9K18OP5hoJ/iyWNR7u1l+p4xbQNdi8iU8UV1hBrD
RI2jahY2p/rgx+REkxcyhWXFc0qP5hMqbjUD9IuMyhUrwtSut0la+L/lbKuag7Ry
pWlMe0FQUjnGev5zpdXCY4U9y2a+7jYuOOsCAwEAAaNrMGkwHwYDVR0jBBgwFoAU
Wdfo4m7XeXCCYYgczxRS5LcHSSowHQYDVR0OBBYEFEEjHrhpuHHNWtHozi2HzhxK
KgmLMA4GA1UdDwEB/wQEAwIE8DAXBgNVHSAEEDAOMAwGCmCGSAFlAwIBMAEwDQYJ
KoZIhvcNAQEFBQADgYEAVpfKjsWKyLdcOfar1+Ejc9eyGUzMXt7F1xXSqdnls/Z7
RuG7jkY1lvUm1vHhVb2yP/OdC+rwwmx4cjxUAm0dNrE82qZNiRqgaaVO3llJD9zt
AD5gAi0nJqUdJ7H1b3X6Jt9VGTNlc+0ZAEHnaSID1Ym2pa1433XgPPi1/YflkwE=
-----END CERTIFICATE-----

Certificate Revocation List (CRL):
        Version 2 (0x1)
        Signature Algorithm: sha1WithRSAEncryption
        Issuer: /C=US/O=Test Certificates/CN=requireExplicitPolicy0 CA
        Last Update: Apr 19 14:57:20 2001 GMT
        Next Update: Apr 19 14:57:20 2011 GMT
        CRL extensions:
            X509v3 Authority Key Identifier: 
                keyid:77:6A:B3:64:F5:B1:EC:51:7A:2D:65:86:FF:02:18:7E:0B:4A:8E:27

            X509v3 CRL Number: 
                1
No Revoked Certificates.
    Signature Algorithm: sha1WithRSAEncryption
        9d:78:0f:04:94:97:f9:ad:b6:17:8e:65:dd:6d:ec:65:bb:73:
        37:9a:1d:66:51:d7:97:b6:31:fb:62:a4:4a:21:3b:20:97:7a:
        4d:aa:ce:d2:95:f7:36:65:77:51:e8:d5:81:0a:b7:62:af:76:
        38:b7:77:72:2c:90:0b:8a:7c:31:58:cf:c6:1d:da:24:65:ef:
        06:7e:d7:21:96:a1:f2:62:dc:5d:fa:10:37:01:99:7b:14:34:
        a8:cd:47:a4:cb:5e:ff:0e:b4:58:69:1f:70:f7:3b:2e:7c:77:
        b4:33:82:7d:18:54:da:f3:5d:dc:5f:a1:1a:96:f6:d9:0b:ca:
        9b:a0
-----BEGIN X509 CRL-----
MIIBRjCBsAIBATANBgkqhkiG9w0BAQUFADBNMQswCQYDVQQGEwJVUzEaMBgGA1UE
ChMRVGVzdCBDZXJ0aWZpY2F0ZXMxIjAgBgNVBAMTGXJlcXVpcmVFeHBsaWNpdFBv
bGljeTAgQ0EXDTAxMDQxOTE0NTcyMFoXDTExMDQxOTE0NTcyMFqgLzAtMB8GA1Ud
IwQYMBaAFHdqs2T1sexRei1lhv8CGH4LSo4nMAoGA1UdFAQDAgEBMA0GCSqGSIb3
DQEBBQUAA4GBAJ14DwSUl/mttheOZd1t7GW7czeaHWZR15e2MftipEohOyCXek2q
ztKV9zZld1Ho1YEKt2Kvdji3d3IskAuKfDFYz8Yd2iRl7wZ+1yGWofJi3F36EDcB
mXsUNKjNR6TLXv8OtFhpH3D3Oy58d7Qzgn0YVNrzXdxfoRqW9tkLypug
-----END X509 CRL-----

Certificate Revocation List (CRL):
        Version 2 (0x1)
        Signature Algorithm: sha1WithRSAEncryption
        Issuer: /C=US/O=Test Certificates/CN=requireExplicitPolicy0 subCA
        Last Update: Apr 19 14:57:20 2001 GMT
        Next Update: Apr 19 14:57:20 2011 GMT
        CRL extensions:
            X509v3 Authority Key Identifier: 
                keyid:07:1F:F0:70:03:47:62:8A:96:D1:81:89:AA:00:54:89:F8:9C:6D:29

            X509v3 CRL Number: 
                1
No Revoked Certificates.
    Signature Algorithm: sha1WithRSAEncryption
        7d:a5:df:f8:70:c7:9c:d9:f2:4e:c9:42:63:48:cc:17:87:29:
        fb:99:c0:2a:11:8b:ce:ce:45:31:58:41:32:1c:39:ff:53:bc:
        dc:24:df:9a:b5:10:83:8b:a3:aa:cd:3a:23:92:a7:8d:c3:56:
        83:19:c1:ed:d8:ad:c0:56:79:fd:c0:6b:bd:e9:bb:56:e6:18:
        1d:02:28:91:77:90:15:f2:44:51:61:81:ea:1f:92:a6:89:84:
        cf:36:c9:e4:f2:6e:a8:01:11:82:96:fa:94:1b:fc:d7:e6:8b:
        c0:8f:bd:87:30:8c:84:eb:84:3a:e5:21:42:d1:60:82:08:82:
        45:2b
-----BEGIN X509 CRL-----
MIIBSTCBswIBATANBgkqhkiG9w0BAQUFADBQMQswCQYDVQQGEwJVUzEaMBgGA1UE
ChMRVGVzdCBDZXJ0aWZpY2F0ZXMxJTAjBgNVBAMTHHJlcXVpcmVFeHBsaWNpdFBv
bGljeTAgc3ViQ0EXDTAxMDQxOTE0NTcyMFoXDTExMDQxOTE0NTcyMFqgLzAtMB8G
A1UdIwQYMBaAFAcf8HADR2KKltGBiaoAVIn4nG0pMAoGA1UdFAQDAgEBMA0GCSqG
SIb3DQEBBQUAA4GBAH2l3/hwx5zZ8k7JQmNIzBeHKfuZwCoRi87ORTFYQTIcOf9T
vNwk35q1EIOLo6rNOiOSp43DVoMZwe3YrcBWef3Aa73pu1bmGB0CKJF3kBXyRFFh
geofkqaJhM82yeTybqgBEYKW+pQb/Nfmi8CPvYcwjITrhDrlIULRYIIIgkUr
-----END X509 CRL-----

Certificate Revocation List (CRL):
        Version 2 (0x1)
        Signature Algorithm: sha1WithRSAEncryption
        Issuer: /C=US/O=Test Certificates/CN=requireExplicitPolicy0 subsubCA
        Last Update: Apr 19 14:57:20 2001 GMT
        Next Update: Apr 19 14:57:20 2011 GMT
        CRL extensions:
            X509v3 Authority Key Identifier: 
                keyid:B0:42:49:33:68:F3:02:2A:CD:54:21:5D:E6:62:E1:70:CE:A5:23:40

            X509v3 CRL Number: 
                1
No Revoked Certificates.
    Signature Algorithm: sha1WithRSAEncryption
        95:8d:6b:ad:bc:a7:38:7a:12:70:e4:e6:bf:06:91:0f:ac:72:
        f0:da:aa:50:e1:51:a1:8c:d2:d2:00:73:2a:6f:54:04:77:ee:
        83:aa:c1:d4:32:cd:70:ca:5c:98:62:3f:a1:6c:4a:af:53:8b:
        f9:0d:7c:50:17:90:f3:e3:93:4d:c1:3f:2b:59:f0:12:3a:d9:
        25:5b:15:3b:71:14:bc:29:b0:2f:b7:93:c6:93:b0:c1:fa:88:
        c8:2d:ca:fd:03:c1:ec:dd:0b:95:af:8c:d5:7a:0f:41:48:ea:
        03:07:6f:57:2e:b3:b8:c6:3e:54:a7:9c:57:4f:27:f4:c3:9c:
        25:5d
-----BEGIN X509 CRL-----
MIIBTDCBtgIBATANBgkqhkiG9w0BAQUFADBTMQswCQYDVQQGEwJVUzEaMBgGA1UE
ChMRVGVzdCBDZXJ0aWZpY2F0ZXMxKDAmBgNVBAMTH3JlcXVpcmVFeHBsaWNpdFBv
bGljeTAgc3Vic3ViQ0EXDTAxMDQxOTE0NTcyMFoXDTExMDQxOTE0NTcyMFqgLzAt
MB8GA1UdIwQYMBaAFLBCSTNo8wIqzVQhXeZi4XDOpSNAMAoGA1UdFAQDAgEBMA0G
CSqGSIb3DQEBBQUAA4GBAJWNa628pzh6EnDk5r8GkQ+scvDaqlDhUaGM0tIAcypv
VAR37oOqwdQyzXDKXJhiP6FsSq9Ti/kNfFAXkPPjk03BPytZ8BI62SVbFTtxFLwp
sC+3k8aTsMH6iMgtyv0DwezdC5WvjNV6D0FI6gMHb1cus7jGPlSnnFdPJ/TDnCVd
-----END X509 CRL-----

Certificate Revocation List (CRL):
        Version 2 (0x1)
        Signature Algorithm: sha1WithRSAEncryption
        Issuer: /C=US/O=Test Certificates/CN=requireExplicitPolicy0 subsubsubCA
        Last Update: Apr 19 14:57:20 2001 GMT
        Next Update: Apr 19 14:57:20 2011 GMT
        CRL extensions:
            X509v3 Authority Key Identifier: 
                keyid:59:D7:E8:E2:6E:D7:79:70:82:61:88:1C:CF:14:52:E4:B7:07:49:2A

            X509v3 CRL Number: 
                1
No Revoked Certificates.
    Signature Algorithm: sha1WithRSAEncryption
        b0:23:c2:ec:e2:e9:c0:87:e9:75:d3:ee:a4:c5:3b:9c:27:c4:
        ab:b2:67:74:79:f8:5b:cd:4b:20:0b:ee:19:32:8e:8b:d2:e7:
        67:5f:da:83:a7:31:09:08:0f:b8:64:2a:08:96:1c:78:db:13:
        af:77:26:0f:01:3a:e1:98:d7:41:b9:e5:86:9c:b1:36:a8:92:
        bf:6f:cf:62:13:33:3e:1e:79:02:e5:a6:8f:11:69:fb:1e:86:
        b9:12:18:67:cf:6e:c6:1e:d8:bb:2f:a0:86:dd:66:c8:0b:71:
        a5:68:fb:91:9e:f5:ca:58:80:7e:27:18:e0:4e:3a:34:45:23:
        cc:c1
-----BEGIN X509 CRL-----
MIIBTzCBuQIBATANBgkqhkiG9w0BAQUFADBWMQswCQYDVQQGEwJVUzEaMBgGA1UE
ChMRVGVzdCBDZXJ0aWZpY2F0ZXMxKzApBgNVBAMTInJlcXVpcmVFeHBsaWNpdFBv
bGljeTAgc3Vic3Vic3ViQ0EXDTAxMDQxOTE0NTcyMFoXDTExMDQxOTE0NTcyMFqg
LzAtMB8GA1UdIwQYMBaAFFnX6OJu13lwgmGIHM8UUuS3B0kqMAoGA1UdFAQDAgEB
MA0GCSqGSIb3DQEBBQUAA4GBALAjwuzi6cCH6XXT7qTFO5wnxKuyZ3R5+FvNSyAL
7hkyjovS52df2oOnMQkID7hkKgiWHHjbE693Jg8BOuGY10G55YacsTaokr9vz2IT
Mz4eeQLlpo8RafsehrkSGGfPbsYe2LsvoIbdZsgLcaVo+5Ge9cpYgH4nGOBOOjRF
I8zB
-----END X509 CRL-----

Certificate Revocation List (CRL):
        Version 2 (0x1)
        Signature Algorithm: sha1WithRSAEncryption
        Issuer: /C=US/O=Test Certificates/CN=Trust Anchor
        Last Update: Apr 19 14:57:20 2001 GMT
        Next Update: Apr 19 14:57:20 2011 GMT
        CRL extensions:
            X509v3 Authority Key Identifier: 
                keyid:FB:6C:D4:2D:81:9E:CA:27:7A:9E:0D:B0:3C:EA:9A:BC:87:FF:49:EA

            X509v3 CRL Number: 
                1
Revoked Certificates:
    Serial Number: 68
        Revocation Date: Apr 19 14:57:20 2001 GMT
        CRL entry extensions:
            X509v3 CRL Reason Code: 
                Key Compromise
    Signature Algorithm: sha1WithRSAEncryption
        92:12:c4:34:b4:92:ab:ba:71:6b:74:31:16:ce:ed:25:d6:4b:
        1e:fa:f8:20:1e:9d:d7:7f:30:ed:15:f7:8b:5d:64:9b:dd:31:
        40:e4:55:0f:0c:5f:82:69:63:00:76:a5:cf:9e:c4:5f:f2:53:
        9b:9b:7d:f5:69:1d:74:57:38:70:e5:fb:5b:76:58:c9:ec:31:
        dc:94:1b:02:ee:9d:33:9c:38:4b:29:1d:e1:0c:29:8b:6e:c7:
        bf:a0:e8:40:34:83:cf:ff:9f:cd:b5:f7:d9:4d:a7:9f:2e:bf:
        44:98:6b:f2:d3:fe:a8:20:31:c1:33:76:b7:1c:19:65:4d:b9:
        14:39
-----BEGIN X509 CRL-----
MIIBXTCBxwIBATANBgkqhkiG9w0BAQUFADBAMQswCQYDVQQGEwJVUzEaMBgGA1UE
ChMRVGVzdCBDZXJ0aWZpY2F0ZXMxFTATBgNVBAMTDFRydXN0IEFuY2hvchcNMDEw
NDE5MTQ1NzIwWhcNMTEwNDE5MTQ1NzIwWjAiMCACAWgXDTAxMDQxOTE0NTcyMFow
DDAKBgNVHRUEAwoBAaAvMC0wHwYDVR0jBBgwFoAU+2zULYGeyid6ng2wPOqavIf/
SeowCgYDVR0UBAMCAQEwDQYJKoZIhvcNAQEFBQADgYEAkhLENLSSq7pxa3QxFs7t
JdZLHvr4IB6d138w7RX3i11km90xQORVDwxfgmljAHalz57EX/JTm5t99WkddFc4
cOX7W3ZYyewx3JQbAu6dM5w4Sykd4Qwpi27Hv6DoQDSDz/+fzbX32U2nny6/RJhr
8tP+qCAxwTN2txwZZU25FDk=
-----END X509 CRL-----

