subject=/C=US/O=Test Certificates/CN=GenerizedTime CRL nextUpdate CA
issuer=/C=US/O=Test Certificates/CN=Trust Anchor
-----BEGIN CERTIFICATE-----
MIIChTCCAe6gAwIBAgIBEDANBgkqhkiG9w0BAQUFADBAMQswCQYDVQQGEwJVUzEa
MBgGA1UEChMRVGVzdCBDZXJ0aWZpY2F0ZXMxFTATBgNVBAMTDFRydXN0IEFuY2hv
cjAeFw0wMTA0MTkxNDU3MjBaFw0xMTA0MTkxNDU3MjBaMFMxCzAJBgNVBAYTAlVT
MRowGAYDVQQKExFUZXN0IENlcnRpZmljYXRlczEoMCYGA1UEAxMfR2VuZXJpemVk
VGltZSBDUkwgbmV4dFVwZGF0ZSBDQTCBnzANBgkqhkiG9w0BAQEFAAOBjQAwgYkC
gYEA0XVL58x4St3rim3S8J3rxCFsMxohlbSezZsM8cVML4M8JqBA2RCpciqMXQ39
ySW9Va2Mca/dkW/VCXATp9lG6hGPI9uvz5t42IPrYc/CdCMWnMZYPxolMOUJd8rD
fRjX+PnPtbMonefHo0LclKZkSs5hLEty2zpam33MNLS4L+0CAwEAAaN8MHowHwYD
VR0jBBgwFoAU+2zULYGeyid6ng2wPOqavIf/SeowHQYDVR0OBBYEFBSGFC5gYrSk
iBLjiqt4F6Lu0TAaMA4GA1UdDwEB/wQEAwIBBjAXBgNVHSAEEDAOMAwGCmCGSAFl
AwIBMAEwDwYDVR0TAQH/BAUwAwEB/zANBgkqhkiG9w0BAQUFAAOBgQAPS84jJFDI
dH5hR/XPr96LgBMhK72+PiP/6pgrKYilpao6qSJAf9vIsaWuebDcHUWFO3HcaIwl
Ku+ejli9fwEZmMcK1l4pj5vf5y4/wYBkWTvnpT65JUGdmuFic0n4c1jEPTkRZPl0
FVsLl9iYRwWLJH9pq9gaOLZboV3w/HplDg==
-----END CERTIFICATE-----

subject=/C=US/O=Test Certificates/CN=Valid GeneralizedTime CRL nextUpdate EE Certificate Test13
issuer=/C=US/O=Test Certificates/CN=GenerizedTime CRL nextUpdate CA
-----BEGIN CERTIFICATE-----
MIICojCCAgugAwIBAgIBATANBgkqhkiG9w0BAQUFADBTMQswCQYDVQQGEwJVUzEa
MBgGA1UEChMRVGVzdCBDZXJ0aWZpY2F0ZXMxKDAmBgNVBAMTH0dlbmVyaXplZFRp
bWUgQ1JMIG5leHRVcGRhdGUgQ0EwHhcNMDEwNDE5MTQ1NzIwWhcNMTEwNDE5MTQ1
NzIwWjBuMQswCQYDVQQGEwJVUzEaMBgGA1UEChMRVGVzdCBDZXJ0aWZpY2F0ZXMx
QzBBBgNVBAMTOlZhbGlkIEdlbmVyYWxpemVkVGltZSBDUkwgbmV4dFVwZGF0ZSBF
RSBDZXJ0aWZpY2F0ZSBUZXN0MTMwgZ8wDQYJKoZIhvcNAQEBBQADgY0AMIGJAoGB
AJ/BW+Rh38aEJHLhyF2rFsHXLa//8UzBuAOpoiJSzFc4gk4FZMbUeMNc7JEG8d3C
1iCI6ksf+VPWuZsGVLU8GB1Y01lFSaXPp5jmmDeILhOIhmh7/xGJOC0bftMHU2Ub
STCDgX+yxmVEzoPNpyWc+NIOUxF4dGZcIVeFKPB6cYQlAgMBAAGjazBpMB8GA1Ud
IwQYMBaAFBSGFC5gYrSkiBLjiqt4F6Lu0TAaMB0GA1UdDgQWBBRAXKg9gLMI1s2l
71T3v0X4NAK8LzAOBgNVHQ8BAf8EBAMCBPAwFwYDVR0gBBAwDjAMBgpghkgBZQMC
ATABMA0GCSqGSIb3DQEBBQUAA4GBAJODcolMrKSSYYUM8i0NqwfexPIPQ6X+U/WU
fh7Q4VMoPii7s2hU2MHjdWM/80GnDbNLmNqWBWqymgR+lkYvyvcMSsXr7SC7ZN7T
PKpw3Hi2bnOFDJDKA/MGWsX+cehwuRKlxmwep3r23H0ctmF6bYpcVusN6NYXVHzt
jU0bM66N
-----END CERTIFICATE-----

Certificate Revocation List (CRL):
        Version 2 (0x1)
        Signature Algorithm: sha1WithRSAEncryption
        Issuer: /C=US/O=Test Certificates/CN=GenerizedTime CRL nextUpdate CA
        Last Update: Apr 19 14:57:20 2001 GMT
        Next Update: Jan  1 12:01:00 2050 GMT
        CRL extensions:
            X509v3 Authority Key Identifier: 
                keyid:14:86:14:2E:60:62:B4:A4:88:12:E3:8A:AB:78:17:A2:EE:D1:30:1A

            X509v3 CRL Number: 
                1
No Revoked Certificates.
    Signature Algorithm: sha1WithRSAEncryption
        ca:4b:74:4e:30:1a:c3:6c:07:22:c9:4e:5b:2a:a1:2b:9c:7a:
        82:20:53:df:a4:45:75:15:ab:eb:5a:c2:e8:f2:bf:57:f7:d0:
        2e:b1:cc:10:56:0c:be:b2:15:72:e3:b4:c8:0f:90:fd:ce:57:
        9c:1d:b6:cb:dc:4d:80:64:ae:49:4f:05:d8:96:1b:a7:ab:aa:
        22:61:65:57:63:1b:7f:9c:81:f1:e5:cf:06:b1:6c:00:a1:36:
        28:26:97:2f:ef:74:37:e1:89:7e:0f:c8:ec:df:ac:91:f2:e3:
        f5:01:a5:27:87:dd:29:b9:35:d5:e1:99:91:a5:07:31:24:80:
        0c:7d
-----BEGIN X509 CRL-----
MIIBTjCBuAIBATANBgkqhkiG9w0BAQUFADBTMQswCQYDVQQGEwJVUzEaMBgGA1UE
ChMRVGVzdCBDZXJ0aWZpY2F0ZXMxKDAmBgNVBAMTH0dlbmVyaXplZFRpbWUgQ1JM
IG5leHRVcGRhdGUgQ0EXDTAxMDQxOTE0NTcyMFoYDzIwNTAwMTAxMTIwMTAwWqAv
MC0wHwYDVR0jBBgwFoAUFIYULmBitKSIEuOKq3gXou7RMBowCgYDVR0UBAMCAQEw
DQYJKoZIhvcNAQEFBQADgYEAykt0TjAaw2wHIslOWyqhK5x6giBT36RFdRWr61rC
6PK/V/fQLrHMEFYMvrIVcuO0yA+Q/c5XnB22y9xNgGSuSU8F2JYbp6uqImFlV2Mb
f5yB8eXPBrFsAKE2KCaXL+90N+GJfg/I7N+skfLj9QGlJ4fdKbk11eGZkaUHMSSA
DH0=
-----END X509 CRL-----

Certificate Revocation List (CRL):
        Version 2 (0x1)
        Signature Algorithm: sha1WithRSAEncryption
        Issuer: /C=US/O=Test Certificates/CN=Trust Anchor
        Last Update: Apr 19 14:57:20 2001 GMT
        Next Update: Apr 19 14:57:20 2011 GMT
        CRL extensions:
            X509v3 Authority Key Identifier: 
                keyid:FB:6C:D4:2D:81:9E:CA:27:7A:9E:0D:B0:3C:EA:9A:BC:87:FF:49:EA

            X509v3 CRL Number: 
                1
Revoked Certificates:
    Serial Number: 68
        Revocation Date: Apr 19 14:57:20 2001 GMT
        CRL entry extensions:
            X509v3 CRL Reason Code: 
                Key Compromise
    Signature Algorithm: sha1WithRSAEncryption
        92:12:c4:34:b4:92:ab:ba:71:6b:74:31:16:ce:ed:25:d6:4b:
        1e:fa:f8:20:1e:9d:d7:7f:30:ed:15:f7:8b:5d:64:9b:dd:31:
        40:e4:55:0f:0c:5f:82:69:63:00:76:a5:cf:9e:c4:5f:f2:53:
        9b:9b:7d:f5:69:1d:74:57:38:70:e5:fb:5b:76:58:c9:ec:31:
        dc:94:1b:02:ee:9d:33:9c:38:4b:29:1d:e1:0c:29:8b:6e:c7:
        bf:a0:e8:40:34:83:cf:ff:9f:cd:b5:f7:d9:4d:a7:9f:2e:bf:
        44:98:6b:f2:d3:fe:a8:20:31:c1:33:76:b7:1c:19:65:4d:b9:
        14:39
-----BEGIN X509 CRL-----
MIIBXTCBxwIBATANBgkqhkiG9w0BAQUFADBAMQswCQYDVQQGEwJVUzEaMBgGA1UE
ChMRVGVzdCBDZXJ0aWZpY2F0ZXMxFTATBgNVBAMTDFRydXN0IEFuY2hvchcNMDEw
NDE5MTQ1NzIwWhcNMTEwNDE5MTQ1NzIwWjAiMCACAWgXDTAxMDQxOTE0NTcyMFow
DDAKBgNVHRUEAwoBAaAvMC0wHwYDVR0jBBgwFoAU+2zULYGeyid6ng2wPOqavIf/
SeowCgYDVR0UBAMCAQEwDQYJKoZIhvcNAQEFBQADgYEAkhLENLSSq7pxa3QxFs7t
JdZLHvr4IB6d138w7RX3i11km90xQORVDwxfgmljAHalz57EX/JTm5t99WkddFc4
cOX7W3ZYyewx3JQbAu6dM5w4Sykd4Qwpi27Hv6DoQDSDz/+fzbX32U2nny6/RJhr
8tP+qCAxwTN2txwZZU25FDk=
-----END X509 CRL-----

