subject=/C=US/O=Test Certificates/CN=inhibitPolicyMapping1 P1 CA
issuer=/C=US/O=Test Certificates/CN=inhibitPolicyMapping1 P1 CA
-----BEGIN CERTIFICATE-----
MIICkDCCAfmgAwIBAgIBATANBgkqhkiG9w0BAQUFADBPMQswCQYDVQQGEwJVUzEa
MBgGA1UEChMRVGVzdCBDZXJ0aWZpY2F0ZXMxJDAiBgNVBAMTG2luaGliaXRQb2xp
Y3lNYXBwaW5nMSBQMSBDQTAeFw0wMTA0MTkxNDU3MjBaFw0xMTA0MTkxNDU3MjBa
ME8xCzAJBgNVBAYTAlVTMRowGAYDVQQKExFUZXN0IENlcnRpZmljYXRlczEkMCIG
A1UEAxMbaW5oaWJpdFBvbGljeU1hcHBpbmcxIFAxIENBMIGfMA0GCSqGSIb3DQEB
AQUAA4GNADCBiQKBgQCX3X8GrbxUXCENLok/vrVUA4snN0DJ+ja+Vct+doODtUFE
99ZdYrT+qEPGAkioxAKElsWQDHoAjlv/TjoSxbV6BURJiMk+pIdN/N3oOtLz9N5y
emO4Nq8Wv3A6dmTeqV/BvhEmKyKd9h/0Vy3gTP/eIqA8vhyxOpPLAB/gKIIWUwID
AQABo3wwejAfBgNVHSMEGDAWgBSqaWS1UuWiYwoKoPNqFz8gsgPUtDAdBgNVHQ4E
FgQUbFzipWxbYKUZ3ncFU1rjNTWvrRswDgYDVR0PAQH/BAQDAgEGMBcGA1UdIAQQ
MA4wDAYKYIZIAWUDAgEwATAPBgNVHRMBAf8EBTADAQH/MA0GCSqGSIb3DQEBBQUA
A4GBAImoE0/jphqmO48yRD2BCE5RlbnLVfXqKMbZ61lxs7X2Z2oC7QmmXJ8xH0vu
YmnqpQTJjLwJc6janX9zk3DIdokB0PPu6HAtSb3GeETMG2tQFA3aeDyg8xjqGNBD
OHfNDd64bvLnKZWb3bLEPfnZf6WTaRV/x56wf+7+NPg+zJop
-----END CERTIFICATE-----

subject=/C=US/O=Test Certificates/CN=inhibitPolicyMapping1 P1 CA
issuer=/C=US/O=Test Certificates/CN=Trust Anchor
-----BEGIN CERTIFICATE-----
MIIClzCCAgCgAwIBAgIBOjANBgkqhkiG9w0BAQUFADBAMQswCQYDVQQGEwJVUzEa
MBgGA1UEChMRVGVzdCBDZXJ0aWZpY2F0ZXMxFTATBgNVBAMTDFRydXN0IEFuY2hv
cjAeFw0wMTA0MTkxNDU3MjBaFw0xMTA0MTkxNDU3MjBaME8xCzAJBgNVBAYTAlVT
MRowGAYDVQQKExFUZXN0IENlcnRpZmljYXRlczEkMCIGA1UEAxMbaW5oaWJpdFBv
bGljeU1hcHBpbmcxIFAxIENBMIGfMA0GCSqGSIb3DQEBAQUAA4GNADCBiQKBgQDA
643DGHdT8CXwVc2GtZQbRQTdptkiSzy79NPJD2XLU9LpWnrgyGzl4j7xUeYVspxY
Ws/mpZCQOb2hs8eDfHKisjtcKj8Y8r0S8Csb3dsG19Rmjbg/2SiF5ZMaHzPi0QAk
m008o0bwHaSBlFHigtvqu563VpgMs52ksx3BV1BKZQIDAQABo4GRMIGOMB8GA1Ud
IwQYMBaAFPts1C2Bnsonep4NsDzqmryH/0nqMB0GA1UdDgQWBBSqaWS1UuWiYwoK
oPNqFz8gsgPUtDAOBgNVHQ8BAf8EBAMCAQYwFwYDVR0gBBAwDjAMBgpghkgBZQMC
ATABMA8GA1UdEwEB/wQFMAMBAf8wEgYDVR0kAQH/BAgwBoABAIEBATANBgkqhkiG
9w0BAQUFAAOBgQA3+2MqCUqi2aRGC2CQMzptfla5lfBz0GLy7p1VBIoKLOe6/rAb
IhVjO2X7pWEJosnjfmKUOggaCctxUuGgA/okQKTXTXQwXJwJNv2qS5lf1AHD4B99
pZ5ebQ5FJ+RZBB6HiUWabWVfJ41WPI7ceJ8fh/Riau+XJg2KLE8myngRMA==
-----END CERTIFICATE-----

subject=/C=US/O=Test Certificates/CN=Valid Self-Issued inhibitPolicyMapping EE Certificate Test7
issuer=/C=US/O=Test Certificates/CN=inhibitPolicyMapping1 P1 subCA
-----BEGIN CERTIFICATE-----
MIICojCCAgugAwIBAgIBATANBgkqhkiG9w0BAQUFADBSMQswCQYDVQQGEwJVUzEa
MBgGA1UEChMRVGVzdCBDZXJ0aWZpY2F0ZXMxJzAlBgNVBAMTHmluaGliaXRQb2xp
Y3lNYXBwaW5nMSBQMSBzdWJDQTAeFw0wMTA0MTkxNDU3MjBaFw0xMTA0MTkxNDU3
MjBaMG8xCzAJBgNVBAYTAlVTMRowGAYDVQQKExFUZXN0IENlcnRpZmljYXRlczFE
MEIGA1UEAxM7VmFsaWQgU2VsZi1Jc3N1ZWQgaW5oaWJpdFBvbGljeU1hcHBpbmcg
RUUgQ2VydGlmaWNhdGUgVGVzdDcwgZ8wDQYJKoZIhvcNAQEBBQADgY0AMIGJAoGB
ALAZ39MGl31J7AeGVi+NMkr2Za9Sm9LwaUKnv+U+4kjo1pvbj8KegARFAYToj7LF
KujtuYlkH9HC9PW9p0X0zlfGyLo+jYBaT28HaJodaa2AmpEz0ZxmLsEBnjVNlC/R
+vUNa51CNV85Wv2V/FVkznQSlqdRP/89SCfIL/Rd/rLRAgMBAAGjazBpMB8GA1Ud
IwQYMBaAFLamwerAUlPfhv1mSeS0Rr5jMwwVMB0GA1UdDgQWBBRFegfFmXt1cyLu
vHj7WA8p2BokYTAOBgNVHQ8BAf8EBAMCBPAwFwYDVR0gBBAwDjAMBgpghkgBZQMC
ATACMA0GCSqGSIb3DQEBBQUAA4GBAE1aoLRAB7FVyZHDy+jfyHRnvk2c/hNkhsYQ
VuxpPqQnt8pCBUl9lUAwlb9W1JoR274/B4pIYmqM869ptHJJjbbNkOBdudX6462F
v4rtoK+1egfyqLiEcmQNcGSqq7w6tBw1k9DV6t8D1BYvzh6JfN7z+BY4b8dOq5O4
2eSGt5qS
-----END CERTIFICATE-----

subject=/C=US/O=Test Certificates/CN=inhibitPolicyMapping1 P1 subCA
issuer=/C=US/O=Test Certificates/CN=inhibitPolicyMapping1 P1 CA
-----BEGIN CERTIFICATE-----
MIICvTCCAiagAwIBAgIBAjANBgkqhkiG9w0BAQUFADBPMQswCQYDVQQGEwJVUzEa
MBgGA1UEChMRVGVzdCBDZXJ0aWZpY2F0ZXMxJDAiBgNVBAMTG2luaGliaXRQb2xp
Y3lNYXBwaW5nMSBQMSBDQTAeFw0wMTA0MTkxNDU3MjBaFw0xMTA0MTkxNDU3MjBa
MFIxCzAJBgNVBAYTAlVTMRowGAYDVQQKExFUZXN0IENlcnRpZmljYXRlczEnMCUG
A1UEAxMeaW5oaWJpdFBvbGljeU1hcHBpbmcxIFAxIHN1YkNBMIGfMA0GCSqGSIb3
DQEBAQUAA4GNADCBiQKBgQDlD9RQqLmz1R8mmDv95sxGdTT50F3U2U2PHAx0M0R/
EmmreJx8mubNNUzKpH+jIQCsgKqAH+CJH/LDeCzow3F/cS0bcKYF/x1hJhJHO+pP
uBgIa0yNq+hkNY9F+V/b+auEovg9yqIThiE9atAWfL1IRnRW5qpSi7si8qQdGWGt
iQIDAQABo4GlMIGiMB8GA1UdIwQYMBaAFGxc4qVsW2ClGd53BVNa4zU1r60bMB0G
A1UdDgQWBBS2psHqwFJT34b9ZknktEa+YzMMFTAOBgNVHQ8BAf8EBAMCAQYwFwYD
VR0gBBAwDjAMBgpghkgBZQMCATABMCYGA1UdIQEB/wQcMBowGAYKYIZIAWUDAgEw
AQYKYIZIAWUDAgEwAjAPBgNVHRMBAf8EBTADAQH/MA0GCSqGSIb3DQEBBQUAA4GB
AAjqz5quHRrfjyt+VRbtAM5KfKQS9G5SMsxGGdD/A8Nu5JYAN5FGi9X+RjLqeBzD
6hmnFNNPFZx9LtO1s4wBoM06zoAddrIISUWehidWkxh7YEJSt4OSQ3fHNO0lgHaC
WnvV8cZ3JLFezL+4ZDzXUJYoxmGCjerFTfIszoyvBuu6
-----END CERTIFICATE-----

Certificate Revocation List (CRL):
        Version 2 (0x1)
        Signature Algorithm: sha1WithRSAEncryption
        Issuer: /C=US/O=Test Certificates/CN=inhibitPolicyMapping1 P1 CA
        Last Update: Apr 19 14:57:20 2001 GMT
        Next Update: Apr 19 14:57:20 2011 GMT
        CRL extensions:
            X509v3 Authority Key Identifier: 
                keyid:AA:69:64:B5:52:E5:A2:63:0A:0A:A0:F3:6A:17:3F:20:B2:03:D4:B4

            X509v3 CRL Number: 
                1
No Revoked Certificates.
    Signature Algorithm: sha1WithRSAEncryption
        8d:01:00:85:8d:99:b7:5b:7f:63:14:5b:20:de:25:35:78:25:
        50:56:9d:78:eb:ac:15:34:90:c7:18:cd:03:ad:4b:80:9f:b2:
        09:73:d0:8d:c9:dd:a2:5b:e5:c2:9e:30:ad:09:06:ad:8c:56:
        7b:39:76:aa:1e:13:a6:21:2b:68:c4:93:f3:39:fb:7c:7a:f7:
        2d:e4:d3:ac:5c:a6:38:07:9e:f5:b7:c2:54:6c:e7:76:9b:2e:
        74:5e:cd:83:1f:25:c0:d6:4d:af:ab:29:47:dd:b0:87:79:86:
        f3:4d:89:80:2c:21:14:68:ec:4d:cd:67:d0:88:94:63:d1:db:
        f7:a4
-----BEGIN X509 CRL-----
MIIBSDCBsgIBATANBgkqhkiG9w0BAQUFADBPMQswCQYDVQQGEwJVUzEaMBgGA1UE
ChMRVGVzdCBDZXJ0aWZpY2F0ZXMxJDAiBgNVBAMTG2luaGliaXRQb2xpY3lNYXBw
aW5nMSBQMSBDQRcNMDEwNDE5MTQ1NzIwWhcNMTEwNDE5MTQ1NzIwWqAvMC0wHwYD
VR0jBBgwFoAUqmlktVLlomMKCqDzahc/ILID1LQwCgYDVR0UBAMCAQEwDQYJKoZI
hvcNAQEFBQADgYEAjQEAhY2Zt1t/YxRbIN4lNXglUFadeOusFTSQxxjNA61LgJ+y
CXPQjcndolvlwp4wrQkGrYxWezl2qh4TpiEraMST8zn7fHr3LeTTrFymOAee9bfC
VGzndpsudF7Ngx8lwNZNr6spR92wh3mG802JgCwhFGjsTc1n0IiUY9Hb96Q=
-----END X509 CRL-----

Certificate Revocation List (CRL):
        Version 2 (0x1)
        Signature Algorithm: sha1WithRSAEncryption
        Issuer: /C=US/O=Test Certificates/CN=inhibitPolicyMapping1 P1 subCA
        Last Update: Apr 19 14:57:20 2001 GMT
        Next Update: Apr 19 14:57:20 2011 GMT
        CRL extensions:
            X509v3 Authority Key Identifier: 
                keyid:B6:A6:C1:EA:C0:52:53:DF:86:FD:66:49:E4:B4:46:BE:63:33:0C:15

            X509v3 CRL Number: 
                1
No Revoked Certificates.
    Signature Algorithm: sha1WithRSAEncryption
        aa:fc:6a:e9:aa:6d:46:16:9f:65:05:ec:bb:4a:e3:de:fc:ee:
        4b:6a:61:7b:4f:ca:b0:86:90:90:f9:3e:ee:42:70:bf:70:51:
        0b:ab:f0:b5:51:4f:78:f2:03:59:1e:5b:01:1d:6f:79:b6:d9:
        c2:38:83:22:b4:ae:64:06:63:5a:af:04:58:6c:a1:e2:3f:64:
        ce:f2:24:20:0c:a4:77:52:e1:cc:23:3f:5f:a7:89:20:85:fb:
        cd:f8:c1:09:98:bb:62:c3:62:0b:75:38:01:b0:93:d6:bf:22:
        d0:18:ff:04:52:25:72:bc:c9:d4:e5:77:fa:b6:84:9d:bb:d9:
        45:a0
-----BEGIN X509 CRL-----
MIIBSzCBtQIBATANBgkqhkiG9w0BAQUFADBSMQswCQYDVQQGEwJVUzEaMBgGA1UE
ChMRVGVzdCBDZXJ0aWZpY2F0ZXMxJzAlBgNVBAMTHmluaGliaXRQb2xpY3lNYXBw
aW5nMSBQMSBzdWJDQRcNMDEwNDE5MTQ1NzIwWhcNMTEwNDE5MTQ1NzIwWqAvMC0w
HwYDVR0jBBgwFoAUtqbB6sBSU9+G/WZJ5LRGvmMzDBUwCgYDVR0UBAMCAQEwDQYJ
KoZIhvcNAQEFBQADgYEAqvxq6aptRhafZQXsu0rj3vzuS2phe0/KsIaQkPk+7kJw
v3BRC6vwtVFPePIDWR5bAR1vebbZwjiDIrSuZAZjWq8EWGyh4j9kzvIkIAykd1Lh
zCM/X6eJIIX7zfjBCZi7YsNiC3U4AbCT1r8i0Bj/BFIlcrzJ1OV3+raEnbvZRaA=
-----END X509 CRL-----

Certificate Revocation List (CRL):
        Version 2 (0x1)
        Signature Algorithm: sha1WithRSAEncryption
        Issuer: /C=US/O=Test Certificates/CN=Trust Anchor
        Last Update: Apr 19 14:57:20 2001 GMT
        Next Update: Apr 19 14:57:20 2011 GMT
        CRL extensions:
            X509v3 Authority Key Identifier: 
                keyid:FB:6C:D4:2D:81:9E:CA:27:7A:9E:0D:B0:3C:EA:9A:BC:87:FF:49:EA

            X509v3 CRL Number: 
                1
Revoked Certificates:
    Serial Number: 68
        Revocation Date: Apr 19 14:57:20 2001 GMT
        CRL entry extensions:
            X509v3 CRL Reason Code: 
                Key Compromise
    Signature Algorithm: sha1WithRSAEncryption
        92:12:c4:34:b4:92:ab:ba:71:6b:74:31:16:ce:ed:25:d6:4b:
        1e:fa:f8:20:1e:9d:d7:7f:30:ed:15:f7:8b:5d:64:9b:dd:31:
        40:e4:55:0f:0c:5f:82:69:63:00:76:a5:cf:9e:c4:5f:f2:53:
        9b:9b:7d:f5:69:1d:74:57:38:70:e5:fb:5b:76:58:c9:ec:31:
        dc:94:1b:02:ee:9d:33:9c:38:4b:29:1d:e1:0c:29:8b:6e:c7:
        bf:a0:e8:40:34:83:cf:ff:9f:cd:b5:f7:d9:4d:a7:9f:2e:bf:
        44:98:6b:f2:d3:fe:a8:20:31:c1:33:76:b7:1c:19:65:4d:b9:
        14:39
-----BEGIN X509 CRL-----
MIIBXTCBxwIBATANBgkqhkiG9w0BAQUFADBAMQswCQYDVQQGEwJVUzEaMBgGA1UE
ChMRVGVzdCBDZXJ0aWZpY2F0ZXMxFTATBgNVBAMTDFRydXN0IEFuY2hvchcNMDEw
NDE5MTQ1NzIwWhcNMTEwNDE5MTQ1NzIwWjAiMCACAWgXDTAxMDQxOTE0NTcyMFow
DDAKBgNVHRUEAwoBAaAvMC0wHwYDVR0jBBgwFoAU+2zULYGeyid6ng2wPOqavIf/
SeowCgYDVR0UBAMCAQEwDQYJKoZIhvcNAQEFBQADgYEAkhLENLSSq7pxa3QxFs7t
JdZLHvr4IB6d138w7RX3i11km90xQORVDwxfgmljAHalz57EX/JTm5t99WkddFc4
cOX7W3ZYyewx3JQbAu6dM5w4Sykd4Qwpi27Hv6DoQDSDz/+fzbX32U2nny6/RJhr
8tP+qCAxwTN2txwZZU25FDk=
-----END X509 CRL-----

