subject=/C=US/O=Test Certificates/OU=permittedSubtree1/OU=permittedSubtree2/CN=Valid DN nameConstraints EE Certificate Test11
issuer=/C=US/O=Test Certificates/CN=nameConstraints DN5 CA
-----BEGIN CERTIFICATE-----
MIICxjCCAi+gAwIBAgIBAjANBgkqhkiG9w0BAQUFADBKMQswCQYDVQQGEwJVUzEa
MBgGA1UEChMRVGVzdCBDZXJ0aWZpY2F0ZXMxHzAdBgNVBAMTFm5hbWVDb25zdHJh
aW50cyBETjUgQ0EwHhcNMDEwNDE5MTQ1NzIwWhcNMTEwNDE5MTQ1NzIwWjCBmjEL
MAkGA1UEBhMCVVMxGjAYBgNVBAoTEVRlc3QgQ2VydGlmaWNhdGVzMRowGAYDVQQL
ExFwZXJtaXR0ZWRTdWJ0cmVlMTEaMBgGA1UECxMRcGVybWl0dGVkU3VidHJlZTIx
NzA1BgNVBAMTLlZhbGlkIEROIG5hbWVDb25zdHJhaW50cyBFRSBDZXJ0aWZpY2F0
ZSBUZXN0MTEwgZ8wDQYJKoZIhvcNAQEBBQADgY0AMIGJAoGBAJlfx3jHiQnBHgwQ
XhHjF5QJIB+q+2Mc2w6gHDzym/PiEa5utF2eNcy1cskZiVaLmODreo/HtQpn8Iv+
YBfTuMT3GDXVTpPFfhVvtm4c7xz+e8QcJhK5TapF4kA4ejKPY8/JzpEtMvIS1tbt
w4ZQteFe2G55WqBlnMnwK3yQtphFAgMBAAGjazBpMB8GA1UdIwQYMBaAFBI1n6zB
uaHjOv7xL7p3sghOTVntMB0GA1UdDgQWBBRiLDLb16WReucmARwbU+K2PP+CPjAO
BgNVHQ8BAf8EBAMCBPAwFwYDVR0gBBAwDjAMBgpghkgBZQMCATABMA0GCSqGSIb3
DQEBBQUAA4GBAD8UOLijF/GmDv8mf/f0lhyLAbW8kylUTYgCUJpSlOL5pbtDoy/d
9OGqYA3uzDmQJxeaW2dzPwxOjV1IVBVFjA1yBiOpxQrLhc4vDGnVBpYfcvVzy1Dh
0jntUoxeVGCVSTd5DX1DWqzfQcOvEP3kiPGhodlCrY1udMFkLCuleB7B
-----END CERTIFICATE-----

subject=/C=US/O=Test Certificates/CN=nameConstraints DN5 CA
issuer=/C=US/O=Test Certificates/CN=Trust Anchor
-----BEGIN CERTIFICATE-----
MIIDRjCCAq+gAwIBAgIBQjANBgkqhkiG9w0BAQUFADBAMQswCQYDVQQGEwJVUzEa
MBgGA1UEChMRVGVzdCBDZXJ0aWZpY2F0ZXMxFTATBgNVBAMTDFRydXN0IEFuY2hv
cjAeFw0wMTA0MTkxNDU3MjBaFw0xMTA0MTkxNDU3MjBaMEoxCzAJBgNVBAYTAlVT
MRowGAYDVQQKExFUZXN0IENlcnRpZmljYXRlczEfMB0GA1UEAxMWbmFtZUNvbnN0
cmFpbnRzIERONSBDQTCBnzANBgkqhkiG9w0BAQEFAAOBjQAwgYkCgYEAxmMyGO18
wxt7plFRZcGPd5GxKiCL+NJ+O/UB82qQ1+GhwlsBTSo86QNLh9KPIjs3rrARYIo0
FqA86FPnpIiE/yWOfuQOeI3t6yvWf0XsXvcffhjW6n6sErOqhXX7voiJODZMseiM
wQ2Md8CcE3j78i6crfbdO6xGp2xNX63VmkMCAwEAAaOCAUQwggFAMB8GA1UdIwQY
MBaAFPts1C2Bnsonep4NsDzqmryH/0nqMB0GA1UdDgQWBBQSNZ+swbmh4zr+8S+6
d7IITk1Z7TAOBgNVHQ8BAf8EBAMCAQYwFwYDVR0gBBAwDjAMBgpghkgBZQMCATAB
MA8GA1UdEwEB/wQFMAMBAf8wgcMGA1UdHgEB/wSBuDCBtaBLMEmkRzBFMQswCQYD
VQQGEwJVUzEaMBgGA1UEChMRVGVzdCBDZXJ0aWZpY2F0ZXMxGjAYBgNVBAsTEXBl
cm1pdHRlZFN1YnRyZWUxoWYwZKRiMGAxCzAJBgNVBAYTAlVTMRowGAYDVQQKExFU
ZXN0IENlcnRpZmljYXRlczEaMBgGA1UECxMRcGVybWl0dGVkU3VidHJlZTExGTAX
BgNVBAsTEGV4Y2x1ZGVkU3VidHJlZTEwDQYJKoZIhvcNAQEFBQADgYEAp32j43pb
BqBj+2V14kyvmo+pgQ9H/ag1zf7WG4ei+McEkF7yvHSC6nfXJA19r+q2fAnvIU4M
TriscCGq9oE6qzd3VIQ5wx8eJp8v9SG62gxZe3n1A8gzG37TvTwBOeEgxOKBa/BS
8MNUbMO2SJwuE2pi9fnMhCgx9JxUQvQLou0=
-----END CERTIFICATE-----

Certificate Revocation List (CRL):
        Version 2 (0x1)
        Signature Algorithm: sha1WithRSAEncryption
        Issuer: /C=US/O=Test Certificates/CN=nameConstraints DN5 CA
        Last Update: Apr 19 14:57:20 2001 GMT
        Next Update: Apr 19 14:57:20 2011 GMT
        CRL extensions:
            X509v3 Authority Key Identifier: 
                keyid:12:35:9F:AC:C1:B9:A1:E3:3A:FE:F1:2F:BA:77:B2:08:4E:4D:59:ED

            X509v3 CRL Number: 
                1
No Revoked Certificates.
    Signature Algorithm: sha1WithRSAEncryption
        74:3d:76:85:10:61:c5:e4:1e:19:16:23:27:99:ac:bf:2e:c9:
        07:40:7b:fb:45:44:5d:c1:6e:d5:5a:e5:6d:35:d1:4e:9c:e1:
        b7:21:0c:2a:7b:7f:27:ed:9f:f4:59:15:1c:67:1d:4b:8e:ca:
        19:7c:a2:78:22:bf:28:67:31:5f:bf:f3:73:73:ed:c3:9c:fe:
        2f:16:56:80:ea:ec:27:dd:7a:85:15:2c:e8:fd:c5:80:2d:ad:
        36:ac:8f:39:5b:d9:79:ff:54:82:c6:61:37:e2:b6:07:46:8b:
        df:2c:86:2b:69:ca:d1:c3:71:4f:3f:c7:e9:4c:c9:23:85:85:
        19:9d
-----BEGIN X509 CRL-----
MIIBQzCBrQIBATANBgkqhkiG9w0BAQUFADBKMQswCQYDVQQGEwJVUzEaMBgGA1UE
ChMRVGVzdCBDZXJ0aWZpY2F0ZXMxHzAdBgNVBAMTFm5hbWVDb25zdHJhaW50cyBE
TjUgQ0EXDTAxMDQxOTE0NTcyMFoXDTExMDQxOTE0NTcyMFqgLzAtMB8GA1UdIwQY
MBaAFBI1n6zBuaHjOv7xL7p3sghOTVntMAoGA1UdFAQDAgEBMA0GCSqGSIb3DQEB
BQUAA4GBAHQ9doUQYcXkHhkWIyeZrL8uyQdAe/tFRF3BbtVa5W010U6c4bchDCp7
fyftn/RZFRxnHUuOyhl8ongivyhnMV+/83Nz7cOc/i8WVoDq7CfdeoUVLOj9xYAt
rTasjzlb2Xn/VILGYTfitgdGi98shitpytHDcU8/x+lMySOFhRmd
-----END X509 CRL-----

Certificate Revocation List (CRL):
        Version 2 (0x1)
        Signature Algorithm: sha1WithRSAEncryption
        Issuer: /C=US/O=Test Certificates/CN=Trust Anchor
        Last Update: Apr 19 14:57:20 2001 GMT
        Next Update: Apr 19 14:57:20 2011 GMT
        CRL extensions:
            X509v3 Authority Key Identifier: 
                keyid:FB:6C:D4:2D:81:9E:CA:27:7A:9E:0D:B0:3C:EA:9A:BC:87:FF:49:EA

            X509v3 CRL Number: 
                1
Revoked Certificates:
    Serial Number: 68
        Revocation Date: Apr 19 14:57:20 2001 GMT
        CRL entry extensions:
            X509v3 CRL Reason Code: 
                Key Compromise
    Signature Algorithm: sha1WithRSAEncryption
        92:12:c4:34:b4:92:ab:ba:71:6b:74:31:16:ce:ed:25:d6:4b:
        1e:fa:f8:20:1e:9d:d7:7f:30:ed:15:f7:8b:5d:64:9b:dd:31:
        40:e4:55:0f:0c:5f:82:69:63:00:76:a5:cf:9e:c4:5f:f2:53:
        9b:9b:7d:f5:69:1d:74:57:38:70:e5:fb:5b:76:58:c9:ec:31:
        dc:94:1b:02:ee:9d:33:9c:38:4b:29:1d:e1:0c:29:8b:6e:c7:
        bf:a0:e8:40:34:83:cf:ff:9f:cd:b5:f7:d9:4d:a7:9f:2e:bf:
        44:98:6b:f2:d3:fe:a8:20:31:c1:33:76:b7:1c:19:65:4d:b9:
        14:39
-----BEGIN X509 CRL-----
MIIBXTCBxwIBATANBgkqhkiG9w0BAQUFADBAMQswCQYDVQQGEwJVUzEaMBgGA1UE
ChMRVGVzdCBDZXJ0aWZpY2F0ZXMxFTATBgNVBAMTDFRydXN0IEFuY2hvchcNMDEw
NDE5MTQ1NzIwWhcNMTEwNDE5MTQ1NzIwWjAiMCACAWgXDTAxMDQxOTE0NTcyMFow
DDAKBgNVHRUEAwoBAaAvMC0wHwYDVR0jBBgwFoAU+2zULYGeyid6ng2wPOqavIf/
SeowCgYDVR0UBAMCAQEwDQYJKoZIhvcNAQEFBQADgYEAkhLENLSSq7pxa3QxFs7t
JdZLHvr4IB6d138w7RX3i11km90xQORVDwxfgmljAHalz57EX/JTm5t99WkddFc4
cOX7W3ZYyewx3JQbAu6dM5w4Sykd4Qwpi27Hv6DoQDSDz/+fzbX32U2nny6/RJhr
8tP+qCAxwTN2txwZZU25FDk=
-----END X509 CRL-----

