subject=/C=US/O=Test Certificates/L=Gaithersburg/GN=John/initials=Q/pseudonym=Fictitious/SN=CA/generationQualifier=III/title=M.D.
issuer=/C=US/O=Test Certificates/CN=Trust Anchor
-----BEGIN CERTIFICATE-----
MIICzTCCAjagAwIBAgIBYTANBgkqhkiG9w0BAQUFADBAMQswCQYDVQQGEwJVUzEa
MBgGA1UEChMRVGVzdCBDZXJ0aWZpY2F0ZXMxFTATBgNVBAMTDFRydXN0IEFuY2hv
cjAeFw0wMTA0MTkxNDU3MjBaFw0xMTA0MTkxNDU3MjBaMIGaMQswCQYDVQQGEwJV
UzEaMBgGA1UEChMRVGVzdCBDZXJ0aWZpY2F0ZXMxFTATBgNVBAcTDEdhaXRoZXJz
YnVyZzENMAsGA1UEKhMESm9objEKMAgGA1UEKxMBUTETMBEGA1UEQRMKRmljdGl0
aW91czELMAkGA1UEBBMCQ0ExDDAKBgNVBCwTA0lJSTENMAsGA1UEDBMETS5ELjCB
nzANBgkqhkiG9w0BAQEFAAOBjQAwgYkCgYEA1rYVbBlFi+aAvBEyC1OHaw1KoNLA
SbwWJQU2M2R18MJ60p/Et24lC5hPnI9+Iaqa0JSHYJ0hY4qWcweJOtNcTNjAgPe/
jxsQPIOJeI5j0ZDI79wgvj0F7KLW5QKyDbc220ew+FMR2KptqAPxv4exgICooaiL
M8sOLdN9u/AqLosCAwEAAaN8MHowHwYDVR0jBBgwFoAU+2zULYGeyid6ng2wPOqa
vIf/SeowHQYDVR0OBBYEFK+Bn8wZLBKkY0JXV9dXGmMHX3PRMA4GA1UdDwEB/wQE
AwIBBjAXBgNVHSAEEDAOMAwGCmCGSAFlAwIBMAEwDwYDVR0TAQH/BAUwAwEB/zAN
BgkqhkiG9w0BAQUFAAOBgQBT6cZaPPoR2jyTsaiykedCd4fttTGC/7nzI5s6/riF
5nxSRhoLM+h8ha+zN2df1xMZao1Ovp6RQGOPrbuPhz8qwnmYrjZ2fdvj47sj+BQY
xIO6oUyd/DYYwI/nmq3o5bLBOxZDz3qC3AiNFfcfLPiZ2m0eotP0I78nTtDGGUDc
Ew==
-----END CERTIFICATE-----

subject=/C=US/O=Test Certificates/CN=Valid RFC3280 Optional Attribute Types EE Certificate Test8
issuer=/C=US/O=Test Certificates/L=Gaithersburg/GN=John/initials=Q/pseudonym=Fictitious/SN=CA/generationQualifier=III/title=M.D.
-----BEGIN CERTIFICATE-----
MIIC6zCCAlSgAwIBAgIBATANBgkqhkiG9w0BAQUFADCBmjELMAkGA1UEBhMCVVMx
GjAYBgNVBAoTEVRlc3QgQ2VydGlmaWNhdGVzMRUwEwYDVQQHEwxHYWl0aGVyc2J1
cmcxDTALBgNVBCoTBEpvaG4xCjAIBgNVBCsTAVExEzARBgNVBEETCkZpY3RpdGlv
dXMxCzAJBgNVBAQTAkNBMQwwCgYDVQQsEwNJSUkxDTALBgNVBAwTBE0uRC4wHhcN
MDEwNDE5MTQ1NzIwWhcNMTEwNDE5MTQ1NzIwWjBvMQswCQYDVQQGEwJVUzEaMBgG
A1UEChMRVGVzdCBDZXJ0aWZpY2F0ZXMxRDBCBgNVBAMTO1ZhbGlkIFJGQzMyODAg
T3B0aW9uYWwgQXR0cmlidXRlIFR5cGVzIEVFIENlcnRpZmljYXRlIFRlc3Q4MIGf
MA0GCSqGSIb3DQEBAQUAA4GNADCBiQKBgQDBi40mcnzIqaCI8xmKk/hWOkKWbQLD
++tbFk6jZC91dhYO3PZy1cPsNYJPSz+xSdp/EQz+8TEGRabX2QloXsHxgRZGersi
xzDg2uh1LS0/k04o+YxsAwJljkd74tub9b0PRX6MzqsUQgy7SWnPvQ6qKJ1uZ8B3
UJYb/Jr+Jb0BDQIDAQABo2swaTAfBgNVHSMEGDAWgBSvgZ/MGSwSpGNCV1fXVxpj
B19z0TAdBgNVHQ4EFgQU1AdzbqWGvXGozwcQ3FLKcM0NhdQwDgYDVR0PAQH/BAQD
AgTwMBcGA1UdIAQQMA4wDAYKYIZIAWUDAgEwATANBgkqhkiG9w0BAQUFAAOBgQCm
53CaFal2YrwuX9JDOKgfEISGgoAdQjs+hoh0T9fTKMeyzfuEaajj4gKD7YViPd5Z
SbbTywQKjzTDTP1PiLf7ti3TbOzHmPCT9sOcSMxn7ws9Q/KV4SvNjpYK8W6YPn6r
WSMe+VuZypOlb/vWxOgHPP5IIY/4vqVjulA0tcqP5Q==
-----END CERTIFICATE-----

Certificate Revocation List (CRL):
        Version 2 (0x1)
        Signature Algorithm: sha1WithRSAEncryption
        Issuer: /C=US/O=Test Certificates/CN=Trust Anchor
        Last Update: Apr 19 14:57:20 2001 GMT
        Next Update: Apr 19 14:57:20 2011 GMT
        CRL extensions:
            X509v3 Authority Key Identifier: 
                keyid:FB:6C:D4:2D:81:9E:CA:27:7A:9E:0D:B0:3C:EA:9A:BC:87:FF:49:EA

            X509v3 CRL Number: 
                1
Revoked Certificates:
    Serial Number: 68
        Revocation Date: Apr 19 14:57:20 2001 GMT
        CRL entry extensions:
            X509v3 CRL Reason Code: 
                Key Compromise
    Signature Algorithm: sha1WithRSAEncryption
        92:12:c4:34:b4:92:ab:ba:71:6b:74:31:16:ce:ed:25:d6:4b:
        1e:fa:f8:20:1e:9d:d7:7f:30:ed:15:f7:8b:5d:64:9b:dd:31:
        40:e4:55:0f:0c:5f:82:69:63:00:76:a5:cf:9e:c4:5f:f2:53:
        9b:9b:7d:f5:69:1d:74:57:38:70:e5:fb:5b:76:58:c9:ec:31:
        dc:94:1b:02:ee:9d:33:9c:38:4b:29:1d:e1:0c:29:8b:6e:c7:
        bf:a0:e8:40:34:83:cf:ff:9f:cd:b5:f7:d9:4d:a7:9f:2e:bf:
        44:98:6b:f2:d3:fe:a8:20:31:c1:33:76:b7:1c:19:65:4d:b9:
        14:39
-----BEGIN X509 CRL-----
MIIBXTCBxwIBATANBgkqhkiG9w0BAQUFADBAMQswCQYDVQQGEwJVUzEaMBgGA1UE
ChMRVGVzdCBDZXJ0aWZpY2F0ZXMxFTATBgNVBAMTDFRydXN0IEFuY2hvchcNMDEw
NDE5MTQ1NzIwWhcNMTEwNDE5MTQ1NzIwWjAiMCACAWgXDTAxMDQxOTE0NTcyMFow
DDAKBgNVHRUEAwoBAaAvMC0wHwYDVR0jBBgwFoAU+2zULYGeyid6ng2wPOqavIf/
SeowCgYDVR0UBAMCAQEwDQYJKoZIhvcNAQEFBQADgYEAkhLENLSSq7pxa3QxFs7t
JdZLHvr4IB6d138w7RX3i11km90xQORVDwxfgmljAHalz57EX/JTm5t99WkddFc4
cOX7W3ZYyewx3JQbAu6dM5w4Sykd4Qwpi27Hv6DoQDSDz/+fzbX32U2nny6/RJhr
8tP+qCAxwTN2txwZZU25FDk=
-----END X509 CRL-----

Certificate Revocation List (CRL):
        Version 2 (0x1)
        Signature Algorithm: sha1WithRSAEncryption
        Issuer: /C=US/O=Test Certificates/L=Gaithersburg/GN=John/initials=Q/pseudonym=Fictitious/SN=CA/generationQualifier=III/title=M.D.
        Last Update: Apr 19 14:57:20 2001 GMT
        Next Update: Apr 19 14:57:20 2011 GMT
        CRL extensions:
            X509v3 Authority Key Identifier: 
                keyid:AF:81:9F:CC:19:2C:12:A4:63:42:57:57:D7:57:1A:63:07:5F:73:D1

            X509v3 CRL Number: 
                1
No Revoked Certificates.
    Signature Algorithm: sha1WithRSAEncryption
        92:2d:88:30:eb:90:92:74:63:32:0b:b7:99:52:78:83:ef:a8:
        8f:33:89:b8:57:ff:06:f8:f0:41:20:77:9d:be:a9:98:10:12:
        e3:80:bb:b0:48:d2:57:93:be:3b:b8:64:f6:9a:91:05:05:df:
        d4:97:6a:a1:c7:29:04:d3:e6:ab:63:83:99:c1:58:87:8e:ee:
        d7:85:1b:f7:d1:8d:2f:34:c4:a8:77:c3:5d:ff:15:2b:c5:14:
        47:f8:04:f4:c0:a1:3a:84:07:0c:a4:97:0f:02:f8:ca:07:52:
        fe:42:29:ff:e2:9a:01:e0:ac:1f:4f:e1:15:47:6c:71:d9:da:
        dc:02
-----BEGIN X509 CRL-----
MIIBlDCB/gIBATANBgkqhkiG9w0BAQUFADCBmjELMAkGA1UEBhMCVVMxGjAYBgNV
BAoTEVRlc3QgQ2VydGlmaWNhdGVzMRUwEwYDVQQHEwxHYWl0aGVyc2J1cmcxDTAL
BgNVBCoTBEpvaG4xCjAIBgNVBCsTAVExEzARBgNVBEETCkZpY3RpdGlvdXMxCzAJ
BgNVBAQTAkNBMQwwCgYDVQQsEwNJSUkxDTALBgNVBAwTBE0uRC4XDTAxMDQxOTE0
NTcyMFoXDTExMDQxOTE0NTcyMFqgLzAtMB8GA1UdIwQYMBaAFK+Bn8wZLBKkY0JX
V9dXGmMHX3PRMAoGA1UdFAQDAgEBMA0GCSqGSIb3DQEBBQUAA4GBAJItiDDrkJJ0
YzILt5lSeIPvqI8zibhX/wb48EEgd52+qZgQEuOAu7BI0leTvju4ZPaakQUF39SX
aqHHKQTT5qtjg5nBWIeO7teFG/fRjS80xKh3w13/FSvFFEf4BPTAoTqEBwyklw8C
+MoHUv5CKf/imgHgrB9P4RVHbHHZ2twC
-----END X509 CRL-----

