subject=/C=US/O=Test Certificates/CN=Valid Policy Mapping EE Certificate Test9
issuer=/C=US/O=Test Certificates/CN=PanyPolicy Mapping 1to2 CA
-----BEGIN CERTIFICATE-----
MIICjDCCAfWgAwIBAgIBATANBgkqhkiG9w0BAQUFADBOMQswCQYDVQQGEwJVUzEa
MBgGA1UEChMRVGVzdCBDZXJ0aWZpY2F0ZXMxIzAhBgNVBAMTGlBhbnlQb2xpY3kg
TWFwcGluZyAxdG8yIENBMB4XDTAxMDQxOTE0NTcyMFoXDTExMDQxOTE0NTcyMFow
XTELMAkGA1UEBhMCVVMxGjAYBgNVBAoTEVRlc3QgQ2VydGlmaWNhdGVzMTIwMAYD
VQQDEylWYWxpZCBQb2xpY3kgTWFwcGluZyBFRSBDZXJ0aWZpY2F0ZSBUZXN0OTCB
nzANBgkqhkiG9w0BAQEFAAOBjQAwgYkCgYEA2FRrJurp4yzaLVdHeMS3IAQQvUjp
lPkcXvLpEyQnWVTBYLsXJF9YdVxJJFES2XUxVFTumNnOjc2XcgCuUDwqoUYHPv8P
UWZuoQ8B2sg8HPNU6G5BHBbtXkzC7lKCDLRshPSgnKngxdmoIDSVDPkz2KBUhbFm
QZIqhVHE6UPCViUCAwEAAaNrMGkwHwYDVR0jBBgwFoAU0rpPGz5oOOaQ+MHqJa7a
kq9DNm4wHQYDVR0OBBYEFEhKmk02sJFH9yFXTXKxqodRjaFoMA4GA1UdDwEB/wQE
AwIE8DAXBgNVHSAEEDAOMAwGCmCGSAFlAwIBMAEwDQYJKoZIhvcNAQEFBQADgYEA
PrcU9aDr57y1wekJ7k+ZJuhDlemNjGY7ggrZcarGL+LsRqkufpgkLpei7Cz13buA
L/MqHFdc7H7d+GrbF4PAe2NXfcnlJJMLjS9Jw77qSb3aw9eSqYscBFhOxYWNL/Qh
5GI9hJYugYGFzLxh1Cnl0/Pc8PoBgtaZg7H2hXmlUyQ=
-----END CERTIFICATE-----

subject=/C=US/O=Test Certificates/CN=PanyPolicy Mapping 1to2 CA
issuer=/C=US/O=Test Certificates/CN=Trust Anchor
-----BEGIN CERTIFICATE-----
MIICsjCCAhugAwIBAgIBNTANBgkqhkiG9w0BAQUFADBAMQswCQYDVQQGEwJVUzEa
MBgGA1UEChMRVGVzdCBDZXJ0aWZpY2F0ZXMxFTATBgNVBAMTDFRydXN0IEFuY2hv
cjAeFw0wMTA0MTkxNDU3MjBaFw0xMTA0MTkxNDU3MjBaME4xCzAJBgNVBAYTAlVT
MRowGAYDVQQKExFUZXN0IENlcnRpZmljYXRlczEjMCEGA1UEAxMaUGFueVBvbGlj
eSBNYXBwaW5nIDF0bzIgQ0EwgZ8wDQYJKoZIhvcNAQEBBQADgY0AMIGJAoGBAPOw
G+hWDRzfFMkg2CwlHhCBrp/3hveD/ESGWRnpEp1ATKX47bZDyerSn5/9+d2sCsja
seeR04tpsBmS+o6bUTTy9W5G6gxE/McnS7oH1WJLYNW9e57ckYArd3i85wr+Ecoq
IaTiDQmy4Ze+TBNA/7CaYTp8agquwDTl40VGqfs1AgMBAAGjga0wgaowHwYDVR0j
BBgwFoAU+2zULYGeyid6ng2wPOqavIf/SeowHQYDVR0OBBYEFNK6Txs+aDjmkPjB
6iWu2pKvQzZuMA4GA1UdDwEB/wQEAwIBBjARBgNVHSAECjAIMAYGBFUdIAAwJgYD
VR0hAQH/BBwwGjAYBgpghkgBZQMCATABBgpghkgBZQMCATACMA8GA1UdEwEB/wQF
MAMBAf8wDAYDVR0kBAUwA4ABADANBgkqhkiG9w0BAQUFAAOBgQBL624FELsxdPKY
tcreLc/Fz0uWZ7bc3BEIeVTarTWFu536wAOO2Pf4mJdJZ5WVVSYcOJb03Zso6U0G
h0iYeHFGkXBCrqeOGe1h3zL4ED/C0HYJmPtLcTrtlAwvYq8dq4ABvsqMAUgFrsf4
JGqkgLsMrbXRCAsLpFver5xKAuQ67A==
-----END CERTIFICATE-----

Certificate Revocation List (CRL):
        Version 2 (0x1)
        Signature Algorithm: sha1WithRSAEncryption
        Issuer: /C=US/O=Test Certificates/CN=PanyPolicy Mapping 1to2 CA
        Last Update: Apr 19 14:57:20 2001 GMT
        Next Update: Apr 19 14:57:20 2011 GMT
        CRL extensions:
            X509v3 Authority Key Identifier: 
                keyid:D2:BA:4F:1B:3E:68:38:E6:90:F8:C1:EA:25:AE:DA:92:AF:43:36:6E

            X509v3 CRL Number: 
                1
No Revoked Certificates.
    Signature Algorithm: sha1WithRSAEncryption
        9d:f5:f9:0e:d5:1b:b9:cc:83:35:eb:00:3d:98:52:11:89:63:
        79:17:97:0b:9a:f5:0c:35:72:44:ab:2b:97:85:0d:c1:3f:26:
        10:15:81:e4:78:88:59:2d:4d:2b:4a:8b:5a:58:e4:2c:82:76:
        0f:b0:c3:45:c6:46:34:cc:38:33:da:6b:a0:79:e2:65:2a:3a:
        54:8d:69:54:6e:77:32:c1:45:8e:63:de:09:f4:3e:9f:a5:19:
        37:25:92:40:f1:aa:57:f2:61:69:e3:3d:e4:05:85:94:ec:29:
        51:dd:85:6c:65:c3:83:7a:c4:f9:37:7e:c0:a0:0d:6c:86:2b:
        47:7b
-----BEGIN X509 CRL-----
MIIBRzCBsQIBATANBgkqhkiG9w0BAQUFADBOMQswCQYDVQQGEwJVUzEaMBgGA1UE
ChMRVGVzdCBDZXJ0aWZpY2F0ZXMxIzAhBgNVBAMTGlBhbnlQb2xpY3kgTWFwcGlu
ZyAxdG8yIENBFw0wMTA0MTkxNDU3MjBaFw0xMTA0MTkxNDU3MjBaoC8wLTAfBgNV
HSMEGDAWgBTSuk8bPmg45pD4weolrtqSr0M2bjAKBgNVHRQEAwIBATANBgkqhkiG
9w0BAQUFAAOBgQCd9fkO1Ru5zIM16wA9mFIRiWN5F5cLmvUMNXJEqyuXhQ3BPyYQ
FYHkeIhZLU0rSotaWOQsgnYPsMNFxkY0zDgz2mugeeJlKjpUjWlUbncywUWOY94J
9D6fpRk3JZJA8apX8mFp4z3kBYWU7ClR3YVsZcODesT5N37AoA1shitHew==
-----END X509 CRL-----

Certificate Revocation List (CRL):
        Version 2 (0x1)
        Signature Algorithm: sha1WithRSAEncryption
        Issuer: /C=US/O=Test Certificates/CN=Trust Anchor
        Last Update: Apr 19 14:57:20 2001 GMT
        Next Update: Apr 19 14:57:20 2011 GMT
        CRL extensions:
            X509v3 Authority Key Identifier: 
                keyid:FB:6C:D4:2D:81:9E:CA:27:7A:9E:0D:B0:3C:EA:9A:BC:87:FF:49:EA

            X509v3 CRL Number: 
                1
Revoked Certificates:
    Serial Number: 68
        Revocation Date: Apr 19 14:57:20 2001 GMT
        CRL entry extensions:
            X509v3 CRL Reason Code: 
                Key Compromise
    Signature Algorithm: sha1WithRSAEncryption
        92:12:c4:34:b4:92:ab:ba:71:6b:74:31:16:ce:ed:25:d6:4b:
        1e:fa:f8:20:1e:9d:d7:7f:30:ed:15:f7:8b:5d:64:9b:dd:31:
        40:e4:55:0f:0c:5f:82:69:63:00:76:a5:cf:9e:c4:5f:f2:53:
        9b:9b:7d:f5:69:1d:74:57:38:70:e5:fb:5b:76:58:c9:ec:31:
        dc:94:1b:02:ee:9d:33:9c:38:4b:29:1d:e1:0c:29:8b:6e:c7:
        bf:a0:e8:40:34:83:cf:ff:9f:cd:b5:f7:d9:4d:a7:9f:2e:bf:
        44:98:6b:f2:d3:fe:a8:20:31:c1:33:76:b7:1c:19:65:4d:b9:
        14:39
-----BEGIN X509 CRL-----
MIIBXTCBxwIBATANBgkqhkiG9w0BAQUFADBAMQswCQYDVQQGEwJVUzEaMBgGA1UE
ChMRVGVzdCBDZXJ0aWZpY2F0ZXMxFTATBgNVBAMTDFRydXN0IEFuY2hvchcNMDEw
NDE5MTQ1NzIwWhcNMTEwNDE5MTQ1NzIwWjAiMCACAWgXDTAxMDQxOTE0NTcyMFow
DDAKBgNVHRUEAwoBAaAvMC0wHwYDVR0jBBgwFoAU+2zULYGeyid6ng2wPOqavIf/
SeowCgYDVR0UBAMCAQEwDQYJKoZIhvcNAQEFBQADgYEAkhLENLSSq7pxa3QxFs7t
JdZLHvr4IB6d138w7RX3i11km90xQORVDwxfgmljAHalz57EX/JTm5t99WkddFc4
cOX7W3ZYyewx3JQbAu6dM5w4Sykd4Qwpi27Hv6DoQDSDz/+fzbX32U2nny6/RJhr
8tP+qCAxwTN2txwZZU25FDk=
-----END X509 CRL-----

