subject=/C=US/O=Test Certificates/CN=Valid DN nameConstraints EE Certificate Test18
issuer=/C=US/O=Test Certificates/CN=nameConstraints DN3 subCA2
-----BEGIN CERTIFICATE-----
MIICkTCCAfqgAwIBAgIBAjANBgkqhkiG9w0BAQUFADBOMQswCQYDVQQGEwJVUzEa
MBgGA1UEChMRVGVzdCBDZXJ0aWZpY2F0ZXMxIzAhBgNVBAMTGm5hbWVDb25zdHJh
aW50cyBETjMgc3ViQ0EyMB4XDTAxMDQxOTE0NTcyMFoXDTExMDQxOTE0NTcyMFow
YjELMAkGA1UEBhMCVVMxGjAYBgNVBAoTEVRlc3QgQ2VydGlmaWNhdGVzMTcwNQYD
VQQDEy5WYWxpZCBETiBuYW1lQ29uc3RyYWludHMgRUUgQ2VydGlmaWNhdGUgVGVz
dDE4MIGfMA0GCSqGSIb3DQEBAQUAA4GNADCBiQKBgQDB4Ppc8a/vNVYqFPhznRZF
lo/ecz5fZXYIuGCaozBBsqZu+6JFjbrAbeA6FbCKH/w1WFNPPTTSvJqSqN4Lw1yG
yeTCfJoFyUA1wbNUKONsJQgYoOLM+KIuBUpfhZKtHzLrk+NKoCz7pWo52Wy5aQ0A
B8St+URVVzDNk8Z5+mtaYwIDAQABo2swaTAfBgNVHSMEGDAWgBQLSL4ocWpIJAo8
4krUBSri1x417zAdBgNVHQ4EFgQUzsfJblSrNLQ6e4Gq3J4kw3O7LYQwDgYDVR0P
AQH/BAQDAgTwMBcGA1UdIAQQMA4wDAYKYIZIAWUDAgEwATANBgkqhkiG9w0BAQUF
AAOBgQC3FQqH6qw98Em37v12rhcPtdOIRWZPs2z9dGJpRJHDBzNoWr2t5pxwnBhZ
L7Wy8uNRTy6iTNLgDPIPP4sXYlphcnG2SLe8APJUcTE80aikRwFcht0SO+lpiUhn
FTrjSWJELeehius13WbzhA4NKTjleW5zkvh3mTYww5msepvgrA==
-----END CERTIFICATE-----

subject=/C=US/O=Test Certificates/CN=nameConstraints DN3 subCA2
issuer=/C=US/O=Test Certificates/CN=nameConstraints DN3 CA
-----BEGIN CERTIFICATE-----
MIICyzCCAjSgAwIBAgIBBDANBgkqhkiG9w0BAQUFADBKMQswCQYDVQQGEwJVUzEa
MBgGA1UEChMRVGVzdCBDZXJ0aWZpY2F0ZXMxHzAdBgNVBAMTFm5hbWVDb25zdHJh
aW50cyBETjMgQ0EwHhcNMDEwNDE5MTQ1NzIwWhcNMTEwNDE5MTQ1NzIwWjBOMQsw
CQYDVQQGEwJVUzEaMBgGA1UEChMRVGVzdCBDZXJ0aWZpY2F0ZXMxIzAhBgNVBAMT
Gm5hbWVDb25zdHJhaW50cyBETjMgc3ViQ0EyMIGfMA0GCSqGSIb3DQEBAQUAA4GN
ADCBiQKBgQDCH3OWCAvPFZXpNTKMN3DoOML+FK32+icT19l0MQXIXBqoJyw8qF2z
xcl4ahdLxfSFpf8OF3ttKbzN5fk2/Dxue6beAMs0L1r4VUilJaUhOmTMrlYXB6UI
QX2nzlu6lZbNrI0VFt8qM2C9CdbG+2ZQuJQQO0BtHXWJC9el4t68/QIDAQABo4G8
MIG5MB8GA1UdIwQYMBaAFIvjuFhWnwNq3z3YBzuzBzbhy7bKMB0GA1UdDgQWBBQL
SL4ocWpIJAo84krUBSri1x417zAOBgNVHQ8BAf8EBAMCAQYwFwYDVR0gBBAwDjAM
BgpghkgBZQMCATABMA8GA1UdEwEB/wQFMAMBAf8wPQYDVR0eAQH/BDMwMaAvMC2k
KzApMQswCQYDVQQGEwJVUzEaMBgGA1UEChMRVGVzdCBDZXJ0aWZpY2F0ZXMwDQYJ
KoZIhvcNAQEFBQADgYEAV7W8Yarxgw2gPgl0gz1Vz7IdH6ZbzLBpsB0W+gyPTd+R
toE/N42Efda3DIG5BoxqTj00uc9j2GF5LqBgKaEieenzkv5E6qbTrZ0F/FdX1c17
DBpRvkchpd4FACNL+FhSq824LEKdBDOx669LmsH664nk6NSPtv04LjUxa+822aw=
-----END CERTIFICATE-----

subject=/C=US/O=Test Certificates/CN=nameConstraints DN3 CA
issuer=/C=US/O=Test Certificates/CN=Trust Anchor
-----BEGIN CERTIFICATE-----
MIIC2DCCAkGgAwIBAgIBQDANBgkqhkiG9w0BAQUFADBAMQswCQYDVQQGEwJVUzEa
MBgGA1UEChMRVGVzdCBDZXJ0aWZpY2F0ZXMxFTATBgNVBAMTDFRydXN0IEFuY2hv
cjAeFw0wMTA0MTkxNDU3MjBaFw0xMTA0MTkxNDU3MjBaMEoxCzAJBgNVBAYTAlVT
MRowGAYDVQQKExFUZXN0IENlcnRpZmljYXRlczEfMB0GA1UEAxMWbmFtZUNvbnN0
cmFpbnRzIEROMyBDQTCBnzANBgkqhkiG9w0BAQEFAAOBjQAwgYkCgYEAti5Odfo3
pSf6p8iGjNMBwSlKozpyyMbXSxEjpiDvuZpllmjLqoXe6tiWiee19xCly8MnbxXl
4Pc6BglZNZd+adRIlPrFUPIVmBM51RJLvzQKjiTRPwrPwsJnizD9KLcr0Kf+e9Gi
LHBlqZM41/0oBCVuAX/5Y5zNNiFhFeOnkNECAwEAAaOB1zCB1DAfBgNVHSMEGDAW
gBT7bNQtgZ7KJ3qeDbA86pq8h/9J6jAdBgNVHQ4EFgQUi+O4WFafA2rfPdgHO7MH
NuHLtsowDgYDVR0PAQH/BAQDAgEGMBcGA1UdIAQQMA4wDAYKYIZIAWUDAgEwATAP
BgNVHRMBAf8EBTADAQH/MFgGA1UdHgEB/wROMEyhSjBIpEYwRDELMAkGA1UEBhMC
VVMxGjAYBgNVBAoTEVRlc3QgQ2VydGlmaWNhdGVzMRkwFwYDVQQLExBleGNsdWRl
ZFN1YnRyZWUxMA0GCSqGSIb3DQEBBQUAA4GBALkukW5Jb4GxdEYN7MeIVxnZX8fn
4Ulh/l6uDFKi+R8UZyMWYp0oi5F0sYQrrsjBwpg/ivfpJtxLh1uMEAWp98vMQPFZ
Hoo+ma1Ulfh6qAGv8C6EgA5sxWuNO0VrZsMbNsQeqVLXKvkBsYxrUAHXBd5ufqEA
Wofw3VBcFpqgolnA
-----END CERTIFICATE-----

Certificate Revocation List (CRL):
        Version 2 (0x1)
        Signature Algorithm: sha1WithRSAEncryption
        Issuer: /C=US/O=Test Certificates/CN=nameConstraints DN3 CA
        Last Update: Apr 19 14:57:20 2001 GMT
        Next Update: Apr 19 14:57:20 2011 GMT
        CRL extensions:
            X509v3 Authority Key Identifier: 
                keyid:8B:E3:B8:58:56:9F:03:6A:DF:3D:D8:07:3B:B3:07:36:E1:CB:B6:CA

            X509v3 CRL Number: 
                1
No Revoked Certificates.
    Signature Algorithm: sha1WithRSAEncryption
        a9:3e:f9:c3:5c:b0:eb:85:59:db:c9:72:3e:b4:2b:30:6d:22:
        dc:9c:9f:fc:8a:ad:9b:1d:48:b0:19:9f:47:3e:d2:44:6c:3d:
        c4:6c:03:bb:82:6c:26:85:eb:7f:1d:9c:48:93:a0:9c:66:25:
        85:b1:5e:fe:71:a3:d6:2d:4d:c0:cb:3f:1a:46:fe:ea:31:8a:
        db:d2:1d:f5:0f:b3:48:ad:0b:48:0a:b4:19:cd:e9:c5:5d:17:
        6a:3f:f8:bc:99:39:5b:29:88:2d:7d:0f:b4:be:94:e6:8e:a1:
        7e:12:31:2a:46:f9:3c:1f:d1:c2:69:c3:be:62:f4:bb:b0:6b:
        16:a2
-----BEGIN X509 CRL-----
MIIBQzCBrQIBATANBgkqhkiG9w0BAQUFADBKMQswCQYDVQQGEwJVUzEaMBgGA1UE
ChMRVGVzdCBDZXJ0aWZpY2F0ZXMxHzAdBgNVBAMTFm5hbWVDb25zdHJhaW50cyBE
TjMgQ0EXDTAxMDQxOTE0NTcyMFoXDTExMDQxOTE0NTcyMFqgLzAtMB8GA1UdIwQY
MBaAFIvjuFhWnwNq3z3YBzuzBzbhy7bKMAoGA1UdFAQDAgEBMA0GCSqGSIb3DQEB
BQUAA4GBAKk++cNcsOuFWdvJcj60KzBtItycn/yKrZsdSLAZn0c+0kRsPcRsA7uC
bCaF638dnEiToJxmJYWxXv5xo9YtTcDLPxpG/uoxitvSHfUPs0itC0gKtBnN6cVd
F2o/+LyZOVspiC19D7S+lOaOoX4SMSpG+Twf0cJpw75i9Luwaxai
-----END X509 CRL-----

Certificate Revocation List (CRL):
        Version 2 (0x1)
        Signature Algorithm: sha1WithRSAEncryption
        Issuer: /C=US/O=Test Certificates/CN=nameConstraints DN3 subCA2
        Last Update: Apr 19 14:57:20 2001 GMT
        Next Update: Apr 19 14:57:20 2011 GMT
        CRL extensions:
            X509v3 Authority Key Identifier: 
                keyid:0B:48:BE:28:71:6A:48:24:0A:3C:E2:4A:D4:05:2A:E2:D7:1E:35:EF

            X509v3 CRL Number: 
                1
No Revoked Certificates.
    Signature Algorithm: sha1WithRSAEncryption
        c0:0c:a7:28:80:0d:2c:71:66:4d:67:82:ec:c7:30:4f:48:29:
        fe:d4:20:82:f2:5c:e6:ef:24:8b:9f:f2:b8:c5:3b:e0:86:53:
        f4:b5:fc:67:db:b2:1d:45:77:8a:78:47:eb:63:bb:43:b8:14:
        c0:05:ff:ca:7b:d5:1f:fa:df:e7:7a:a5:39:e7:00:ed:4a:d9:
        6d:fd:d1:78:a1:44:f0:71:f4:89:4c:52:d5:ef:99:5c:59:eb:
        80:c4:5d:ed:48:2b:5a:55:0b:d1:df:4a:a5:49:69:f1:67:a2:
        aa:ce:9d:99:9b:74:0f:ec:da:60:d9:3e:14:45:a3:6c:5b:47:
        fa:d0
-----BEGIN X509 CRL-----
MIIBRzCBsQIBATANBgkqhkiG9w0BAQUFADBOMQswCQYDVQQGEwJVUzEaMBgGA1UE
ChMRVGVzdCBDZXJ0aWZpY2F0ZXMxIzAhBgNVBAMTGm5hbWVDb25zdHJhaW50cyBE
TjMgc3ViQ0EyFw0wMTA0MTkxNDU3MjBaFw0xMTA0MTkxNDU3MjBaoC8wLTAfBgNV
HSMEGDAWgBQLSL4ocWpIJAo84krUBSri1x417zAKBgNVHRQEAwIBATANBgkqhkiG
9w0BAQUFAAOBgQDADKcogA0scWZNZ4LsxzBPSCn+1CCC8lzm7ySLn/K4xTvghlP0
tfxn27IdRXeKeEfrY7tDuBTABf/Ke9Uf+t/neqU55wDtStlt/dF4oUTwcfSJTFLV
75lcWeuAxF3tSCtaVQvR30qlSWnxZ6Kqzp2Zm3QP7Npg2T4URaNsW0f60A==
-----END X509 CRL-----

Certificate Revocation List (CRL):
        Version 2 (0x1)
        Signature Algorithm: sha1WithRSAEncryption
        Issuer: /C=US/O=Test Certificates/CN=Trust Anchor
        Last Update: Apr 19 14:57:20 2001 GMT
        Next Update: Apr 19 14:57:20 2011 GMT
        CRL extensions:
            X509v3 Authority Key Identifier: 
                keyid:FB:6C:D4:2D:81:9E:CA:27:7A:9E:0D:B0:3C:EA:9A:BC:87:FF:49:EA

            X509v3 CRL Number: 
                1
Revoked Certificates:
    Serial Number: 68
        Revocation Date: Apr 19 14:57:20 2001 GMT
        CRL entry extensions:
            X509v3 CRL Reason Code: 
                Key Compromise
    Signature Algorithm: sha1WithRSAEncryption
        92:12:c4:34:b4:92:ab:ba:71:6b:74:31:16:ce:ed:25:d6:4b:
        1e:fa:f8:20:1e:9d:d7:7f:30:ed:15:f7:8b:5d:64:9b:dd:31:
        40:e4:55:0f:0c:5f:82:69:63:00:76:a5:cf:9e:c4:5f:f2:53:
        9b:9b:7d:f5:69:1d:74:57:38:70:e5:fb:5b:76:58:c9:ec:31:
        dc:94:1b:02:ee:9d:33:9c:38:4b:29:1d:e1:0c:29:8b:6e:c7:
        bf:a0:e8:40:34:83:cf:ff:9f:cd:b5:f7:d9:4d:a7:9f:2e:bf:
        44:98:6b:f2:d3:fe:a8:20:31:c1:33:76:b7:1c:19:65:4d:b9:
        14:39
-----BEGIN X509 CRL-----
MIIBXTCBxwIBATANBgkqhkiG9w0BAQUFADBAMQswCQYDVQQGEwJVUzEaMBgGA1UE
ChMRVGVzdCBDZXJ0aWZpY2F0ZXMxFTATBgNVBAMTDFRydXN0IEFuY2hvchcNMDEw
NDE5MTQ1NzIwWhcNMTEwNDE5MTQ1NzIwWjAiMCACAWgXDTAxMDQxOTE0NTcyMFow
DDAKBgNVHRUEAwoBAaAvMC0wHwYDVR0jBBgwFoAU+2zULYGeyid6ng2wPOqavIf/
SeowCgYDVR0UBAMCAQEwDQYJKoZIhvcNAQEFBQADgYEAkhLENLSSq7pxa3QxFs7t
JdZLHvr4IB6d138w7RX3i11km90xQORVDwxfgmljAHalz57EX/JTm5t99WkddFc4
cOX7W3ZYyewx3JQbAu6dM5w4Sykd4Qwpi27Hv6DoQDSDz/+fzbX32U2nny6/RJhr
8tP+qCAxwTN2txwZZU25FDk=
-----END X509 CRL-----

