subject=/C=US/O=Test Certificates/CN=UTF8String CA
issuer=/C=US/O=Test Certificates/CN=Trust Anchor
-----BEGIN CERTIFICATE-----
MIICczCCAdygAwIBAgIBYjANBgkqhkiG9w0BAQUFADBAMQswCQYDVQQGEwJVUzEa
MBgGA1UEChMRVGVzdCBDZXJ0aWZpY2F0ZXMxFTATBgNVBAMTDFRydXN0IEFuY2hv
cjAeFw0wMTA0MTkxNDU3MjBaFw0xMTA0MTkxNDU3MjBaMEExCzAJBgNVBAYTAlVT
MRowGAYDVQQKDBFUZXN0IENlcnRpZmljYXRlczEWMBQGA1UEAwwNVVRGOFN0cmlu
ZyBDQTCBnzANBgkqhkiG9w0BAQEFAAOBjQAwgYkCgYEAwNymUjXTPLYfQm1sbyf8
QSDxshobqw4r+yna0i1Rj3o7Lu/5vt/vqIPKH2r52EYvuFWBMNKCglyCcqidFgVx
Z+hsUqJi79uj1DhGgqeSG1/gmyduba9sGud4J6rNhVuz1E/dX5gu81Gi8AgFQj/D
tC+HMSrP6GKAXVbXsnWBPGkCAwEAAaN8MHowHwYDVR0jBBgwFoAU+2zULYGeyid6
ng2wPOqavIf/SeowHQYDVR0OBBYEFNMoQWQMXH4Okw1WMKge9ihlAMr7MA4GA1Ud
DwEB/wQEAwIBBjAXBgNVHSAEEDAOMAwGCmCGSAFlAwIBMAEwDwYDVR0TAQH/BAUw
AwEB/zANBgkqhkiG9w0BAQUFAAOBgQAYI8NaUKFwf+db04baEtgElpS8AhzYiCP9
H+4pn+6Bp7ZK+3WMdR5HVmHkn0wx3+eRrAO+4sViEZYS7+yJfJvQVqgeVgRWZeuE
dzIXVT0OLIloElDfgpdZgkkM2Ucdg5Nn52Of3AnZagaFiaNqFRZmC+QYnKif09vj
8jaUJTJbuw==
-----END CERTIFICATE-----

subject=/C=US/O=Test Certificates/CN=Valid UTF8String Encoded Names EE Certificate Test9
issuer=/C=US/O=Test Certificates/CN=UTF8String CA
-----BEGIN CERTIFICATE-----
MIICiTCCAfKgAwIBAgIBATANBgkqhkiG9w0BAQUFADBBMQswCQYDVQQGEwJVUzEa
MBgGA1UECgwRVGVzdCBDZXJ0aWZpY2F0ZXMxFjAUBgNVBAMMDVVURjhTdHJpbmcg
Q0EwHhcNMDEwNDE5MTQ1NzIwWhcNMTEwNDE5MTQ1NzIwWjBnMQswCQYDVQQGEwJV
UzEaMBgGA1UECgwRVGVzdCBDZXJ0aWZpY2F0ZXMxPDA6BgNVBAMMM1ZhbGlkIFVU
RjhTdHJpbmcgRW5jb2RlZCBOYW1lcyBFRSBDZXJ0aWZpY2F0ZSBUZXN0OTCBnzAN
BgkqhkiG9w0BAQEFAAOBjQAwgYkCgYEAoxNfkgSuZUKuoTrCTE46w8pIE47j18Ul
+ZyQJGplDws8AeUtIXBGxaYs6He2jxJXV6geeAi/DlFhUnNSK1Gavbey2DUkn8Av
3U5y2+p6S4HtU1FMypUCKcboGqHME6y3rqDQSl7YY03v3wd4PPaKPqvhZtDSG7b/
QnejyG55zHkCAwEAAaNrMGkwHwYDVR0jBBgwFoAU0yhBZAxcfg6TDVYwqB72KGUA
yvswHQYDVR0OBBYEFFNv7Je2o4j/89zS0tw/sI8eM4dZMA4GA1UdDwEB/wQEAwIE
8DAXBgNVHSAEEDAOMAwGCmCGSAFlAwIBMAEwDQYJKoZIhvcNAQEFBQADgYEAT2NW
DkK184Mva0VGnLCXsyNVUYV9/6cBxVncmML7X/XlT3c4M7ZjSoL/J+hVyavU+1pN
SAKfgfyZE6mVa6BOYzL5sBRcvpgJPjZMAEGZ+dwfJUsh2KQvFmEXu8xSBIss4Rgh
o7OsvrTpSFiidbLgLQW6FeMEivGfw8AZZ2W9+s0=
-----END CERTIFICATE-----

Certificate Revocation List (CRL):
        Version 2 (0x1)
        Signature Algorithm: sha1WithRSAEncryption
        Issuer: /C=US/O=Test Certificates/CN=UTF8String CA
        Last Update: Apr 19 14:57:20 2001 GMT
        Next Update: Apr 19 14:57:20 2011 GMT
        CRL extensions:
            X509v3 Authority Key Identifier: 
                keyid:D3:28:41:64:0C:5C:7E:0E:93:0D:56:30:A8:1E:F6:28:65:00:CA:FB

            X509v3 CRL Number: 
                1
No Revoked Certificates.
    Signature Algorithm: sha1WithRSAEncryption
        97:9a:cb:dd:e8:9a:f3:02:96:35:53:29:74:69:84:1f:c9:47:
        f5:14:71:8a:f0:32:42:64:ae:06:9a:ec:f1:2a:e1:4a:70:d7:
        1e:11:fc:b8:f2:9b:6b:38:d6:18:37:5b:74:d7:bc:78:c7:9c:
        b1:34:c1:76:87:4f:31:43:25:ce:95:52:23:cd:d0:38:c5:f0:
        26:b1:13:d1:ca:2b:f1:e1:df:e1:e7:3e:6a:3e:d9:51:60:5f:
        6a:78:b2:50:03:45:39:95:40:3d:2d:39:7b:af:97:e3:32:5f:
        14:f8:aa:70:ac:49:6d:44:1d:ac:2c:d2:fb:a4:5c:d5:f1:d7:
        23:5f
-----BEGIN X509 CRL-----
MIIBOjCBpAIBATANBgkqhkiG9w0BAQUFADBBMQswCQYDVQQGEwJVUzEaMBgGA1UE
CgwRVGVzdCBDZXJ0aWZpY2F0ZXMxFjAUBgNVBAMMDVVURjhTdHJpbmcgQ0EXDTAx
MDQxOTE0NTcyMFoXDTExMDQxOTE0NTcyMFqgLzAtMB8GA1UdIwQYMBaAFNMoQWQM
XH4Okw1WMKge9ihlAMr7MAoGA1UdFAQDAgEBMA0GCSqGSIb3DQEBBQUAA4GBAJea
y93omvMCljVTKXRphB/JR/UUcYrwMkJkrgaa7PEq4Upw1x4R/Ljym2s41hg3W3TX
vHjHnLE0wXaHTzFDJc6VUiPN0DjF8CaxE9HKK/Hh3+HnPmo+2VFgX2p4slADRTmV
QD0tOXuvl+MyXxT4qnCsSW1EHaws0vukXNXx1yNf
-----END X509 CRL-----

Certificate Revocation List (CRL):
        Version 2 (0x1)
        Signature Algorithm: sha1WithRSAEncryption
        Issuer: /C=US/O=Test Certificates/CN=Trust Anchor
        Last Update: Apr 19 14:57:20 2001 GMT
        Next Update: Apr 19 14:57:20 2011 GMT
        CRL extensions:
            X509v3 Authority Key Identifier: 
                keyid:FB:6C:D4:2D:81:9E:CA:27:7A:9E:0D:B0:3C:EA:9A:BC:87:FF:49:EA

            X509v3 CRL Number: 
                1
Revoked Certificates:
    Serial Number: 68
        Revocation Date: Apr 19 14:57:20 2001 GMT
        CRL entry extensions:
            X509v3 CRL Reason Code: 
                Key Compromise
    Signature Algorithm: sha1WithRSAEncryption
        92:12:c4:34:b4:92:ab:ba:71:6b:74:31:16:ce:ed:25:d6:4b:
        1e:fa:f8:20:1e:9d:d7:7f:30:ed:15:f7:8b:5d:64:9b:dd:31:
        40:e4:55:0f:0c:5f:82:69:63:00:76:a5:cf:9e:c4:5f:f2:53:
        9b:9b:7d:f5:69:1d:74:57:38:70:e5:fb:5b:76:58:c9:ec:31:
        dc:94:1b:02:ee:9d:33:9c:38:4b:29:1d:e1:0c:29:8b:6e:c7:
        bf:a0:e8:40:34:83:cf:ff:9f:cd:b5:f7:d9:4d:a7:9f:2e:bf:
        44:98:6b:f2:d3:fe:a8:20:31:c1:33:76:b7:1c:19:65:4d:b9:
        14:39
-----BEGIN X509 CRL-----
MIIBXTCBxwIBATANBgkqhkiG9w0BAQUFADBAMQswCQYDVQQGEwJVUzEaMBgGA1UE
ChMRVGVzdCBDZXJ0aWZpY2F0ZXMxFTATBgNVBAMTDFRydXN0IEFuY2hvchcNMDEw
NDE5MTQ1NzIwWhcNMTEwNDE5MTQ1NzIwWjAiMCACAWgXDTAxMDQxOTE0NTcyMFow
DDAKBgNVHRUEAwoBAaAvMC0wHwYDVR0jBBgwFoAU+2zULYGeyid6ng2wPOqavIf/
SeowCgYDVR0UBAMCAQEwDQYJKoZIhvcNAQEFBQADgYEAkhLENLSSq7pxa3QxFs7t
JdZLHvr4IB6d138w7RX3i11km90xQORVDwxfgmljAHalz57EX/JTm5t99WkddFc4
cOX7W3ZYyewx3JQbAu6dM5w4Sykd4Qwpi27Hv6DoQDSDz/+fzbX32U2nny6/RJhr
8tP+qCAxwTN2txwZZU25FDk=
-----END X509 CRL-----

