subject=/C=US/O=Test Certificates/CN=Valid Policy Mapping EE Certificate Test6
issuer=/C=US/O=Test Certificates/CN=P1 Mapping 1to234 subCA
-----BEGIN CERTIFICATE-----
MIICiTCCAfKgAwIBAgIBAjANBgkqhkiG9w0BAQUFADBLMQswCQYDVQQGEwJVUzEa
MBgGA1UEChMRVGVzdCBDZXJ0aWZpY2F0ZXMxIDAeBgNVBAMTF1AxIE1hcHBpbmcg
MXRvMjM0IHN1YkNBMB4XDTAxMDQxOTE0NTcyMFoXDTExMDQxOTE0NTcyMFowXTEL
MAkGA1UEBhMCVVMxGjAYBgNVBAoTEVRlc3QgQ2VydGlmaWNhdGVzMTIwMAYDVQQD
EylWYWxpZCBQb2xpY3kgTWFwcGluZyBFRSBDZXJ0aWZpY2F0ZSBUZXN0NjCBnzAN
BgkqhkiG9w0BAQEFAAOBjQAwgYkCgYEAg/jjf7HVRt6r4IitgA9kVxN6rVQy1OLQ
Kelr3lLXIJbXs7XYoUx53Br5c1SDdSaaRfvhKyMl7m53baO33b+MEeB8VfWHt/on
35CKtGtyDa/IbfzrrwwJqs0rF4H/t7Ngz1b5rrKaEjy4itjNylcyAzJC1Zjer8aJ
iXyszL9uGc8CAwEAAaNrMGkwHwYDVR0jBBgwFoAUrQ/vHBeBV326g+8R/4doc9Km
G5cwHQYDVR0OBBYEFOH+LaLyiRCW05OelA2Y/97NYu1gMA4GA1UdDwEB/wQEAwIE
8DAXBgNVHSAEEDAOMAwGCmCGSAFlAwIBMAUwDQYJKoZIhvcNAQEFBQADgYEAZStF
y/RNVE9ElY/wKLp8pdE/c4L9rucyOPSv/5zhGO4+GiiN39twvGjjMH3ziIauJpuM
rCb8q+3s22lzkD6/BSLyRNCXM7Mx5CGWDCdHqnkdFf1Ck9ddAG3hF8FkeKjlZ2MA
j1g2DpZezCE4srw5r+5mXw95piUHxvBxIXnBUJ0=
-----END CERTIFICATE-----

subject=/C=US/O=Test Certificates/CN=P1 Mapping 1to234 subCA
issuer=/C=US/O=Test Certificates/CN=P1 Mapping 1to234 CA
-----BEGIN CERTIFICATE-----
MIIC1zCCAkCgAwIBAgIBATANBgkqhkiG9w0BAQUFADBIMQswCQYDVQQGEwJVUzEa
MBgGA1UEChMRVGVzdCBDZXJ0aWZpY2F0ZXMxHTAbBgNVBAMTFFAxIE1hcHBpbmcg
MXRvMjM0IENBMB4XDTAxMDQxOTE0NTcyMFoXDTExMDQxOTE0NTcyMFowSzELMAkG
A1UEBhMCVVMxGjAYBgNVBAoTEVRlc3QgQ2VydGlmaWNhdGVzMSAwHgYDVQQDExdQ
MSBNYXBwaW5nIDF0bzIzNCBzdWJDQTCBnzANBgkqhkiG9w0BAQEFAAOBjQAwgYkC
gYEAuxzFRezTkAVZWZReelvBKELugXp5Eq7O4Ye839Rxl3p/kBRLWiFz+bsyeeMl
YKC2+df3mBhUm5dDtrttv+oGaGL4bquZgb6X5TNxSHDe/D+3BAyxbFn8Qfq642fP
QvmHsQYWtT+dP5NUxFpss8ElrWi0X2UEzb5ChUalSf2Vde8CAwEAAaOBzTCByjAf
BgNVHSMEGDAWgBTMp9HShu8hYwWY780byv/gRLPUkDAdBgNVHQ4EFgQUrQ/vHBeB
V326g+8R/4doc9KmG5cwDgYDVR0PAQH/BAQDAgEGMCUGA1UdIAQeMBwwDAYKYIZI
AWUDAgEwAjAMBgpghkgBZQMCATAEMEAGA1UdIQEB/wQ2MDQwGAYKYIZIAWUDAgEw
AgYKYIZIAWUDAgEwBTAYBgpghkgBZQMCATAEBgpghkgBZQMCATAGMA8GA1UdEwEB
/wQFMAMBAf8wDQYJKoZIhvcNAQEFBQADgYEACas+sr4fsuwRW8lWjQQH9NDBg4OC
4/j/2+haNy4neNyKBSFPg7g/HTOvalwVvR2OoEiVIdh2cLH4ELt3GVucJkB9Nimr
nV4trKBPR9Cy/UTVzDvDS9NW7FEyTWtlVbTEU4um4rvU+7HkmY4JjaEUbqrdFcRf
ho4KQe/QkE0wYcU=
-----END CERTIFICATE-----

subject=/C=US/O=Test Certificates/CN=P1 Mapping 1to234 CA
issuer=/C=US/O=Test Certificates/CN=Trust Anchor
-----BEGIN CERTIFICATE-----
MIIC5jCCAk+gAwIBAgIBMjANBgkqhkiG9w0BAQUFADBAMQswCQYDVQQGEwJVUzEa
MBgGA1UEChMRVGVzdCBDZXJ0aWZpY2F0ZXMxFTATBgNVBAMTDFRydXN0IEFuY2hv
cjAeFw0wMTA0MTkxNDU3MjBaFw0xMTA0MTkxNDU3MjBaMEgxCzAJBgNVBAYTAlVT
MRowGAYDVQQKExFUZXN0IENlcnRpZmljYXRlczEdMBsGA1UEAxMUUDEgTWFwcGlu
ZyAxdG8yMzQgQ0EwgZ8wDQYJKoZIhvcNAQEBBQADgY0AMIGJAoGBALkWaQEgKSf0
Z8Rv+4X37UP7SJyBJFbt6QzzxNxVnCwFX+0X5rL44rsZBya1cg8TN0BvQjpF7hKW
Ch5A0nARNvvI6cOBqQ5T2UryrVgzPb/dXebSy5e8afDUs8QqRB9dHb/m0AVC+hTd
mwlok2dgnsm+DdpTaKbgKWi/jjlr8H5BAgMBAAGjgecwgeQwHwYDVR0jBBgwFoAU
+2zULYGeyid6ng2wPOqavIf/SeowHQYDVR0OBBYEFMyn0dKG7yFjBZjvzRvK/+BE
s9SQMA4GA1UdDwEB/wQEAwIBBjAXBgNVHSAEEDAOMAwGCmCGSAFlAwIBMAEwWgYD
VR0hAQH/BFAwTjAYBgpghkgBZQMCATABBgpghkgBZQMCATACMBgGCmCGSAFlAwIB
MAEGCmCGSAFlAwIBMAMwGAYKYIZIAWUDAgEwAQYKYIZIAWUDAgEwBDAPBgNVHRMB
Af8EBTADAQH/MAwGA1UdJAQFMAOAAQAwDQYJKoZIhvcNAQEFBQADgYEAXs0UPa8a
gMe7mdH0Zuxlka5P2WW5U6NGJTaF88e0d2LNd0rKAIY54kVS6qWRSb4m3fD17BhB
HYeJt1wRTxJo/oSdKxOYY/2k1BQLH6HyqsgQsOq5V1KTBJSPsCVZxvw7i0dDtw4A
VH9jyKpEN4XcL3k1hYHJvBU1sH8g1sE6vLQ=
-----END CERTIFICATE-----

Certificate Revocation List (CRL):
        Version 2 (0x1)
        Signature Algorithm: sha1WithRSAEncryption
        Issuer: /C=US/O=Test Certificates/CN=P1 Mapping 1to234 CA
        Last Update: Apr 19 14:57:20 2001 GMT
        Next Update: Apr 19 14:57:20 2011 GMT
        CRL extensions:
            X509v3 Authority Key Identifier: 
                keyid:CC:A7:D1:D2:86:EF:21:63:05:98:EF:CD:1B:CA:FF:E0:44:B3:D4:90

            X509v3 CRL Number: 
                1
No Revoked Certificates.
    Signature Algorithm: sha1WithRSAEncryption
        45:0b:74:18:70:b6:d8:66:8a:81:70:d0:a9:21:e0:0b:b5:9d:
        71:45:a7:fd:df:50:ee:d6:38:4e:90:ea:eb:a8:84:6b:79:0c:
        64:6d:0a:4d:e0:36:20:6b:ec:c6:46:8f:13:13:99:18:21:e7:
        44:60:19:de:b4:f5:ea:7e:70:4b:b7:12:b8:4a:1f:5d:9b:b3:
        1d:cf:e4:54:5a:a1:8c:6b:ad:fd:51:f3:0c:96:c8:a6:7a:83:
        f2:a1:dc:3a:a9:84:f6:7f:8f:8e:3f:91:ee:ae:e3:85:9c:7f:
        44:b7:92:89:15:77:f3:b3:dc:13:fc:7e:87:0f:e0:d6:55:96:
        ee:83
-----BEGIN X509 CRL-----
MIIBQTCBqwIBATANBgkqhkiG9w0BAQUFADBIMQswCQYDVQQGEwJVUzEaMBgGA1UE
ChMRVGVzdCBDZXJ0aWZpY2F0ZXMxHTAbBgNVBAMTFFAxIE1hcHBpbmcgMXRvMjM0
IENBFw0wMTA0MTkxNDU3MjBaFw0xMTA0MTkxNDU3MjBaoC8wLTAfBgNVHSMEGDAW
gBTMp9HShu8hYwWY780byv/gRLPUkDAKBgNVHRQEAwIBATANBgkqhkiG9w0BAQUF
AAOBgQBFC3QYcLbYZoqBcNCpIeALtZ1xRaf931Du1jhOkOrrqIRreQxkbQpN4DYg
a+zGRo8TE5kYIedEYBnetPXqfnBLtxK4Sh9dm7Mdz+RUWqGMa639UfMMlsimeoPy
odw6qYT2f4+OP5HuruOFnH9Et5KJFXfzs9wT/H6HD+DWVZbugw==
-----END X509 CRL-----

Certificate Revocation List (CRL):
        Version 2 (0x1)
        Signature Algorithm: sha1WithRSAEncryption
        Issuer: /C=US/O=Test Certificates/CN=P1 Mapping 1to234 subCA
        Last Update: Apr 19 14:57:20 2001 GMT
        Next Update: Apr 19 14:57:20 2011 GMT
        CRL extensions:
            X509v3 Authority Key Identifier: 
                keyid:AD:0F:EF:1C:17:81:57:7D:BA:83:EF:11:FF:87:68:73:D2:A6:1B:97

            X509v3 CRL Number: 
                1
No Revoked Certificates.
    Signature Algorithm: sha1WithRSAEncryption
        33:53:2c:ad:0e:6e:e9:49:14:44:7d:de:5c:dc:4b:0e:57:35:
        35:18:f2:d9:4b:94:c6:38:1e:4e:33:a7:7e:6c:b4:b7:d2:72:
        46:03:28:4b:d5:ef:a3:9a:ca:16:33:03:ec:bf:cf:e9:8f:a4:
        4a:01:c5:e1:a6:0a:b7:4d:86:ee:08:93:ee:1b:da:ad:da:d7:
        cd:6a:da:95:eb:62:1f:13:19:30:8f:f5:33:22:fa:7b:2a:c3:
        7f:b8:ca:67:24:4e:f6:4e:0f:be:aa:31:23:42:eb:0d:76:9b:
        f0:64:24:95:f4:b8:62:7b:5e:14:24:fd:6f:6c:8e:82:b3:60:
        a9:c0
-----BEGIN X509 CRL-----
MIIBRDCBrgIBATANBgkqhkiG9w0BAQUFADBLMQswCQYDVQQGEwJVUzEaMBgGA1UE
ChMRVGVzdCBDZXJ0aWZpY2F0ZXMxIDAeBgNVBAMTF1AxIE1hcHBpbmcgMXRvMjM0
IHN1YkNBFw0wMTA0MTkxNDU3MjBaFw0xMTA0MTkxNDU3MjBaoC8wLTAfBgNVHSME
GDAWgBStD+8cF4FXfbqD7xH/h2hz0qYblzAKBgNVHRQEAwIBATANBgkqhkiG9w0B
AQUFAAOBgQAzUyytDm7pSRREfd5c3EsOVzU1GPLZS5TGOB5OM6d+bLS30nJGAyhL
1e+jmsoWMwPsv8/pj6RKAcXhpgq3TYbuCJPuG9qt2tfNatqV62IfExkwj/UzIvp7
KsN/uMpnJE72Tg++qjEjQusNdpvwZCSV9Lhie14UJP1vbI6Cs2CpwA==
-----END X509 CRL-----

Certificate Revocation List (CRL):
        Version 2 (0x1)
        Signature Algorithm: sha1WithRSAEncryption
        Issuer: /C=US/O=Test Certificates/CN=Trust Anchor
        Last Update: Apr 19 14:57:20 2001 GMT
        Next Update: Apr 19 14:57:20 2011 GMT
        CRL extensions:
            X509v3 Authority Key Identifier: 
                keyid:FB:6C:D4:2D:81:9E:CA:27:7A:9E:0D:B0:3C:EA:9A:BC:87:FF:49:EA

            X509v3 CRL Number: 
                1
Revoked Certificates:
    Serial Number: 68
        Revocation Date: Apr 19 14:57:20 2001 GMT
        CRL entry extensions:
            X509v3 CRL Reason Code: 
                Key Compromise
    Signature Algorithm: sha1WithRSAEncryption
        92:12:c4:34:b4:92:ab:ba:71:6b:74:31:16:ce:ed:25:d6:4b:
        1e:fa:f8:20:1e:9d:d7:7f:30:ed:15:f7:8b:5d:64:9b:dd:31:
        40:e4:55:0f:0c:5f:82:69:63:00:76:a5:cf:9e:c4:5f:f2:53:
        9b:9b:7d:f5:69:1d:74:57:38:70:e5:fb:5b:76:58:c9:ec:31:
        dc:94:1b:02:ee:9d:33:9c:38:4b:29:1d:e1:0c:29:8b:6e:c7:
        bf:a0:e8:40:34:83:cf:ff:9f:cd:b5:f7:d9:4d:a7:9f:2e:bf:
        44:98:6b:f2:d3:fe:a8:20:31:c1:33:76:b7:1c:19:65:4d:b9:
        14:39
-----BEGIN X509 CRL-----
MIIBXTCBxwIBATANBgkqhkiG9w0BAQUFADBAMQswCQYDVQQGEwJVUzEaMBgGA1UE
ChMRVGVzdCBDZXJ0aWZpY2F0ZXMxFTATBgNVBAMTDFRydXN0IEFuY2hvchcNMDEw
NDE5MTQ1NzIwWhcNMTEwNDE5MTQ1NzIwWjAiMCACAWgXDTAxMDQxOTE0NTcyMFow
DDAKBgNVHRUEAwoBAaAvMC0wHwYDVR0jBBgwFoAU+2zULYGeyid6ng2wPOqavIf/
SeowCgYDVR0UBAMCAQEwDQYJKoZIhvcNAQEFBQADgYEAkhLENLSSq7pxa3QxFs7t
JdZLHvr4IB6d138w7RX3i11km90xQORVDwxfgmljAHalz57EX/JTm5t99WkddFc4
cOX7W3ZYyewx3JQbAu6dM5w4Sykd4Qwpi27Hv6DoQDSDz/+fzbX32U2nny6/RJhr
8tP+qCAxwTN2txwZZU25FDk=
-----END X509 CRL-----

