subject=/C=US/O=Test Certificates/CN=Valid inhibitPolicyMapping EE Certificate Test4
issuer=/C=US/O=Test Certificates/CN=inhibitPolicyMapping1 P12 subsubCA
-----BEGIN CERTIFICATE-----
MIICmjCCAgOgAwIBAgIBAjANBgkqhkiG9w0BAQUFADBWMQswCQYDVQQGEwJVUzEa
MBgGA1UEChMRVGVzdCBDZXJ0aWZpY2F0ZXMxKzApBgNVBAMTImluaGliaXRQb2xp
Y3lNYXBwaW5nMSBQMTIgc3Vic3ViQ0EwHhcNMDEwNDE5MTQ1NzIwWhcNMTEwNDE5
MTQ1NzIwWjBjMQswCQYDVQQGEwJVUzEaMBgGA1UEChMRVGVzdCBDZXJ0aWZpY2F0
ZXMxODA2BgNVBAMTL1ZhbGlkIGluaGliaXRQb2xpY3lNYXBwaW5nIEVFIENlcnRp
ZmljYXRlIFRlc3Q0MIGfMA0GCSqGSIb3DQEBAQUAA4GNADCBiQKBgQDMMwNGdAJ0
vncWniYOninmdOvqbWTU+G3jPbZ4uJULmhWBvap0Hpq8RSJZ8wprenFgK2/epICj
uFtJZyEtG/3A8PZ3IHYNkWv7srclGdUlotObulycoDHBn9LXI+i/CvUNGvFJldlm
kQOxqy1Qhto5Gj7cVWa4HiEYfx+7HJPR2QIDAQABo2swaTAfBgNVHSMEGDAWgBRa
k0vvlp6uPkMWJqQYHnmLouabITAdBgNVHQ4EFgQUFgpn09iEBzTYWYmTqi0RWeEt
CfYwDgYDVR0PAQH/BAQDAgTwMBcGA1UdIAQQMA4wDAYKYIZIAWUDAgEwBDANBgkq
hkiG9w0BAQUFAAOBgQCCP6oScMpFs5Ak3jAfJkXhwpzciLdF1Mtq/SO8auu0mZ6a
CfrKh6JL5kshzKbZFbRYqkIidQNW42Iv4et3yLhWZvSVoYkP+EAg0dMs9/Arw2C1
pqRc5a2mgi1G182TWgEh9rMZDvYPdD+FrzZU55bLtSlt9L8o9y9vz6+dE2MrLQ==
-----END CERTIFICATE-----

subject=/C=US/O=Test Certificates/CN=inhibitPolicyMapping1 P12 CA
issuer=/C=US/O=Test Certificates/CN=Trust Anchor
-----BEGIN CERTIFICATE-----
MIICpjCCAg+gAwIBAgIBODANBgkqhkiG9w0BAQUFADBAMQswCQYDVQQGEwJVUzEa
MBgGA1UEChMRVGVzdCBDZXJ0aWZpY2F0ZXMxFTATBgNVBAMTDFRydXN0IEFuY2hv
cjAeFw0wMTA0MTkxNDU3MjBaFw0xMTA0MTkxNDU3MjBaMFAxCzAJBgNVBAYTAlVT
MRowGAYDVQQKExFUZXN0IENlcnRpZmljYXRlczElMCMGA1UEAxMcaW5oaWJpdFBv
bGljeU1hcHBpbmcxIFAxMiBDQTCBnzANBgkqhkiG9w0BAQEFAAOBjQAwgYkCgYEA
s4T6CQeTrbqUSlSczfx8iMSRK4ip9F4liS7giqCrZeZYEuP+/XoRZKzqmT3G+io6
zcenL7cegP9DJnTNuZ1nHEoeJTlhQZq00PD1n33OMK0zhMIirByYBpabztuw1dJ0
MKKcRzJ1AswgccI8seh2W1FXdFo/vGkDOkcD21Se0XUCAwEAAaOBnzCBnDAfBgNV
HSMEGDAWgBT7bNQtgZ7KJ3qeDbA86pq8h/9J6jAdBgNVHQ4EFgQUj3Ywg1+jhUuQ
FB4GBHs3AQUgJmYwDgYDVR0PAQH/BAQDAgEGMCUGA1UdIAQeMBwwDAYKYIZIAWUD
AgEwATAMBgpghkgBZQMCATACMA8GA1UdEwEB/wQFMAMBAf8wEgYDVR0kAQH/BAgw
BoABAIEBATANBgkqhkiG9w0BAQUFAAOBgQCXSeQ5mEkpmqCHstAZJbAGVSNrj3ka
eA0k2v+n7vDeZ+9F8bByDiBBz3RMTqmdZxQ6zroOPsw66HLxv5D7oJImbhyvFrnN
uxPGh8hvvP67N7UT9cM0RAoIQHmoI+3+o9cqOnTIJWXXPyq5q08yTrUt1lzFyrcK
wGB7PyQXRRDWjA==
-----END CERTIFICATE-----

subject=/C=US/O=Test Certificates/CN=inhibitPolicyMapping1 P12 subsubCA
issuer=/C=US/O=Test Certificates/CN=inhibitPolicyMapping1 P12 subCA
-----BEGIN CERTIFICATE-----
MIIC0zCCAjygAwIBAgIBAjANBgkqhkiG9w0BAQUFADBTMQswCQYDVQQGEwJVUzEa
MBgGA1UEChMRVGVzdCBDZXJ0aWZpY2F0ZXMxKDAmBgNVBAMTH2luaGliaXRQb2xp
Y3lNYXBwaW5nMSBQMTIgc3ViQ0EwHhcNMDEwNDE5MTQ1NzIwWhcNMTEwNDE5MTQ1
NzIwWjBWMQswCQYDVQQGEwJVUzEaMBgGA1UEChMRVGVzdCBDZXJ0aWZpY2F0ZXMx
KzApBgNVBAMTImluaGliaXRQb2xpY3lNYXBwaW5nMSBQMTIgc3Vic3ViQ0EwgZ8w
DQYJKoZIhvcNAQEBBQADgY0AMIGJAoGBAJiRgbTlXD7Tr33rE8bkM1fLhA/0RcC0
n6UIcVb6xSELqRqVIpXK2C038i/3Ta6+eoiCdjT6kvQwsM9uMBJnB7uePzDzpkSE
G3Php6MSbnAO+6LPrGFBJ0LNo6yXvsV3HQ1Uwh8iND8Yt37obPJ05PzfU6hSnMgV
47YDMrmE5h+5AgMBAAGjgbMwgbAwHwYDVR0jBBgwFoAUF3qKMAb26lw2QA2u2J+/
ub2CzFIwHQYDVR0OBBYEFFqTS++Wnq4+QxYmpBgeeYui5pshMA4GA1UdDwEB/wQE
AwIBBjAlBgNVHSAEHjAcMAwGCmCGSAFlAwIBMAMwDAYKYIZIAWUDAgEwBDAmBgNV
HSEBAf8EHDAaMBgGCmCGSAFlAwIBMAMGCmCGSAFlAwIBMAUwDwYDVR0TAQH/BAUw
AwEB/zANBgkqhkiG9w0BAQUFAAOBgQCh/ZM7m2L0OxzF6RXxeVUhY5xlTjRO0HGd
0xOnDkOesSYfCI4gUflMo6/T9Ot67Vnb9mgzwWSEXB6g2R22/3DVR1ord/UgZFKe
w4llbMnwRS5e3zjqLGsLeWk2ZdyjoD2vmKiFBiX+rlHvaLk+5xYcGEfOupTVqWMO
OHuz9iinWQ==
-----END CERTIFICATE-----

subject=/C=US/O=Test Certificates/CN=inhibitPolicyMapping1 P12 subCA
issuer=/C=US/O=Test Certificates/CN=inhibitPolicyMapping1 P12 CA
-----BEGIN CERTIFICATE-----
MIIC5zCCAlCgAwIBAgIBATANBgkqhkiG9w0BAQUFADBQMQswCQYDVQQGEwJVUzEa
MBgGA1UEChMRVGVzdCBDZXJ0aWZpY2F0ZXMxJTAjBgNVBAMTHGluaGliaXRQb2xp
Y3lNYXBwaW5nMSBQMTIgQ0EwHhcNMDEwNDE5MTQ1NzIwWhcNMTEwNDE5MTQ1NzIw
WjBTMQswCQYDVQQGEwJVUzEaMBgGA1UEChMRVGVzdCBDZXJ0aWZpY2F0ZXMxKDAm
BgNVBAMTH2luaGliaXRQb2xpY3lNYXBwaW5nMSBQMTIgc3ViQ0EwgZ8wDQYJKoZI
hvcNAQEBBQADgY0AMIGJAoGBAMX6LszkJcSryGVxfI4egJDv3zFztB0M+jGHKEc8
uPkbpVlPSjM2LWqUOks/C1q34lfaC6J5O+V3/DmN7GjLpJmdjBDn7k/aqGeE7XHR
Wns707M/rcEWxPP/ErMQNIsqSkvy92GtwuaG7wsY4a+KyB0YCdqikJr6oK2Cvhwf
LmC1AgMBAAGjgc0wgcowHwYDVR0jBBgwFoAUj3Ywg1+jhUuQFB4GBHs3AQUgJmYw
HQYDVR0OBBYEFBd6ijAG9upcNkANrtifv7m9gsxSMA4GA1UdDwEB/wQEAwIBBjAl
BgNVHSAEHjAcMAwGCmCGSAFlAwIBMAEwDAYKYIZIAWUDAgEwAjBABgNVHSEBAf8E
NjA0MBgGCmCGSAFlAwIBMAEGCmCGSAFlAwIBMAMwGAYKYIZIAWUDAgEwAgYKYIZI
AWUDAgEwBDAPBgNVHRMBAf8EBTADAQH/MA0GCSqGSIb3DQEBBQUAA4GBAE3ZflJR
6b/Pwip7bO1ZIkiym+8uTzlT5nx3CF4P5Yyhje4VKVqoAOdljbZoaL5x1Zdd733W
MxbQk/QP+wziLjZJlnqX+lSxg4wUiSU6mGtDJ1rPwMsbiiVBld7iP5JhFAWoTg0b
XJ0ZSTHABPtNeMg2desSHwfh2I5WtX3hpXwE
-----END CERTIFICATE-----

Certificate Revocation List (CRL):
        Version 2 (0x1)
        Signature Algorithm: sha1WithRSAEncryption
        Issuer: /C=US/O=Test Certificates/CN=inhibitPolicyMapping1 P12 CA
        Last Update: Apr 19 14:57:20 2001 GMT
        Next Update: Apr 19 14:57:20 2011 GMT
        CRL extensions:
            X509v3 Authority Key Identifier: 
                keyid:8F:76:30:83:5F:A3:85:4B:90:14:1E:06:04:7B:37:01:05:20:26:66

            X509v3 CRL Number: 
                1
No Revoked Certificates.
    Signature Algorithm: sha1WithRSAEncryption
        1f:20:b6:9f:f6:68:a0:22:5f:24:73:c0:ac:bc:8b:05:86:58:
        7b:97:ad:38:8e:70:61:7c:17:9d:38:21:06:0a:72:b5:41:3c:
        b6:9a:93:77:6f:e3:15:e6:06:74:67:90:b1:95:56:f2:be:52:
        21:6a:de:f7:bf:d9:2c:12:11:9d:dc:f9:ba:46:f9:92:24:75:
        ef:83:af:a2:8b:3a:79:da:ca:c5:72:a4:7b:19:e1:a2:f7:02:
        18:92:eb:a6:1b:74:bc:ba:62:51:d6:9f:69:af:20:34:3d:43:
        08:e7:15:da:75:79:b7:81:6e:ae:95:08:cb:7d:e0:3a:50:7e:
        c1:7e
-----BEGIN X509 CRL-----
MIIBSTCBswIBATANBgkqhkiG9w0BAQUFADBQMQswCQYDVQQGEwJVUzEaMBgGA1UE
ChMRVGVzdCBDZXJ0aWZpY2F0ZXMxJTAjBgNVBAMTHGluaGliaXRQb2xpY3lNYXBw
aW5nMSBQMTIgQ0EXDTAxMDQxOTE0NTcyMFoXDTExMDQxOTE0NTcyMFqgLzAtMB8G
A1UdIwQYMBaAFI92MINfo4VLkBQeBgR7NwEFICZmMAoGA1UdFAQDAgEBMA0GCSqG
SIb3DQEBBQUAA4GBAB8gtp/2aKAiXyRzwKy8iwWGWHuXrTiOcGF8F504IQYKcrVB
PLaak3dv4xXmBnRnkLGVVvK+UiFq3ve/2SwSEZ3c+bpG+ZIkde+Dr6KLOnnaysVy
pHsZ4aL3AhiS66YbdLy6YlHWn2mvIDQ9QwjnFdp1ebeBbq6VCMt94DpQfsF+
-----END X509 CRL-----

Certificate Revocation List (CRL):
        Version 2 (0x1)
        Signature Algorithm: sha1WithRSAEncryption
        Issuer: /C=US/O=Test Certificates/CN=inhibitPolicyMapping1 P12 subCA
        Last Update: Apr 19 14:57:20 2001 GMT
        Next Update: Apr 19 14:57:20 2011 GMT
        CRL extensions:
            X509v3 Authority Key Identifier: 
                keyid:17:7A:8A:30:06:F6:EA:5C:36:40:0D:AE:D8:9F:BF:B9:BD:82:CC:52

            X509v3 CRL Number: 
                1
No Revoked Certificates.
    Signature Algorithm: sha1WithRSAEncryption
        01:73:17:d4:24:e8:3a:79:6d:9c:a4:96:74:fd:60:fa:65:82:
        c6:0a:26:9c:64:d6:f8:c5:01:8e:ce:70:b2:a4:1a:a0:1c:41:
        df:1e:a2:36:1b:4f:2d:56:6f:ef:e2:fb:e7:84:d3:aa:0c:08:
        04:44:67:57:88:8b:34:b1:74:8c:57:96:9b:e2:b7:dc:2e:d4:
        a3:05:41:bb:24:fa:be:2c:a4:cf:be:0a:aa:8d:64:ff:6f:ee:
        e1:24:c8:06:8e:15:fb:fd:19:fe:92:d6:55:84:ae:71:58:2c:
        6a:65:53:34:39:20:43:1a:5b:20:41:81:00:6c:5c:10:25:b0:
        3f:f3
-----BEGIN X509 CRL-----
MIIBTDCBtgIBATANBgkqhkiG9w0BAQUFADBTMQswCQYDVQQGEwJVUzEaMBgGA1UE
ChMRVGVzdCBDZXJ0aWZpY2F0ZXMxKDAmBgNVBAMTH2luaGliaXRQb2xpY3lNYXBw
aW5nMSBQMTIgc3ViQ0EXDTAxMDQxOTE0NTcyMFoXDTExMDQxOTE0NTcyMFqgLzAt
MB8GA1UdIwQYMBaAFBd6ijAG9upcNkANrtifv7m9gsxSMAoGA1UdFAQDAgEBMA0G
CSqGSIb3DQEBBQUAA4GBAAFzF9Qk6Dp5bZyklnT9YPplgsYKJpxk1vjFAY7OcLKk
GqAcQd8eojYbTy1Wb+/i++eE06oMCAREZ1eIizSxdIxXlpvit9wu1KMFQbsk+r4s
pM++CqqNZP9v7uEkyAaOFfv9Gf6S1lWErnFYLGplUzQ5IEMaWyBBgQBsXBAlsD/z
-----END X509 CRL-----

Certificate Revocation List (CRL):
        Version 2 (0x1)
        Signature Algorithm: sha1WithRSAEncryption
        Issuer: /C=US/O=Test Certificates/CN=inhibitPolicyMapping1 P12 subsubCA
        Last Update: Apr 19 14:57:20 2001 GMT
        Next Update: Apr 19 14:57:20 2011 GMT
        CRL extensions:
            X509v3 Authority Key Identifier: 
                keyid:5A:93:4B:EF:96:9E:AE:3E:43:16:26:A4:18:1E:79:8B:A2:E6:9B:21

            X509v3 CRL Number: 
                1
No Revoked Certificates.
    Signature Algorithm: sha1WithRSAEncryption
        64:90:80:33:7a:e3:e8:e4:66:09:4e:4d:1d:ae:cb:f4:f5:b2:
        ea:4d:48:24:be:04:8f:39:9e:c1:da:6c:14:fa:0a:a5:be:47:
        84:19:27:c0:3e:15:ab:18:78:71:0e:93:e7:6e:c8:05:ea:f2:
        bd:c3:7b:fc:52:04:be:fc:b2:22:80:81:35:b3:ab:57:7b:23:
        ca:39:66:ed:47:19:cd:1f:2c:ab:14:4a:28:5d:23:ab:24:7b:
        e3:51:bb:78:79:05:20:25:ff:13:4f:c5:d1:2c:e1:67:b3:e4:
        29:35:2b:1c:5e:aa:01:17:aa:49:bb:04:66:52:a3:1a:7c:0b:
        f5:57
-----BEGIN X509 CRL-----
MIIBTzCBuQIBATANBgkqhkiG9w0BAQUFADBWMQswCQYDVQQGEwJVUzEaMBgGA1UE
ChMRVGVzdCBDZXJ0aWZpY2F0ZXMxKzApBgNVBAMTImluaGliaXRQb2xpY3lNYXBw
aW5nMSBQMTIgc3Vic3ViQ0EXDTAxMDQxOTE0NTcyMFoXDTExMDQxOTE0NTcyMFqg
LzAtMB8GA1UdIwQYMBaAFFqTS++Wnq4+QxYmpBgeeYui5pshMAoGA1UdFAQDAgEB
MA0GCSqGSIb3DQEBBQUAA4GBAGSQgDN64+jkZglOTR2uy/T1supNSCS+BI85nsHa
bBT6CqW+R4QZJ8A+FasYeHEOk+duyAXq8r3De/xSBL78siKAgTWzq1d7I8o5Zu1H
Gc0fLKsUSihdI6ske+NRu3h5BSAl/xNPxdEs4Wez5Ck1KxxeqgEXqkm7BGZSoxp8
C/VX
-----END X509 CRL-----

Certificate Revocation List (CRL):
        Version 2 (0x1)
        Signature Algorithm: sha1WithRSAEncryption
        Issuer: /C=US/O=Test Certificates/CN=Trust Anchor
        Last Update: Apr 19 14:57:20 2001 GMT
        Next Update: Apr 19 14:57:20 2011 GMT
        CRL extensions:
            X509v3 Authority Key Identifier: 
                keyid:FB:6C:D4:2D:81:9E:CA:27:7A:9E:0D:B0:3C:EA:9A:BC:87:FF:49:EA

            X509v3 CRL Number: 
                1
Revoked Certificates:
    Serial Number: 68
        Revocation Date: Apr 19 14:57:20 2001 GMT
        CRL entry extensions:
            X509v3 CRL Reason Code: 
                Key Compromise
    Signature Algorithm: sha1WithRSAEncryption
        92:12:c4:34:b4:92:ab:ba:71:6b:74:31:16:ce:ed:25:d6:4b:
        1e:fa:f8:20:1e:9d:d7:7f:30:ed:15:f7:8b:5d:64:9b:dd:31:
        40:e4:55:0f:0c:5f:82:69:63:00:76:a5:cf:9e:c4:5f:f2:53:
        9b:9b:7d:f5:69:1d:74:57:38:70:e5:fb:5b:76:58:c9:ec:31:
        dc:94:1b:02:ee:9d:33:9c:38:4b:29:1d:e1:0c:29:8b:6e:c7:
        bf:a0:e8:40:34:83:cf:ff:9f:cd:b5:f7:d9:4d:a7:9f:2e:bf:
        44:98:6b:f2:d3:fe:a8:20:31:c1:33:76:b7:1c:19:65:4d:b9:
        14:39
-----BEGIN X509 CRL-----
MIIBXTCBxwIBATANBgkqhkiG9w0BAQUFADBAMQswCQYDVQQGEwJVUzEaMBgGA1UE
ChMRVGVzdCBDZXJ0aWZpY2F0ZXMxFTATBgNVBAMTDFRydXN0IEFuY2hvchcNMDEw
NDE5MTQ1NzIwWhcNMTEwNDE5MTQ1NzIwWjAiMCACAWgXDTAxMDQxOTE0NTcyMFow
DDAKBgNVHRUEAwoBAaAvMC0wHwYDVR0jBBgwFoAU+2zULYGeyid6ng2wPOqavIf/
SeowCgYDVR0UBAMCAQEwDQYJKoZIhvcNAQEFBQADgYEAkhLENLSSq7pxa3QxFs7t
JdZLHvr4IB6d138w7RX3i11km90xQORVDwxfgmljAHalz57EX/JTm5t99WkddFc4
cOX7W3ZYyewx3JQbAu6dM5w4Sykd4Qwpi27Hv6DoQDSDz/+fzbX32U2nny6/RJhr
8tP+qCAxwTN2txwZZU25FDk=
-----END X509 CRL-----

