subject=/C=US/O=Test Certificates/CN=nameConstraints RFC822 CA2
issuer=/C=US/O=Test Certificates/CN=Trust Anchor
-----BEGIN CERTIFICATE-----
MIICqjCCAhOgAwIBAgIBRDANBgkqhkiG9w0BAQUFADBAMQswCQYDVQQGEwJVUzEa
MBgGA1UEChMRVGVzdCBDZXJ0aWZpY2F0ZXMxFTATBgNVBAMTDFRydXN0IEFuY2hv
cjAeFw0wMTA0MTkxNDU3MjBaFw0xMTA0MTkxNDU3MjBaME4xCzAJBgNVBAYTAlVT
MRowGAYDVQQKExFUZXN0IENlcnRpZmljYXRlczEjMCEGA1UEAxMabmFtZUNvbnN0
cmFpbnRzIFJGQzgyMiBDQTIwgZ8wDQYJKoZIhvcNAQEBBQADgY0AMIGJAoGBAMPZ
S8+5+/2AgG2N8tsByPeKGxCC5bOrNXho0b3fSjvK452P3luNUPIf46KvIBU6UYAP
4rGMqcUdmgFD+PdXq6TMW8bWNuYRICw6c6ni5uyre5bovptoJCsmBw/IqinDoqbO
Qyoq0YDltds+lSROlTUCA/7qOBHOdwpcjhVfYJSJAgMBAAGjgaUwgaIwHwYDVR0j
BBgwFoAU+2zULYGeyid6ng2wPOqavIf/SeowHQYDVR0OBBYEFBQbKzZmdEuTqzFV
h6QxqzZjbzXJMA4GA1UdDwEB/wQEAwIBBjAXBgNVHSAEEDAOMAwGCmCGSAFlAwIB
MAEwDwYDVR0TAQH/BAUwAwEB/zAmBgNVHR4BAf8EHDAaoBgwFoEUdGVzdGNlcnRp
ZmljYXRlcy5nb3YwDQYJKoZIhvcNAQEFBQADgYEAsOYxl05xGFDRHUO8Myp9EM/X
ahfChzUabmgo1Tqpk+TLbxcZw+GfesxOp+jCd7jtTBJKhB0HeX1vaCVUpURbWEAt
fuE35slQQr/c9dgwCw/JwBNdkFFT2z/73nDEN96rUK3GYs2OO8OJVMqdKb4iBUxH
M/bZyCy4CB3+hthr4to=
-----END CERTIFICATE-----

subject=/C=US/O=Test Certificates/CN=Valid RFC822 nameConstraints EE Certificate Test23
issuer=/C=US/O=Test Certificates/CN=nameConstraints RFC822 CA2
-----BEGIN CERTIFICATE-----
MIICwTCCAiqgAwIBAgIBATANBgkqhkiG9w0BAQUFADBOMQswCQYDVQQGEwJVUzEa
MBgGA1UEChMRVGVzdCBDZXJ0aWZpY2F0ZXMxIzAhBgNVBAMTGm5hbWVDb25zdHJh
aW50cyBSRkM4MjIgQ0EyMB4XDTAxMDQxOTE0NTcyMFoXDTExMDQxOTE0NTcyMFow
ZjELMAkGA1UEBhMCVVMxGjAYBgNVBAoTEVRlc3QgQ2VydGlmaWNhdGVzMTswOQYD
VQQDEzJWYWxpZCBSRkM4MjIgbmFtZUNvbnN0cmFpbnRzIEVFIENlcnRpZmljYXRl
IFRlc3QyMzCBnzANBgkqhkiG9w0BAQEFAAOBjQAwgYkCgYEAo+cdyq6LQoFUo5dS
h+bsp1TvEaw5776yXg8bXkMcTO+fJGshnWYoTUk7mQwcFnYm5+dQzSLHZTh9dgR5
5m9ZSKGfmbnSINvGuU7oo9cqEwKrCRzqj/X6MUoyaxQyDW/ft2mTXpPCGrzDaF/S
52lsNu/rubHKKmmb4EaoVJaWHUMCAwEAAaOBljCBkzAfBgNVHSMEGDAWgBQUGys2
ZnRLk6sxVYekMas2Y281yTAdBgNVHQ4EFgQUDEZstH+dSCRcJPrmvd6knN2jPfIw
DgYDVR0PAQH/BAQDAgTwMBcGA1UdIAQQMA4wDAYKYIZIAWUDAgEwATAoBgNVHREE
ITAfgR1UZXN0MjNFRUB0ZXN0Y2VydGlmaWNhdGVzLmdvdjANBgkqhkiG9w0BAQUF
AAOBgQB4NROaQv0DDKJDl5t44LQ0cosk4/w98WmDCkXF7RVxhFFMApnHJBOQlEPQ
CnC/fGcChW/KnYKsDnCSAPJiq4D15SYa9EVMa1rw7wCotCVbvjfJezZrheKmMj0Z
nxIJIutwJ6pOY3gjJRxCRNx18S1u0vhD93uN36wKM1cuWaA+8A==
-----END CERTIFICATE-----

Certificate Revocation List (CRL):
        Version 2 (0x1)
        Signature Algorithm: sha1WithRSAEncryption
        Issuer: /C=US/O=Test Certificates/CN=nameConstraints RFC822 CA2
        Last Update: Apr 19 14:57:20 2001 GMT
        Next Update: Apr 19 14:57:20 2011 GMT
        CRL extensions:
            X509v3 Authority Key Identifier: 
                keyid:14:1B:2B:36:66:74:4B:93:AB:31:55:87:A4:31:AB:36:63:6F:35:C9

            X509v3 CRL Number: 
                1
No Revoked Certificates.
    Signature Algorithm: sha1WithRSAEncryption
        47:93:cd:d6:9b:31:b0:dd:6a:d8:c4:e2:5e:3a:73:cd:2b:69:
        5c:47:1a:75:56:6b:56:1c:a4:2f:c2:66:4c:6b:a4:9a:86:53:
        fb:26:39:3e:61:d2:14:1b:85:1e:9c:f0:1e:ac:c8:c1:73:a5:
        c3:29:1c:c6:12:21:08:4c:4a:5a:d6:1d:21:4e:eb:7d:16:14:
        a4:a8:18:07:2e:e9:31:ef:39:ce:f8:6e:2b:d7:09:c1:ad:be:
        6a:c3:d8:46:24:95:12:ea:cf:2c:c6:84:50:bf:78:31:91:79:
        35:8c:02:47:d1:11:0d:aa:55:34:22:d6:d4:a2:ac:be:b8:07:
        60:3c
-----BEGIN X509 CRL-----
MIIBRzCBsQIBATANBgkqhkiG9w0BAQUFADBOMQswCQYDVQQGEwJVUzEaMBgGA1UE
ChMRVGVzdCBDZXJ0aWZpY2F0ZXMxIzAhBgNVBAMTGm5hbWVDb25zdHJhaW50cyBS
RkM4MjIgQ0EyFw0wMTA0MTkxNDU3MjBaFw0xMTA0MTkxNDU3MjBaoC8wLTAfBgNV
HSMEGDAWgBQUGys2ZnRLk6sxVYekMas2Y281yTAKBgNVHRQEAwIBATANBgkqhkiG
9w0BAQUFAAOBgQBHk83WmzGw3WrYxOJeOnPNK2lcRxp1VmtWHKQvwmZMa6SahlP7
Jjk+YdIUG4UenPAerMjBc6XDKRzGEiEITEpa1h0hTut9FhSkqBgHLukx7znO+G4r
1wnBrb5qw9hGJJUS6s8sxoRQv3gxkXk1jAJH0RENqlU0ItbUoqy+uAdgPA==
-----END X509 CRL-----

Certificate Revocation List (CRL):
        Version 2 (0x1)
        Signature Algorithm: sha1WithRSAEncryption
        Issuer: /C=US/O=Test Certificates/CN=Trust Anchor
        Last Update: Apr 19 14:57:20 2001 GMT
        Next Update: Apr 19 14:57:20 2011 GMT
        CRL extensions:
            X509v3 Authority Key Identifier: 
                keyid:FB:6C:D4:2D:81:9E:CA:27:7A:9E:0D:B0:3C:EA:9A:BC:87:FF:49:EA

            X509v3 CRL Number: 
                1
Revoked Certificates:
    Serial Number: 68
        Revocation Date: Apr 19 14:57:20 2001 GMT
        CRL entry extensions:
            X509v3 CRL Reason Code: 
                Key Compromise
    Signature Algorithm: sha1WithRSAEncryption
        92:12:c4:34:b4:92:ab:ba:71:6b:74:31:16:ce:ed:25:d6:4b:
        1e:fa:f8:20:1e:9d:d7:7f:30:ed:15:f7:8b:5d:64:9b:dd:31:
        40:e4:55:0f:0c:5f:82:69:63:00:76:a5:cf:9e:c4:5f:f2:53:
        9b:9b:7d:f5:69:1d:74:57:38:70:e5:fb:5b:76:58:c9:ec:31:
        dc:94:1b:02:ee:9d:33:9c:38:4b:29:1d:e1:0c:29:8b:6e:c7:
        bf:a0:e8:40:34:83:cf:ff:9f:cd:b5:f7:d9:4d:a7:9f:2e:bf:
        44:98:6b:f2:d3:fe:a8:20:31:c1:33:76:b7:1c:19:65:4d:b9:
        14:39
-----BEGIN X509 CRL-----
MIIBXTCBxwIBATANBgkqhkiG9w0BAQUFADBAMQswCQYDVQQGEwJVUzEaMBgGA1UE
ChMRVGVzdCBDZXJ0aWZpY2F0ZXMxFTATBgNVBAMTDFRydXN0IEFuY2hvchcNMDEw
NDE5MTQ1NzIwWhcNMTEwNDE5MTQ1NzIwWjAiMCACAWgXDTAxMDQxOTE0NTcyMFow
DDAKBgNVHRUEAwoBAaAvMC0wHwYDVR0jBBgwFoAU+2zULYGeyid6ng2wPOqavIf/
SeowCgYDVR0UBAMCAQEwDQYJKoZIhvcNAQEFBQADgYEAkhLENLSSq7pxa3QxFs7t
JdZLHvr4IB6d138w7RX3i11km90xQORVDwxfgmljAHalz57EX/JTm5t99WkddFc4
cOX7W3ZYyewx3JQbAu6dM5w4Sykd4Qwpi27Hv6DoQDSDz/+fzbX32U2nny6/RJhr
8tP+qCAxwTN2txwZZU25FDk=
-----END X509 CRL-----

