subject=/C=US/O=Test Certificates/CN=pathLenConstraint6 CA
issuer=/C=US/O=Test Certificates/CN=Trust Anchor
-----BEGIN CERTIFICATE-----
MIICfjCCAeegAwIBAgIBGzANBgkqhkiG9w0BAQUFADBAMQswCQYDVQQGEwJVUzEa
MBgGA1UEChMRVGVzdCBDZXJ0aWZpY2F0ZXMxFTATBgNVBAMTDFRydXN0IEFuY2hv
cjAeFw0wMTA0MTkxNDU3MjBaFw0xMTA0MTkxNDU3MjBaMEkxCzAJBgNVBAYTAlVT
MRowGAYDVQQKExFUZXN0IENlcnRpZmljYXRlczEeMBwGA1UEAxMVcGF0aExlbkNv
bnN0cmFpbnQ2IENBMIGfMA0GCSqGSIb3DQEBAQUAA4GNADCBiQKBgQDbfycd4Ehd
RlHiRJp0MMk0H94GHYCYxpVEzfiC5V9w2M0NWJotHuHxdTvH02XZquFdQptZI0qZ
AGeBgE3+FBJAGOK0ZxYJgSyscFWBTLGzFZu2Y09siuEwlr5W4z6iByJpFYsEK0JS
icx7LPYOYyHmFpmDSdcUXwV59VWlaQn5HQIDAQABo38wfTAfBgNVHSMEGDAWgBT7
bNQtgZ7KJ3qeDbA86pq8h/9J6jAdBgNVHQ4EFgQUnY+0pLeirrl2tR7LH2QWpXoO
hUowDgYDVR0PAQH/BAQDAgEGMBcGA1UdIAQQMA4wDAYKYIZIAWUDAgEwATASBgNV
HRMBAf8ECDAGAQH/AgEGMA0GCSqGSIb3DQEBBQUAA4GBAKJlZqSQSA4tpA42dNOs
k5r0RU2BrRu2bPXhSEZHD0o46NJlNTNTfCAus4HtZ6GE1AvTIy3smHPGb1O4jth2
9hYXVqNHIEIlejhxgSE0trBBT5L5vodq5Pu5qoTWPZ2Uu8pdqRvdmypKr7gI5inp
Cu6s2eBv0+DeibQTg73sQuTj
-----END CERTIFICATE-----

subject=/C=US/O=Test Certificates/CN=pathLenConstraint6 subCA4
issuer=/C=US/O=Test Certificates/CN=pathLenConstraint6 CA
-----BEGIN CERTIFICATE-----
MIICizCCAfSgAwIBAgIBAzANBgkqhkiG9w0BAQUFADBJMQswCQYDVQQGEwJVUzEa
MBgGA1UEChMRVGVzdCBDZXJ0aWZpY2F0ZXMxHjAcBgNVBAMTFXBhdGhMZW5Db25z
dHJhaW50NiBDQTAeFw0wMTA0MTkxNDU3MjBaFw0xMTA0MTkxNDU3MjBaME0xCzAJ
BgNVBAYTAlVTMRowGAYDVQQKExFUZXN0IENlcnRpZmljYXRlczEiMCAGA1UEAxMZ
cGF0aExlbkNvbnN0cmFpbnQ2IHN1YkNBNDCBnzANBgkqhkiG9w0BAQEFAAOBjQAw
gYkCgYEAvfifKseM6a2SLDsRFhGp/REqaFlx95O6qTUy4GtxendIFOtyadcv+Krt
MtbMq5gpTipTi88pg9PZJgu5WNbNCBTw9a4LVmuK7vW7+qc4vKAiHMx1C36i+M/u
xAyxABnaB/+3GuTXBVh2UaFyc0y742BlOGiJQec4j12Ympn+/D8CAwEAAaN/MH0w
HwYDVR0jBBgwFoAUnY+0pLeirrl2tR7LH2QWpXoOhUowHQYDVR0OBBYEFEg0CFSm
7E/ZmBQh7NRjsSNv7Xk+MA4GA1UdDwEB/wQEAwIBBjAXBgNVHSAEEDAOMAwGCmCG
SAFlAwIBMAEwEgYDVR0TAQH/BAgwBgEB/wIBBDANBgkqhkiG9w0BAQUFAAOBgQBH
GNn47Kmou/bb4DJqEWK0rYy18Luf89VyfaGcLrRx55hJopWTol/7VNHK/PcEcYZR
FvrRx3+j/FmPw7KdZhr7vswlOw+Al6Izo2NpTdI71n9v0mWk0aMnagaU1/HhVCo0
MFmjWB6hXagaUlj7PMUGxJhJDLGVxim5OsTKsDyQsA==
-----END CERTIFICATE-----

subject=/C=US/O=Test Certificates/CN=pathLenConstraint6 subsubCA41
issuer=/C=US/O=Test Certificates/CN=pathLenConstraint6 subCA4
-----BEGIN CERTIFICATE-----
MIICkzCCAfygAwIBAgIBATANBgkqhkiG9w0BAQUFADBNMQswCQYDVQQGEwJVUzEa
MBgGA1UEChMRVGVzdCBDZXJ0aWZpY2F0ZXMxIjAgBgNVBAMTGXBhdGhMZW5Db25z
dHJhaW50NiBzdWJDQTQwHhcNMDEwNDE5MTQ1NzIwWhcNMTEwNDE5MTQ1NzIwWjBR
MQswCQYDVQQGEwJVUzEaMBgGA1UEChMRVGVzdCBDZXJ0aWZpY2F0ZXMxJjAkBgNV
BAMTHXBhdGhMZW5Db25zdHJhaW50NiBzdWJzdWJDQTQxMIGfMA0GCSqGSIb3DQEB
AQUAA4GNADCBiQKBgQDEkec8+m6bpWo+4WFbIZq5Ex3/ooPS1Ag0V67MSbWUopjA
ZSFFn1jMVuyJwvVJcWhm60beqAFCWAgdUw39yw1AH1ZjF80S0i7gOs1ecJOgcJlH
l12ROKtYyawcnvh97Riu5uNhddo7GNP8imgxuTm+KCMgA2Yje/3+s+kkJGrmmQID
AQABo38wfTAfBgNVHSMEGDAWgBRINAhUpuxP2ZgUIezUY7Ejb+15PjAdBgNVHQ4E
FgQUxsXdPdf7dENAydCq5aEK1oE0ihEwDgYDVR0PAQH/BAQDAgEGMBcGA1UdIAQQ
MA4wDAYKYIZIAWUDAgEwATASBgNVHRMBAf8ECDAGAQH/AgEBMA0GCSqGSIb3DQEB
BQUAA4GBAHXkSFfYx3eChLIW3r9jR5s+WkJP7zC2MDwTim6sqK9EEdF8u7jpSM7A
injU005gD9O+daXiOhdTWtO6tHG5lU4F0pz1/gf6NabgsIZcCY5ihmO0sg9yFw2x
m9ZtI0lrFDJVVMb2TTzSg2BCk/4WrjCu8lyZKeHb3/MPXrhVI6QI
-----END CERTIFICATE-----

subject=/C=US/O=Test Certificates/CN=pathLenConstraint6 subsubsubCA41X
issuer=/C=US/O=Test Certificates/CN=pathLenConstraint6 subsubCA41
-----BEGIN CERTIFICATE-----
MIICmDCCAgGgAwIBAgIBATANBgkqhkiG9w0BAQUFADBRMQswCQYDVQQGEwJVUzEa
MBgGA1UEChMRVGVzdCBDZXJ0aWZpY2F0ZXMxJjAkBgNVBAMTHXBhdGhMZW5Db25z
dHJhaW50NiBzdWJzdWJDQTQxMB4XDTAxMDQxOTE0NTcyMFoXDTExMDQxOTE0NTcy
MFowVTELMAkGA1UEBhMCVVMxGjAYBgNVBAoTEVRlc3QgQ2VydGlmaWNhdGVzMSow
KAYDVQQDEyFwYXRoTGVuQ29uc3RyYWludDYgc3Vic3Vic3ViQ0E0MVgwgZ8wDQYJ
KoZIhvcNAQEBBQADgY0AMIGJAoGBALlp+FnExwi/Gj0ZI91kqo4pmnqqOhGFj1B7
BwwpwPKi9bTS4V7SoF/789+rQvetsKPMvlFqlJxAJDAucVf9IcHun+JONgiIUcLB
o1x/hhXffJx5AKaTGK3lCSkXqT2ivI8QJNTTjDgv3gvwGg97WVPlbOeZEPbwMzlx
i4oq4uHXAgMBAAGjfDB6MB8GA1UdIwQYMBaAFMbF3T3X+3RDQMnQquWhCtaBNIoR
MB0GA1UdDgQWBBQQleeKlnT5PPSbBqlJ88GaP85wHzAOBgNVHQ8BAf8EBAMCAQYw
FwYDVR0gBBAwDjAMBgpghkgBZQMCATABMA8GA1UdEwEB/wQFMAMBAf8wDQYJKoZI
hvcNAQEFBQADgYEAuzFHa2SgbDIRvfbqmMe+p2l0M4gJMEc3r2caaovmKgfuVyBl
n0JdZN2rzlYFV4jZbJ0wa89PzLIDtmptUctcO0DO/P+ofx8uAATdFhL4yMmHkK9L
XVBrdANbZSBZ+8WXKrnvsJArX0vtQax8znEaTUskMtDe6gjzZsb957dYCCU=
-----END CERTIFICATE-----

subject=/C=US/O=Test Certificates/CN=Valid pathLenConstraint EE Certificate Test14
issuer=/C=US/O=Test Certificates/CN=pathLenConstraint6 subsubsubCA41X
-----BEGIN CERTIFICATE-----
MIICqDCCAhGgAwIBAgIBAjANBgkqhkiG9w0BAQUFADBVMQswCQYDVQQGEwJVUzEa
MBgGA1UEChMRVGVzdCBDZXJ0aWZpY2F0ZXMxKjAoBgNVBAMTIXBhdGhMZW5Db25z
dHJhaW50NiBzdWJzdWJzdWJDQTQxWDAeFw0wMTA0MTkxNDU3MjBaFw0xMTA0MTkx
NDU3MjBaMGExCzAJBgNVBAYTAlVTMRowGAYDVQQKExFUZXN0IENlcnRpZmljYXRl
czE2MDQGA1UEAxMtVmFsaWQgcGF0aExlbkNvbnN0cmFpbnQgRUUgQ2VydGlmaWNh
dGUgVGVzdDE0MIGfMA0GCSqGSIb3DQEBAQUAA4GNADCBiQKBgQCTcyx/sZXkB7EZ
X9U9aJCVucbvSK3QXJ38Ej+ZM7agOIkJnMypA0BzQ43FvxbDlx67ynhH3au4nFw9
niBIPF0hg9LKJBYQDlFhdCPd441gpnEOtT5abklFPScEoi115OUSsoA94VZwjdmz
rxb5Scji7OZYKtBZumvQ+YxbZGKi9QIDAQABo3wwejAfBgNVHSMEGDAWgBQQleeK
lnT5PPSbBqlJ88GaP85wHzAdBgNVHQ4EFgQUSa5vCfYgmh0xBcsnTTGEttOhtX0w
DgYDVR0PAQH/BAQDAgH2MBcGA1UdIAQQMA4wDAYKYIZIAWUDAgEwATAPBgNVHRMB
Af8EBTADAQH/MA0GCSqGSIb3DQEBBQUAA4GBABdfALk3+cW2GpEztpvr/6wgOkaJ
ev+/WwDgW5YTiVGbLZRr+5qrxz8Log4b4Y/OYyrwh+J/gmQFP34wHEm4ReZHcfyD
4k6Ji2dWxqLaocQVROOZ9n+vqSFC63nNE/ZDNnsUErkEQJdX7f7HMDZoDI0wryrp
3fLY+NJlyePm6r1M
-----END CERTIFICATE-----

Certificate Revocation List (CRL):
        Version 2 (0x1)
        Signature Algorithm: sha1WithRSAEncryption
        Issuer: /C=US/O=Test Certificates/CN=pathLenConstraint6 CA
        Last Update: Apr 19 14:57:20 2001 GMT
        Next Update: Apr 19 14:57:20 2011 GMT
        CRL extensions:
            X509v3 Authority Key Identifier: 
                keyid:9D:8F:B4:A4:B7:A2:AE:B9:76:B5:1E:CB:1F:64:16:A5:7A:0E:85:4A

            X509v3 CRL Number: 
                1
No Revoked Certificates.
    Signature Algorithm: sha1WithRSAEncryption
        0d:f1:3d:54:c8:22:83:d4:1c:69:d2:12:e3:82:09:7e:b6:c0:
        af:f4:41:9b:51:c5:04:d4:c5:ca:51:73:5c:c5:14:c5:d6:d0:
        11:6c:40:ce:49:e7:80:49:a9:35:94:84:b5:bb:52:37:62:c3:
        5e:0e:18:48:57:44:b1:cd:97:a2:44:ef:9f:75:44:16:9e:58:
        ff:db:7f:18:8e:d5:07:fc:01:64:17:c3:00:79:4d:02:af:dd:
        08:88:37:03:be:cc:80:7a:cb:fd:e7:5c:53:03:b1:f2:17:16:
        1a:14:25:f4:ea:50:8c:14:ff:58:e9:2f:fe:e4:75:d9:67:78:
        fa:7a
-----BEGIN X509 CRL-----
MIIBQjCBrAIBATANBgkqhkiG9w0BAQUFADBJMQswCQYDVQQGEwJVUzEaMBgGA1UE
ChMRVGVzdCBDZXJ0aWZpY2F0ZXMxHjAcBgNVBAMTFXBhdGhMZW5Db25zdHJhaW50
NiBDQRcNMDEwNDE5MTQ1NzIwWhcNMTEwNDE5MTQ1NzIwWqAvMC0wHwYDVR0jBBgw
FoAUnY+0pLeirrl2tR7LH2QWpXoOhUowCgYDVR0UBAMCAQEwDQYJKoZIhvcNAQEF
BQADgYEADfE9VMgig9QcadIS44IJfrbAr/RBm1HFBNTFylFzXMUUxdbQEWxAzknn
gEmpNZSEtbtSN2LDXg4YSFdEsc2XokTvn3VEFp5Y/9t/GI7VB/wBZBfDAHlNAq/d
CIg3A77MgHrL/edcUwOx8hcWGhQl9OpQjBT/WOkv/uR12Wd4+no=
-----END X509 CRL-----

Certificate Revocation List (CRL):
        Version 2 (0x1)
        Signature Algorithm: sha1WithRSAEncryption
        Issuer: /C=US/O=Test Certificates/CN=pathLenConstraint6 subCA4
        Last Update: Apr 19 14:57:20 2001 GMT
        Next Update: Apr 19 14:57:20 2011 GMT
        CRL extensions:
            X509v3 Authority Key Identifier: 
                keyid:48:34:08:54:A6:EC:4F:D9:98:14:21:EC:D4:63:B1:23:6F:ED:79:3E

            X509v3 CRL Number: 
                1
No Revoked Certificates.
    Signature Algorithm: sha1WithRSAEncryption
        7a:5e:e4:e2:af:00:5c:48:3a:c2:36:d1:97:10:66:06:b0:04:
        8c:37:8b:96:01:b2:c1:bc:b5:3a:8f:b5:44:05:db:84:2a:85:
        c1:7c:96:fd:b3:6c:1d:47:69:63:e6:a2:d5:6b:29:76:e2:72:
        e1:4b:6a:d4:06:22:80:cb:58:0a:39:aa:47:45:a0:84:d0:9d:
        d4:e5:00:13:71:ef:bb:3b:27:b0:e5:93:cf:b2:05:87:43:8d:
        bc:a5:7a:50:8f:22:43:48:df:9a:e7:cc:8c:3e:54:fd:16:85:
        3e:e9:a2:47:4f:f8:ae:94:85:32:4a:88:94:b7:c4:13:62:11:
        6c:b8
-----BEGIN X509 CRL-----
MIIBRjCBsAIBATANBgkqhkiG9w0BAQUFADBNMQswCQYDVQQGEwJVUzEaMBgGA1UE
ChMRVGVzdCBDZXJ0aWZpY2F0ZXMxIjAgBgNVBAMTGXBhdGhMZW5Db25zdHJhaW50
NiBzdWJDQTQXDTAxMDQxOTE0NTcyMFoXDTExMDQxOTE0NTcyMFqgLzAtMB8GA1Ud
IwQYMBaAFEg0CFSm7E/ZmBQh7NRjsSNv7Xk+MAoGA1UdFAQDAgEBMA0GCSqGSIb3
DQEBBQUAA4GBAHpe5OKvAFxIOsI20ZcQZgawBIw3i5YBssG8tTqPtUQF24QqhcF8
lv2zbB1HaWPmotVrKXbicuFLatQGIoDLWAo5qkdFoITQndTlABNx77s7J7Dlk8+y
BYdDjbylelCPIkNI35rnzIw+VP0WhT7pokdP+K6UhTJKiJS3xBNiEWy4
-----END X509 CRL-----

Certificate Revocation List (CRL):
        Version 2 (0x1)
        Signature Algorithm: sha1WithRSAEncryption
        Issuer: /C=US/O=Test Certificates/CN=pathLenConstraint6 subsubCA41
        Last Update: Apr 19 14:57:20 2001 GMT
        Next Update: Apr 19 14:57:20 2011 GMT
        CRL extensions:
            X509v3 Authority Key Identifier: 
                keyid:C6:C5:DD:3D:D7:FB:74:43:40:C9:D0:AA:E5:A1:0A:D6:81:34:8A:11

            X509v3 CRL Number: 
                1
No Revoked Certificates.
    Signature Algorithm: sha1WithRSAEncryption
        0e:71:9b:f6:ad:39:6e:d8:be:f8:b2:87:85:75:4b:35:16:3c:
        e7:52:48:af:e3:b1:7b:6d:1f:2e:59:59:81:af:cc:88:37:3b:
        78:f8:4d:7a:81:e6:6e:23:50:4c:80:f2:e9:d5:cf:79:ce:e8:
        9e:f8:c4:82:2b:6f:4a:ab:29:bd:5b:34:57:5f:31:5d:3b:a6:
        b5:da:8f:57:4b:07:e2:5f:e3:f1:b0:8f:25:92:f2:c6:57:26:
        9a:4e:36:d9:c9:6b:37:f3:0f:7d:81:b6:2d:6c:f7:c7:76:d7:
        3e:29:67:8b:2e:01:9a:f8:90:2c:53:da:a6:c7:6c:b6:56:09:
        fb:df
-----BEGIN X509 CRL-----
MIIBSjCBtAIBATANBgkqhkiG9w0BAQUFADBRMQswCQYDVQQGEwJVUzEaMBgGA1UE
ChMRVGVzdCBDZXJ0aWZpY2F0ZXMxJjAkBgNVBAMTHXBhdGhMZW5Db25zdHJhaW50
NiBzdWJzdWJDQTQxFw0wMTA0MTkxNDU3MjBaFw0xMTA0MTkxNDU3MjBaoC8wLTAf
BgNVHSMEGDAWgBTGxd091/t0Q0DJ0KrloQrWgTSKETAKBgNVHRQEAwIBATANBgkq
hkiG9w0BAQUFAAOBgQAOcZv2rTlu2L74soeFdUs1FjznUkiv47F7bR8uWVmBr8yI
Nzt4+E16geZuI1BMgPLp1c95zuie+MSCK29Kqym9WzRXXzFdO6a12o9XSwfiX+Px
sI8lkvLGVyaaTjbZyWs38w99gbYtbPfHdtc+KWeLLgGa+JAsU9qmx2y2Vgn73w==
-----END X509 CRL-----

Certificate Revocation List (CRL):
        Version 2 (0x1)
        Signature Algorithm: sha1WithRSAEncryption
        Issuer: /C=US/O=Test Certificates/CN=pathLenConstraint6 subsubsubCA41X
        Last Update: Apr 19 14:57:20 2001 GMT
        Next Update: Apr 19 14:57:20 2011 GMT
        CRL extensions:
            X509v3 Authority Key Identifier: 
                keyid:10:95:E7:8A:96:74:F9:3C:F4:9B:06:A9:49:F3:C1:9A:3F:CE:70:1F

            X509v3 CRL Number: 
                1
No Revoked Certificates.
    Signature Algorithm: sha1WithRSAEncryption
        06:af:3f:80:68:02:24:ee:c0:3f:33:5b:62:49:01:cf:ee:87:
        f7:92:49:33:a2:b1:b0:6c:e7:23:7f:4a:8d:2a:1b:e9:31:fc:
        04:49:76:f2:f6:92:d2:b3:32:70:50:71:9f:12:ab:03:6c:2d:
        a7:0f:81:ef:fb:01:3e:3f:09:b8:df:e8:4e:28:c9:5d:fa:a3:
        ef:64:db:b9:cb:8f:66:a2:b5:ba:17:f3:05:62:5c:8c:5b:75:
        f6:7e:54:aa:30:59:0d:50:c1:23:90:c9:91:06:49:1e:bf:23:
        de:88:c6:7a:39:0e:6e:11:cc:44:44:40:2e:08:82:65:e8:74:
        9d:60
-----BEGIN X509 CRL-----
MIIBTjCBuAIBATANBgkqhkiG9w0BAQUFADBVMQswCQYDVQQGEwJVUzEaMBgGA1UE
ChMRVGVzdCBDZXJ0aWZpY2F0ZXMxKjAoBgNVBAMTIXBhdGhMZW5Db25zdHJhaW50
NiBzdWJzdWJzdWJDQTQxWBcNMDEwNDE5MTQ1NzIwWhcNMTEwNDE5MTQ1NzIwWqAv
MC0wHwYDVR0jBBgwFoAUEJXnipZ0+Tz0mwapSfPBmj/OcB8wCgYDVR0UBAMCAQEw
DQYJKoZIhvcNAQEFBQADgYEABq8/gGgCJO7APzNbYkkBz+6H95JJM6KxsGznI39K
jSob6TH8BEl28vaS0rMycFBxnxKrA2wtpw+B7/sBPj8JuN/oTijJXfqj72TbucuP
ZqK1uhfzBWJcjFt19n5UqjBZDVDBI5DJkQZJHr8j3ojGejkObhHMRERALgiCZeh0
nWA=
-----END X509 CRL-----

Certificate Revocation List (CRL):
        Version 2 (0x1)
        Signature Algorithm: sha1WithRSAEncryption
        Issuer: /C=US/O=Test Certificates/CN=Trust Anchor
        Last Update: Apr 19 14:57:20 2001 GMT
        Next Update: Apr 19 14:57:20 2011 GMT
        CRL extensions:
            X509v3 Authority Key Identifier: 
                keyid:FB:6C:D4:2D:81:9E:CA:27:7A:9E:0D:B0:3C:EA:9A:BC:87:FF:49:EA

            X509v3 CRL Number: 
                1
Revoked Certificates:
    Serial Number: 68
        Revocation Date: Apr 19 14:57:20 2001 GMT
        CRL entry extensions:
            X509v3 CRL Reason Code: 
                Key Compromise
    Signature Algorithm: sha1WithRSAEncryption
        92:12:c4:34:b4:92:ab:ba:71:6b:74:31:16:ce:ed:25:d6:4b:
        1e:fa:f8:20:1e:9d:d7:7f:30:ed:15:f7:8b:5d:64:9b:dd:31:
        40:e4:55:0f:0c:5f:82:69:63:00:76:a5:cf:9e:c4:5f:f2:53:
        9b:9b:7d:f5:69:1d:74:57:38:70:e5:fb:5b:76:58:c9:ec:31:
        dc:94:1b:02:ee:9d:33:9c:38:4b:29:1d:e1:0c:29:8b:6e:c7:
        bf:a0:e8:40:34:83:cf:ff:9f:cd:b5:f7:d9:4d:a7:9f:2e:bf:
        44:98:6b:f2:d3:fe:a8:20:31:c1:33:76:b7:1c:19:65:4d:b9:
        14:39
-----BEGIN X509 CRL-----
MIIBXTCBxwIBATANBgkqhkiG9w0BAQUFADBAMQswCQYDVQQGEwJVUzEaMBgGA1UE
ChMRVGVzdCBDZXJ0aWZpY2F0ZXMxFTATBgNVBAMTDFRydXN0IEFuY2hvchcNMDEw
NDE5MTQ1NzIwWhcNMTEwNDE5MTQ1NzIwWjAiMCACAWgXDTAxMDQxOTE0NTcyMFow
DDAKBgNVHRUEAwoBAaAvMC0wHwYDVR0jBBgwFoAU+2zULYGeyid6ng2wPOqavIf/
SeowCgYDVR0UBAMCAQEwDQYJKoZIhvcNAQEFBQADgYEAkhLENLSSq7pxa3QxFs7t
JdZLHvr4IB6d138w7RX3i11km90xQORVDwxfgmljAHalz57EX/JTm5t99WkddFc4
cOX7W3ZYyewx3JQbAu6dM5w4Sykd4Qwpi27Hv6DoQDSDz/+fzbX32U2nny6/RJhr
8tP+qCAxwTN2txwZZU25FDk=
-----END X509 CRL-----

