subject=/C=US/O=Test Certificates/CN=Valid requireExplicitPolicy EE Certificate Test1
issuer=/C=US/O=Test Certificates/CN=requireExplicitPolicy10 subsubsubCA
-----BEGIN CERTIFICATE-----
MIICgzCCAeygAwIBAgIBATANBgkqhkiG9w0BAQUFADBXMQswCQYDVQQGEwJVUzEa
MBgGA1UEChMRVGVzdCBDZXJ0aWZpY2F0ZXMxLDAqBgNVBAMTI3JlcXVpcmVFeHBs
aWNpdFBvbGljeTEwIHN1YnN1YnN1YkNBMB4XDTAxMDQxOTE0NTcyMFoXDTExMDQx
OTE0NTcyMFowZDELMAkGA1UEBhMCVVMxGjAYBgNVBAoTEVRlc3QgQ2VydGlmaWNh
dGVzMTkwNwYDVQQDEzBWYWxpZCByZXF1aXJlRXhwbGljaXRQb2xpY3kgRUUgQ2Vy
dGlmaWNhdGUgVGVzdDEwgZ8wDQYJKoZIhvcNAQEBBQADgY0AMIGJAoGBAMtxfTwK
0K+ya1KGbTjYgKKhZIQ/LGTa7Dspd7Z5tOgMptNRXcZxWTMotzRgl1ndDpQ6VREk
JM/VBmbP67g0jwIe2n0QcTFkThPANsyPkdUBXahvmC0VEeIMHnflvqjN4vfK9guc
6nG0XfBZ4/Jlx6SFvgoO6wm6XNtrMl32qwUjAgMBAAGjUjBQMB8GA1UdIwQYMBaA
FJTXd8VxKtTTGW/0USC22qwIMuOvMB0GA1UdDgQWBBRUf4tLtvX7PjlUltzRvRgg
phdo6DAOBgNVHQ8BAf8EBAMCBPAwDQYJKoZIhvcNAQEFBQADgYEAnReGZHvu3NJz
B3B+qMmyfqUmW5eMxNjHymhuRDw3NXTmT7SNUL8O/NC76haxw/5HDE7rVuvGSPl1
qhciDJOmTF1o09zDDjDM3tlXUvqC2Natm/Xew1+Hy4hfzY90CmlUuUGpKpzQ7SYt
mHl+zz1o+9Y1jZSK4yDs5xcPnisoUjQ=
-----END CERTIFICATE-----

subject=/C=US/O=Test Certificates/CN=requireExplicitPolicy10 subCA
issuer=/C=US/O=Test Certificates/CN=requireExplicitPolicy10 CA
-----BEGIN CERTIFICATE-----
MIICkTCCAfqgAwIBAgIBATANBgkqhkiG9w0BAQUFADBOMQswCQYDVQQGEwJVUzEa
MBgGA1UEChMRVGVzdCBDZXJ0aWZpY2F0ZXMxIzAhBgNVBAMTGnJlcXVpcmVFeHBs
aWNpdFBvbGljeTEwIENBMB4XDTAxMDQxOTE0NTcyMFoXDTExMDQxOTE0NTcyMFow
UTELMAkGA1UEBhMCVVMxGjAYBgNVBAoTEVRlc3QgQ2VydGlmaWNhdGVzMSYwJAYD
VQQDEx1yZXF1aXJlRXhwbGljaXRQb2xpY3kxMCBzdWJDQTCBnzANBgkqhkiG9w0B
AQEFAAOBjQAwgYkCgYEAvWfbIMg2LdPn/geH8Jo29/G6XSDCQm/MPINuucCdUSjA
PBSponYKGMQNY//7KhwbVj2hQlgl8U6gw0rvIml4YaZmR3SPUXl2O0BXiiFQX0Qi
bJ7NRaPcgrg04Fl+W19wk2Q2qGBrc1rMCDSG7ZBzwqtJssJpgkb4GSnoGr9FEKEC
AwEAAaN8MHowHwYDVR0jBBgwFoAU8+kmmZYGhsTVonvsubClbjYNFUUwHQYDVR0O
BBYEFKNDYb56GPOuZdF0vMDzMPzWBjqUMA4GA1UdDwEB/wQEAwIBBjAXBgNVHSAE
EDAOMAwGCmCGSAFlAwIBMAEwDwYDVR0TAQH/BAUwAwEB/zANBgkqhkiG9w0BAQUF
AAOBgQCX5vf2fqbgsOCFDqP5acUsKiSiuP31Oj/Fy1e0Y1LBph3ZtxRTkqZGIUI1
imjbT64NLWvt2MMmfeHOlEU/fSRxevhRT+yRUmfaJuw9NBepK1oxpRtJ5tu5cr7E
WyJMT/zv3wRloA23Feldchzxg6rqsM1LybyAtXXo67sc/EUxdQ==
-----END CERTIFICATE-----

subject=/C=US/O=Test Certificates/CN=requireExplicitPolicy10 CA
issuer=/C=US/O=Test Certificates/CN=Trust Anchor
-----BEGIN CERTIFICATE-----
MIICkzCCAfygAwIBAgIBKjANBgkqhkiG9w0BAQUFADBAMQswCQYDVQQGEwJVUzEa
MBgGA1UEChMRVGVzdCBDZXJ0aWZpY2F0ZXMxFTATBgNVBAMTDFRydXN0IEFuY2hv
cjAeFw0wMTA0MTkxNDU3MjBaFw0xMTA0MTkxNDU3MjBaME4xCzAJBgNVBAYTAlVT
MRowGAYDVQQKExFUZXN0IENlcnRpZmljYXRlczEjMCEGA1UEAxMacmVxdWlyZUV4
cGxpY2l0UG9saWN5MTAgQ0EwgZ8wDQYJKoZIhvcNAQEBBQADgY0AMIGJAoGBAMyF
/T/s9w6HU3LcURfJCjhjrP4PxbYbTP/c4wcq8vtx+8gb8P6jkdDvpJms19NcshfK
DnR2b+cp6PfbAWx31AqcF2ynuU/C06PG/GQvNUhC69RziLxcHSMkThbnbN86ccr6
d1WWb3Mxlkmtc7AhKHmORoz/Kd0b2Poi7L91o7+VAgMBAAGjgY4wgYswHwYDVR0j
BBgwFoAU+2zULYGeyid6ng2wPOqavIf/SeowHQYDVR0OBBYEFPPpJpmWBobE1aJ7
7LmwpW42DRVFMA4GA1UdDwEB/wQEAwIBBjAXBgNVHSAEEDAOMAwGCmCGSAFlAwIB
MAEwDwYDVR0TAQH/BAUwAwEB/zAPBgNVHSQBAf8EBTADgAEKMA0GCSqGSIb3DQEB
BQUAA4GBAC0Pv/aS8/3mmgB+R0A7UTvUGedE/M+DOOM5G8+dwZHjApQbuHYZjwQo
Yrf6759MH9wKAYOcaJTgFJWFJuwjBJuWQuiglk8tcKmufVqHgRlCsrKtz312inHV
NfxuGrViA3gp1Tr1fiXjG0gcgyT4QEnripDTLKvpHbOtMWZB6hSS
-----END CERTIFICATE-----

subject=/C=US/O=Test Certificates/CN=requireExplicitPolicy10 subsubCA
issuer=/C=US/O=Test Certificates/CN=requireExplicitPolicy10 subCA
-----BEGIN CERTIFICATE-----
MIIClzCCAgCgAwIBAgIBATANBgkqhkiG9w0BAQUFADBRMQswCQYDVQQGEwJVUzEa
MBgGA1UEChMRVGVzdCBDZXJ0aWZpY2F0ZXMxJjAkBgNVBAMTHXJlcXVpcmVFeHBs
aWNpdFBvbGljeTEwIHN1YkNBMB4XDTAxMDQxOTE0NTcyMFoXDTExMDQxOTE0NTcy
MFowVDELMAkGA1UEBhMCVVMxGjAYBgNVBAoTEVRlc3QgQ2VydGlmaWNhdGVzMSkw
JwYDVQQDEyByZXF1aXJlRXhwbGljaXRQb2xpY3kxMCBzdWJzdWJDQTCBnzANBgkq
hkiG9w0BAQEFAAOBjQAwgYkCgYEAqwkZLQpMq2d0v1R/PA5wl+lyQlnehOszQk2U
0zfHPGI4vJ1TIZZXYpOjVyfodG1wdwO3RCHLzguwsbk12RVNTls+kF2Wu3LtLtMi
GSKx/imJiKw+ARw6sqBHmrNE9L/1C/e9rb+Su1kZ6WrtOfSAG8EpySytu9zTbGJF
1YbZT3cCAwEAAaN8MHowHwYDVR0jBBgwFoAUo0NhvnoY865l0XS8wPMw/NYGOpQw
HQYDVR0OBBYEFG1oMf35X1L5+y7aRMLPezaZ2P8pMA4GA1UdDwEB/wQEAwIBBjAX
BgNVHSAEEDAOMAwGCmCGSAFlAwIBMAEwDwYDVR0TAQH/BAUwAwEB/zANBgkqhkiG
9w0BAQUFAAOBgQAbOLTRc1DEC+iOWixska5o4gEOfAPSHWymjRYit+VYE3JdjrP9
2hbIGQSrLlK8QQ0+9VkNsfncjCydV7J6Q3c1rPNCvd6dlfAzy9DfnXADu/vZuxBs
pJ3B4EuSv23hMHzjoNnv/iGUnzkrLGfMPPYlB9t8jrbySU1lYX8FcD6YCw==
-----END CERTIFICATE-----

subject=/C=US/O=Test Certificates/CN=requireExplicitPolicy10 subsubsubCA
issuer=/C=US/O=Test Certificates/CN=requireExplicitPolicy10 subsubCA
-----BEGIN CERTIFICATE-----
MIICnTCCAgagAwIBAgIBATANBgkqhkiG9w0BAQUFADBUMQswCQYDVQQGEwJVUzEa
MBgGA1UEChMRVGVzdCBDZXJ0aWZpY2F0ZXMxKTAnBgNVBAMTIHJlcXVpcmVFeHBs
aWNpdFBvbGljeTEwIHN1YnN1YkNBMB4XDTAxMDQxOTE0NTcyMFoXDTExMDQxOTE0
NTcyMFowVzELMAkGA1UEBhMCVVMxGjAYBgNVBAoTEVRlc3QgQ2VydGlmaWNhdGVz
MSwwKgYDVQQDEyNyZXF1aXJlRXhwbGljaXRQb2xpY3kxMCBzdWJzdWJzdWJDQTCB
nzANBgkqhkiG9w0BAQEFAAOBjQAwgYkCgYEAuj3CUHlGX/JYo4Qsdmbzns192OxE
IC1a8Yc7HhN9/IeStb9BATFCI4MyFiHofxoFG+oPzs4nRkOqmOju0VXYhfu+01j4
LTKp2iwNleLbIe5CZ/PWasj9ixJfWeMe19fszNKvtnBmn+rCIqimOKmKPh7FIMgk
IImKUwZ2gV41wHkCAwEAAaN8MHowHwYDVR0jBBgwFoAUbWgx/flfUvn7LtpEws97
NpnY/ykwHQYDVR0OBBYEFJTXd8VxKtTTGW/0USC22qwIMuOvMA4GA1UdDwEB/wQE
AwIBBjAXBgNVHSAEEDAOMAwGCmCGSAFlAwIBMAEwDwYDVR0TAQH/BAUwAwEB/zAN
BgkqhkiG9w0BAQUFAAOBgQCQJ4CoH8d7JguvuXoxhetUWQz+kj/kW1kbW/vjxhHE
Ux4rnRd8TUhpocdkzp9xRLF8BvZFw4HwwFbys4rENFq/VpPzIFqIW59j1bvSQzjN
GWZp1MtaQuhSGtzwc4dfCl/1ozQVVkcjpT7n9iZ2JMYNGKLSmmuFMMLGoViVq0vo
mw==
-----END CERTIFICATE-----

Certificate Revocation List (CRL):
        Version 2 (0x1)
        Signature Algorithm: sha1WithRSAEncryption
        Issuer: /C=US/O=Test Certificates/CN=requireExplicitPolicy10 CA
        Last Update: Apr 19 14:57:20 2001 GMT
        Next Update: Apr 19 14:57:20 2011 GMT
        CRL extensions:
            X509v3 Authority Key Identifier: 
                keyid:F3:E9:26:99:96:06:86:C4:D5:A2:7B:EC:B9:B0:A5:6E:36:0D:15:45

            X509v3 CRL Number: 
                1
No Revoked Certificates.
    Signature Algorithm: sha1WithRSAEncryption
        0c:82:73:e1:99:5d:9f:9c:27:57:43:f6:74:10:b4:76:e1:d6:
        bf:9a:de:84:8f:9b:0e:a6:ba:9a:98:06:fa:ff:c2:a5:a4:cd:
        5f:b9:8d:4b:e1:67:e6:b3:e3:2e:5b:ea:e4:d9:9c:06:42:c0:
        96:81:40:e2:99:32:24:c2:7b:d1:47:2d:32:42:c9:7c:cd:09:
        aa:c8:1b:bc:a4:d8:fe:6d:8c:52:79:d5:81:70:89:78:b1:1e:
        11:2e:13:69:45:28:55:66:43:1d:61:40:fc:1a:78:ea:23:98:
        44:66:df:15:8e:d1:d5:f9:82:7a:d2:2e:ad:36:8a:03:ff:04:
        8e:09
-----BEGIN X509 CRL-----
MIIBRzCBsQIBATANBgkqhkiG9w0BAQUFADBOMQswCQYDVQQGEwJVUzEaMBgGA1UE
ChMRVGVzdCBDZXJ0aWZpY2F0ZXMxIzAhBgNVBAMTGnJlcXVpcmVFeHBsaWNpdFBv
bGljeTEwIENBFw0wMTA0MTkxNDU3MjBaFw0xMTA0MTkxNDU3MjBaoC8wLTAfBgNV
HSMEGDAWgBTz6SaZlgaGxNWie+y5sKVuNg0VRTAKBgNVHRQEAwIBATANBgkqhkiG
9w0BAQUFAAOBgQAMgnPhmV2fnCdXQ/Z0ELR24da/mt6Ej5sOprqamAb6/8KlpM1f
uY1L4Wfms+MuW+rk2ZwGQsCWgUDimTIkwnvRRy0yQsl8zQmqyBu8pNj+bYxSedWB
cIl4sR4RLhNpRShVZkMdYUD8GnjqI5hEZt8VjtHV+YJ60i6tNooD/wSOCQ==
-----END X509 CRL-----

Certificate Revocation List (CRL):
        Version 2 (0x1)
        Signature Algorithm: sha1WithRSAEncryption
        Issuer: /C=US/O=Test Certificates/CN=requireExplicitPolicy10 subCA
        Last Update: Apr 19 14:57:20 2001 GMT
        Next Update: Apr 19 14:57:20 2011 GMT
        CRL extensions:
            X509v3 Authority Key Identifier: 
                keyid:A3:43:61:BE:7A:18:F3:AE:65:D1:74:BC:C0:F3:30:FC:D6:06:3A:94

            X509v3 CRL Number: 
                1
No Revoked Certificates.
    Signature Algorithm: sha1WithRSAEncryption
        1e:e5:78:df:47:b6:e0:42:9d:78:6f:f5:38:37:a6:fb:e9:8b:
        00:16:34:fe:da:ae:70:4c:b6:b2:3d:53:7c:ef:58:24:b8:87:
        a5:c0:ca:7c:fd:aa:8d:ba:2e:76:fd:c0:9a:f3:b9:70:a8:43:
        13:41:22:1b:51:ff:00:20:32:ae:ab:6d:44:ec:b8:7d:4e:4b:
        d5:86:83:ea:98:64:cf:0f:dc:f5:2d:52:ee:20:98:a9:49:ad:
        06:b6:39:4c:d5:1a:94:a5:22:4e:ad:b5:ad:14:64:49:e5:6e:
        aa:63:9b:36:28:9f:5f:dc:c1:03:7e:7e:c2:ee:48:63:19:7a:
        04:f4
-----BEGIN X509 CRL-----
MIIBSjCBtAIBATANBgkqhkiG9w0BAQUFADBRMQswCQYDVQQGEwJVUzEaMBgGA1UE
ChMRVGVzdCBDZXJ0aWZpY2F0ZXMxJjAkBgNVBAMTHXJlcXVpcmVFeHBsaWNpdFBv
bGljeTEwIHN1YkNBFw0wMTA0MTkxNDU3MjBaFw0xMTA0MTkxNDU3MjBaoC8wLTAf
BgNVHSMEGDAWgBSjQ2G+ehjzrmXRdLzA8zD81gY6lDAKBgNVHRQEAwIBATANBgkq
hkiG9w0BAQUFAAOBgQAe5XjfR7bgQp14b/U4N6b76YsAFjT+2q5wTLayPVN871gk
uIelwMp8/aqNui52/cCa87lwqEMTQSIbUf8AIDKuq21E7Lh9TkvVhoPqmGTPD9z1
LVLuIJipSa0GtjlM1RqUpSJOrbWtFGRJ5W6qY5s2KJ9f3MEDfn7C7khjGXoE9A==
-----END X509 CRL-----

Certificate Revocation List (CRL):
        Version 2 (0x1)
        Signature Algorithm: sha1WithRSAEncryption
        Issuer: /C=US/O=Test Certificates/CN=requireExplicitPolicy10 subsubCA
        Last Update: Apr 19 14:57:20 2001 GMT
        Next Update: Apr 19 14:57:20 2011 GMT
        CRL extensions:
            X509v3 Authority Key Identifier: 
                keyid:6D:68:31:FD:F9:5F:52:F9:FB:2E:DA:44:C2:CF:7B:36:99:D8:FF:29

            X509v3 CRL Number: 
                1
No Revoked Certificates.
    Signature Algorithm: sha1WithRSAEncryption
        58:cb:cd:7e:81:ea:55:5b:85:7d:b1:7b:ae:0c:70:90:82:81:
        aa:5f:e4:5b:99:72:8c:22:bc:2a:ae:3f:d7:0f:94:cc:02:b6:
        0f:c3:e9:ab:c2:8b:c1:68:0f:12:ca:f0:7c:1e:31:21:7d:38:
        5e:2c:0e:9f:af:89:48:e1:2a:1f:12:e6:2a:b6:59:98:dd:d0:
        ba:1e:06:b1:c9:85:b8:75:f8:a9:da:e9:25:6c:e4:9c:6a:92:
        29:d7:59:fb:f1:80:c4:4c:43:f6:79:5b:60:a7:36:cc:64:22:
        5f:f7:d8:8e:ba:1c:a3:59:d2:fe:1d:8d:5c:40:8f:0d:2d:ee:
        11:4d
-----BEGIN X509 CRL-----
MIIBTTCBtwIBATANBgkqhkiG9w0BAQUFADBUMQswCQYDVQQGEwJVUzEaMBgGA1UE
ChMRVGVzdCBDZXJ0aWZpY2F0ZXMxKTAnBgNVBAMTIHJlcXVpcmVFeHBsaWNpdFBv
bGljeTEwIHN1YnN1YkNBFw0wMTA0MTkxNDU3MjBaFw0xMTA0MTkxNDU3MjBaoC8w
LTAfBgNVHSMEGDAWgBRtaDH9+V9S+fsu2kTCz3s2mdj/KTAKBgNVHRQEAwIBATAN
BgkqhkiG9w0BAQUFAAOBgQBYy81+gepVW4V9sXuuDHCQgoGqX+RbmXKMIrwqrj/X
D5TMArYPw+mrwovBaA8SyvB8HjEhfTheLA6fr4lI4SofEuYqtlmY3dC6HgaxyYW4
dfip2uklbOScapIp11n78YDETEP2eVtgpzbMZCJf99iOuhyjWdL+HY1cQI8NLe4R
TQ==
-----END X509 CRL-----

Certificate Revocation List (CRL):
        Version 2 (0x1)
        Signature Algorithm: sha1WithRSAEncryption
        Issuer: /C=US/O=Test Certificates/CN=requireExplicitPolicy10 subsubsubCA
        Last Update: Apr 19 14:57:20 2001 GMT
        Next Update: Apr 19 14:57:20 2011 GMT
        CRL extensions:
            X509v3 Authority Key Identifier: 
                keyid:94:D7:77:C5:71:2A:D4:D3:19:6F:F4:51:20:B6:DA:AC:08:32:E3:AF

            X509v3 CRL Number: 
                1
No Revoked Certificates.
    Signature Algorithm: sha1WithRSAEncryption
        8e:42:22:a8:c7:94:5a:d3:72:4c:98:eb:58:30:58:63:41:cf:
        da:f9:9e:f5:6f:3b:4e:30:17:92:8b:a8:30:bc:cb:ac:2d:94:
        b1:62:ef:b9:69:3e:30:15:01:d4:32:ff:f4:86:c5:5d:8d:41:
        46:39:52:a0:df:74:e5:35:c4:e6:08:06:58:94:ba:d1:7e:08:
        e4:66:e1:65:8d:15:23:3c:e6:de:61:4e:71:5e:5d:24:03:bd:
        52:ff:85:a9:ea:7a:63:37:e5:c0:e6:78:4a:71:45:32:18:c7:
        7d:2b:90:16:bb:f9:35:cd:a2:ab:c3:8e:c9:db:6e:7e:62:94:
        6b:ad
-----BEGIN X509 CRL-----
MIIBUDCBugIBATANBgkqhkiG9w0BAQUFADBXMQswCQYDVQQGEwJVUzEaMBgGA1UE
ChMRVGVzdCBDZXJ0aWZpY2F0ZXMxLDAqBgNVBAMTI3JlcXVpcmVFeHBsaWNpdFBv
bGljeTEwIHN1YnN1YnN1YkNBFw0wMTA0MTkxNDU3MjBaFw0xMTA0MTkxNDU3MjBa
oC8wLTAfBgNVHSMEGDAWgBSU13fFcSrU0xlv9FEgttqsCDLjrzAKBgNVHRQEAwIB
ATANBgkqhkiG9w0BAQUFAAOBgQCOQiKox5Ra03JMmOtYMFhjQc/a+Z71bztOMBeS
i6gwvMusLZSxYu+5aT4wFQHUMv/0hsVdjUFGOVKg33TlNcTmCAZYlLrRfgjkZuFl
jRUjPObeYU5xXl0kA71S/4Wp6npjN+XA5nhKcUUyGMd9K5AWu/k1zaKrw47J225+
YpRrrQ==
-----END X509 CRL-----

Certificate Revocation List (CRL):
        Version 2 (0x1)
        Signature Algorithm: sha1WithRSAEncryption
        Issuer: /C=US/O=Test Certificates/CN=Trust Anchor
        Last Update: Apr 19 14:57:20 2001 GMT
        Next Update: Apr 19 14:57:20 2011 GMT
        CRL extensions:
            X509v3 Authority Key Identifier: 
                keyid:FB:6C:D4:2D:81:9E:CA:27:7A:9E:0D:B0:3C:EA:9A:BC:87:FF:49:EA

            X509v3 CRL Number: 
                1
Revoked Certificates:
    Serial Number: 68
        Revocation Date: Apr 19 14:57:20 2001 GMT
        CRL entry extensions:
            X509v3 CRL Reason Code: 
                Key Compromise
    Signature Algorithm: sha1WithRSAEncryption
        92:12:c4:34:b4:92:ab:ba:71:6b:74:31:16:ce:ed:25:d6:4b:
        1e:fa:f8:20:1e:9d:d7:7f:30:ed:15:f7:8b:5d:64:9b:dd:31:
        40:e4:55:0f:0c:5f:82:69:63:00:76:a5:cf:9e:c4:5f:f2:53:
        9b:9b:7d:f5:69:1d:74:57:38:70:e5:fb:5b:76:58:c9:ec:31:
        dc:94:1b:02:ee:9d:33:9c:38:4b:29:1d:e1:0c:29:8b:6e:c7:
        bf:a0:e8:40:34:83:cf:ff:9f:cd:b5:f7:d9:4d:a7:9f:2e:bf:
        44:98:6b:f2:d3:fe:a8:20:31:c1:33:76:b7:1c:19:65:4d:b9:
        14:39
-----BEGIN X509 CRL-----
MIIBXTCBxwIBATANBgkqhkiG9w0BAQUFADBAMQswCQYDVQQGEwJVUzEaMBgGA1UE
ChMRVGVzdCBDZXJ0aWZpY2F0ZXMxFTATBgNVBAMTDFRydXN0IEFuY2hvchcNMDEw
NDE5MTQ1NzIwWhcNMTEwNDE5MTQ1NzIwWjAiMCACAWgXDTAxMDQxOTE0NTcyMFow
DDAKBgNVHRUEAwoBAaAvMC0wHwYDVR0jBBgwFoAU+2zULYGeyid6ng2wPOqavIf/
SeowCgYDVR0UBAMCAQEwDQYJKoZIhvcNAQEFBQADgYEAkhLENLSSq7pxa3QxFs7t
JdZLHvr4IB6d138w7RX3i11km90xQORVDwxfgmljAHalz57EX/JTm5t99WkddFc4
cOX7W3ZYyewx3JQbAu6dM5w4Sykd4Qwpi27Hv6DoQDSDz/+fzbX32U2nny6/RJhr
8tP+qCAxwTN2txwZZU25FDk=
-----END X509 CRL-----

